GAS LISTING C:\Users\marwz\AppData\Local\Temp\cc6zW2FC.s 			page 1


   1              		.file	"cs1237.c"
   2              		.option nopic
   3              		.attribute arch, "rv32i2p0_m2p0_a2p0_c2p0"
   4              		.attribute unaligned_access, 0
   5              		.attribute stack_align, 16
   6              		.text
   7              	.Ltext0:
   8              		.cfi_sections	.debug_frame
   9              		.section	.text.clk,"ax",@progbits
  10              		.align	1
  11              		.globl	clk
  13              	clk:
  14              	.LFB0:
  15              		.file 1 "lib/cs1237/src/cs1237.c"
   1:lib/cs1237/src/cs1237.c **** #include "cs1237.h"
   2:lib/cs1237/src/cs1237.c **** #include "cs1237_port.h"
   3:lib/cs1237/src/cs1237.c **** #include "stdint.h"
   4:lib/cs1237/src/cs1237.c **** 
   5:lib/cs1237/src/cs1237.c **** cs1237_channel_t clock;
   6:lib/cs1237/src/cs1237.c **** 
   7:lib/cs1237/src/cs1237.c **** void clk(uint8_t value){
  16              		.loc 1 7 24
  17              		.cfi_startproc
  18              	.LVL0:
   8:lib/cs1237/src/cs1237.c **** 	cs1237_port_set_pin_value(&clock, value);
  19              		.loc 1 8 2
  20 0000 AA85     		mv	a1,a0
  21 0002 37050000 		lui	a0,%hi(clock)
  22              	.LVL1:
  23 0006 13050500 		addi	a0,a0,%lo(clock)
  24 000a 17030000 		tail	cs1237_port_set_pin_value
  24      67000300 
  25              	.LVL2:
  26              		.cfi_endproc
  27              	.LFE0:
  29              		.section	.text.wait,"ax",@progbits
  30              		.align	1
  31              		.globl	wait
  33              	wait:
  34              	.LFB1:
   9:lib/cs1237/src/cs1237.c **** }
  10:lib/cs1237/src/cs1237.c **** 
  11:lib/cs1237/src/cs1237.c **** void wait(){
  35              		.loc 1 11 12
  36              		.cfi_startproc
  12:lib/cs1237/src/cs1237.c **** 	cs1237_port_wait_min_455ns();
  37              		.loc 1 12 2
  38 0000 17030000 		tail	cs1237_port_wait_min_455ns
  38      67000300 
  39              	.LVL3:
  40              		.cfi_endproc
  41              	.LFE1:
  43              		.section	.text.drdy_input,"ax",@progbits
  44              		.align	1
  45              		.globl	drdy_input
  47              	drdy_input:
  48              	.LFB2:
GAS LISTING C:\Users\marwz\AppData\Local\Temp\cc6zW2FC.s 			page 2


  13:lib/cs1237/src/cs1237.c **** }
  14:lib/cs1237/src/cs1237.c **** 
  15:lib/cs1237/src/cs1237.c **** void drdy_input(uint8_t n_channels, cs1237_channel_t* channels){
  49              		.loc 1 15 64
  50              		.cfi_startproc
  51              	.LVL4:
  16:lib/cs1237/src/cs1237.c **** 	for(int i = 0; i < n_channels; i++) cs1237_port_pin_direction_in(&channels[i]);
  52              		.loc 1 16 2
  53              	.LBB93:
  54              		.loc 1 16 6
  55              	.LBE93:
  15:lib/cs1237/src/cs1237.c **** 	for(int i = 0; i < n_channels; i++) cs1237_port_pin_direction_in(&channels[i]);
  56              		.loc 1 15 64 is_stmt 0
  57 0000 0111     		addi	sp,sp,-32
  58              	.LCFI0:
  59              		.cfi_def_cfa_offset 32
  60 0002 22CC     		sw	s0,24(sp)
  61 0004 26CA     		sw	s1,20(sp)
  62 0006 4AC8     		sw	s2,16(sp)
  63 0008 06CE     		sw	ra,28(sp)
  64              		.cfi_offset 8, -8
  65              		.cfi_offset 9, -12
  66              		.cfi_offset 18, -16
  67              		.cfi_offset 1, -4
  15:lib/cs1237/src/cs1237.c **** 	for(int i = 0; i < n_channels; i++) cs1237_port_pin_direction_in(&channels[i]);
  68              		.loc 1 15 64
  69 000a AA84     		mv	s1,a0
  70              	.LBB94:
  71              		.loc 1 16 10
  72 000c 0144     		li	s0,0
  73              		.loc 1 16 38
  74 000e 5149     		li	s2,20
  75              	.LVL5:
  76              	.L4:
  77              		.loc 1 16 2 discriminator 1
  78 0010 63489400 		bgt	s1,s0,.L5
  79              	.LBE94:
  17:lib/cs1237/src/cs1237.c **** }
  80              		.loc 1 17 1
  81 0014 F240     		lw	ra,28(sp)
  82              		.cfi_remember_state
  83              		.cfi_restore 1
  84 0016 6244     		lw	s0,24(sp)
  85              		.cfi_restore 8
  86              	.LVL6:
  87 0018 D244     		lw	s1,20(sp)
  88              		.cfi_restore 9
  89 001a 4249     		lw	s2,16(sp)
  90              		.cfi_restore 18
  91 001c 0561     		addi	sp,sp,32
  92              	.LCFI1:
  93              		.cfi_def_cfa_offset 0
  94 001e 8280     		jr	ra
  95              	.LVL7:
  96              	.L5:
  97              	.LCFI2:
  98              		.cfi_restore_state
GAS LISTING C:\Users\marwz\AppData\Local\Temp\cc6zW2FC.s 			page 3


  99              	.LBB95:
  16:lib/cs1237/src/cs1237.c **** 	for(int i = 0; i < n_channels; i++) cs1237_port_pin_direction_in(&channels[i]);
 100              		.loc 1 16 38 is_stmt 1 discriminator 3
 101 0020 33052403 		mul	a0,s0,s2
 102 0024 2EC6     		sw	a1,12(sp)
  16:lib/cs1237/src/cs1237.c **** 	for(int i = 0; i < n_channels; i++) cs1237_port_pin_direction_in(&channels[i]);
 103              		.loc 1 16 34 is_stmt 0 discriminator 3
 104 0026 0504     		addi	s0,s0,1
 105              	.LVL8:
  16:lib/cs1237/src/cs1237.c **** 	for(int i = 0; i < n_channels; i++) cs1237_port_pin_direction_in(&channels[i]);
 106              		.loc 1 16 38 discriminator 3
 107 0028 2E95     		add	a0,a1,a0
 108 002a 97000000 		call	cs1237_port_pin_direction_in
 108      E7800000 
 109              	.LVL9:
  16:lib/cs1237/src/cs1237.c **** 	for(int i = 0; i < n_channels; i++) cs1237_port_pin_direction_in(&channels[i]);
 110              		.loc 1 16 34 discriminator 3
 111 0032 B245     		lw	a1,12(sp)
 112              	.LVL10:
 113 0034 F1BF     		j	.L4
 114              	.LBE95:
 115              		.cfi_endproc
 116              	.LFE2:
 118              		.section	.text.drdy_output,"ax",@progbits
 119              		.align	1
 120              		.globl	drdy_output
 122              	drdy_output:
 123              	.LFB3:
  18:lib/cs1237/src/cs1237.c **** 
  19:lib/cs1237/src/cs1237.c **** void drdy_output(uint8_t n_channels, cs1237_channel_t* channels){
 124              		.loc 1 19 65 is_stmt 1
 125              		.cfi_startproc
 126              	.LVL11:
  20:lib/cs1237/src/cs1237.c **** 	for(int i = 0; i < n_channels; i++) cs1237_port_pin_direction_out(&channels[i]);
 127              		.loc 1 20 2
 128              	.LBB96:
 129              		.loc 1 20 6
 130              	.LBE96:
  19:lib/cs1237/src/cs1237.c **** 	for(int i = 0; i < n_channels; i++) cs1237_port_pin_direction_out(&channels[i]);
 131              		.loc 1 19 65 is_stmt 0
 132 0000 0111     		addi	sp,sp,-32
 133              	.LCFI3:
 134              		.cfi_def_cfa_offset 32
 135 0002 22CC     		sw	s0,24(sp)
 136 0004 26CA     		sw	s1,20(sp)
 137 0006 4AC8     		sw	s2,16(sp)
 138 0008 06CE     		sw	ra,28(sp)
 139              		.cfi_offset 8, -8
 140              		.cfi_offset 9, -12
 141              		.cfi_offset 18, -16
 142              		.cfi_offset 1, -4
  19:lib/cs1237/src/cs1237.c **** 	for(int i = 0; i < n_channels; i++) cs1237_port_pin_direction_out(&channels[i]);
 143              		.loc 1 19 65
 144 000a AA84     		mv	s1,a0
 145              	.LBB97:
 146              		.loc 1 20 10
 147 000c 0144     		li	s0,0
GAS LISTING C:\Users\marwz\AppData\Local\Temp\cc6zW2FC.s 			page 4


 148              		.loc 1 20 38
 149 000e 5149     		li	s2,20
 150              	.LVL12:
 151              	.L8:
 152              		.loc 1 20 2 discriminator 1
 153 0010 63489400 		bgt	s1,s0,.L9
 154              	.LBE97:
  21:lib/cs1237/src/cs1237.c **** }
 155              		.loc 1 21 1
 156 0014 F240     		lw	ra,28(sp)
 157              		.cfi_remember_state
 158              		.cfi_restore 1
 159 0016 6244     		lw	s0,24(sp)
 160              		.cfi_restore 8
 161              	.LVL13:
 162 0018 D244     		lw	s1,20(sp)
 163              		.cfi_restore 9
 164 001a 4249     		lw	s2,16(sp)
 165              		.cfi_restore 18
 166 001c 0561     		addi	sp,sp,32
 167              	.LCFI4:
 168              		.cfi_def_cfa_offset 0
 169 001e 8280     		jr	ra
 170              	.LVL14:
 171              	.L9:
 172              	.LCFI5:
 173              		.cfi_restore_state
 174              	.LBB98:
  20:lib/cs1237/src/cs1237.c **** 	for(int i = 0; i < n_channels; i++) cs1237_port_pin_direction_out(&channels[i]);
 175              		.loc 1 20 38 is_stmt 1 discriminator 3
 176 0020 33052403 		mul	a0,s0,s2
 177 0024 2EC6     		sw	a1,12(sp)
  20:lib/cs1237/src/cs1237.c **** 	for(int i = 0; i < n_channels; i++) cs1237_port_pin_direction_out(&channels[i]);
 178              		.loc 1 20 34 is_stmt 0 discriminator 3
 179 0026 0504     		addi	s0,s0,1
 180              	.LVL15:
  20:lib/cs1237/src/cs1237.c **** 	for(int i = 0; i < n_channels; i++) cs1237_port_pin_direction_out(&channels[i]);
 181              		.loc 1 20 38 discriminator 3
 182 0028 2E95     		add	a0,a1,a0
 183 002a 97000000 		call	cs1237_port_pin_direction_out
 183      E7800000 
 184              	.LVL16:
  20:lib/cs1237/src/cs1237.c **** 	for(int i = 0; i < n_channels; i++) cs1237_port_pin_direction_out(&channels[i]);
 185              		.loc 1 20 34 discriminator 3
 186 0032 B245     		lw	a1,12(sp)
 187              	.LVL17:
 188 0034 F1BF     		j	.L8
 189              	.LBE98:
 190              		.cfi_endproc
 191              	.LFE3:
 193              		.section	.text.set_drdy,"ax",@progbits
 194              		.align	1
 195              		.globl	set_drdy
 197              	set_drdy:
 198              	.LFB4:
  22:lib/cs1237/src/cs1237.c **** 
  23:lib/cs1237/src/cs1237.c **** void set_drdy(uint8_t n_channels, cs1237_channel_t* channels, uint8_t value){
GAS LISTING C:\Users\marwz\AppData\Local\Temp\cc6zW2FC.s 			page 5


 199              		.loc 1 23 77 is_stmt 1
 200              		.cfi_startproc
 201              	.LVL18:
  24:lib/cs1237/src/cs1237.c **** 	for(int i = 0; i < n_channels; i++) cs1237_port_set_pin_value(&channels[i], value);
 202              		.loc 1 24 2
 203              	.LBB99:
 204              		.loc 1 24 6
 205              	.LBE99:
  23:lib/cs1237/src/cs1237.c **** 	for(int i = 0; i < n_channels; i++) cs1237_port_set_pin_value(&channels[i], value);
 206              		.loc 1 23 77 is_stmt 0
 207 0000 7971     		addi	sp,sp,-48
 208              	.LCFI6:
 209              		.cfi_def_cfa_offset 48
 210 0002 22D4     		sw	s0,40(sp)
 211 0004 26D2     		sw	s1,36(sp)
 212 0006 4AD0     		sw	s2,32(sp)
 213 0008 4ECE     		sw	s3,28(sp)
 214 000a 06D6     		sw	ra,44(sp)
 215              		.cfi_offset 8, -8
 216              		.cfi_offset 9, -12
 217              		.cfi_offset 18, -16
 218              		.cfi_offset 19, -20
 219              		.cfi_offset 1, -4
  23:lib/cs1237/src/cs1237.c **** 	for(int i = 0; i < n_channels; i++) cs1237_port_set_pin_value(&channels[i], value);
 220              		.loc 1 23 77
 221 000c AA84     		mv	s1,a0
 222 000e 2E89     		mv	s2,a1
 223              	.LBB100:
 224              		.loc 1 24 10
 225 0010 0144     		li	s0,0
 226              		.loc 1 24 38
 227 0012 D149     		li	s3,20
 228              	.LVL19:
 229              	.L12:
 230              		.loc 1 24 2 discriminator 1
 231 0014 63499400 		bgt	s1,s0,.L13
 232              	.LBE100:
  25:lib/cs1237/src/cs1237.c **** }
 233              		.loc 1 25 1
 234 0018 B250     		lw	ra,44(sp)
 235              		.cfi_remember_state
 236              		.cfi_restore 1
 237 001a 2254     		lw	s0,40(sp)
 238              		.cfi_restore 8
 239              	.LVL20:
 240 001c 9254     		lw	s1,36(sp)
 241              		.cfi_restore 9
 242 001e 0259     		lw	s2,32(sp)
 243              		.cfi_restore 18
 244              	.LVL21:
 245 0020 F249     		lw	s3,28(sp)
 246              		.cfi_restore 19
 247 0022 4561     		addi	sp,sp,48
 248              	.LCFI7:
 249              		.cfi_def_cfa_offset 0
 250 0024 8280     		jr	ra
 251              	.LVL22:
GAS LISTING C:\Users\marwz\AppData\Local\Temp\cc6zW2FC.s 			page 6


 252              	.L13:
 253              	.LCFI8:
 254              		.cfi_restore_state
 255              	.LBB101:
  24:lib/cs1237/src/cs1237.c **** 	for(int i = 0; i < n_channels; i++) cs1237_port_set_pin_value(&channels[i], value);
 256              		.loc 1 24 38 is_stmt 1 discriminator 3
 257 0026 33053403 		mul	a0,s0,s3
 258 002a B285     		mv	a1,a2
 259 002c 32C6     		sw	a2,12(sp)
  24:lib/cs1237/src/cs1237.c **** 	for(int i = 0; i < n_channels; i++) cs1237_port_set_pin_value(&channels[i], value);
 260              		.loc 1 24 34 is_stmt 0 discriminator 3
 261 002e 0504     		addi	s0,s0,1
 262              	.LVL23:
  24:lib/cs1237/src/cs1237.c **** 	for(int i = 0; i < n_channels; i++) cs1237_port_set_pin_value(&channels[i], value);
 263              		.loc 1 24 38 discriminator 3
 264 0030 4A95     		add	a0,s2,a0
 265 0032 97000000 		call	cs1237_port_set_pin_value
 265      E7800000 
 266              	.LVL24:
  24:lib/cs1237/src/cs1237.c **** 	for(int i = 0; i < n_channels; i++) cs1237_port_set_pin_value(&channels[i], value);
 267              		.loc 1 24 34 discriminator 3
 268 003a 3246     		lw	a2,12(sp)
 269              	.LVL25:
 270 003c E1BF     		j	.L12
 271              	.LBE101:
 272              		.cfi_endproc
 273              	.LFE4:
 275              		.section	.text.read_bit,"ax",@progbits
 276              		.align	1
 277              		.globl	read_bit
 279              	read_bit:
 280              	.LFB5:
  26:lib/cs1237/src/cs1237.c **** 
  27:lib/cs1237/src/cs1237.c **** void read_bit(uint8_t n_channels, cs1237_channel_t* channels){
 281              		.loc 1 27 62 is_stmt 1
 282              		.cfi_startproc
 283              	.LVL26:
  28:lib/cs1237/src/cs1237.c **** 	for(int i = 0; i < n_channels; i++) channels[i].value = (channels[i].value << 1) | cs1237_port_get
 284              		.loc 1 28 2
 285              	.LBB102:
 286              		.loc 1 28 6
 287              	.LBE102:
  27:lib/cs1237/src/cs1237.c **** 	for(int i = 0; i < n_channels; i++) channels[i].value = (channels[i].value << 1) | cs1237_port_get
 288              		.loc 1 27 62 is_stmt 0
 289 0000 0111     		addi	sp,sp,-32
 290              	.LCFI9:
 291              		.cfi_def_cfa_offset 32
 292 0002 26CA     		sw	s1,20(sp)
 293 0004 4AC8     		sw	s2,16(sp)
 294 0006 06CE     		sw	ra,28(sp)
 295 0008 22CC     		sw	s0,24(sp)
 296              		.cfi_offset 9, -12
 297              		.cfi_offset 18, -16
 298              		.cfi_offset 1, -4
 299              		.cfi_offset 8, -8
  27:lib/cs1237/src/cs1237.c **** 	for(int i = 0; i < n_channels; i++) channels[i].value = (channels[i].value << 1) | cs1237_port_get
 300              		.loc 1 27 62
GAS LISTING C:\Users\marwz\AppData\Local\Temp\cc6zW2FC.s 			page 7


 301 000a 2A89     		mv	s2,a0
 302              	.LBB103:
 303              		.loc 1 28 10
 304 000c 8144     		li	s1,0
 305              	.LVL27:
 306              	.L16:
 307              		.loc 1 28 2 discriminator 1
 308 000e 63C82401 		bgt	s2,s1,.L17
 309              	.LBE103:
  29:lib/cs1237/src/cs1237.c **** }
 310              		.loc 1 29 1
 311 0012 F240     		lw	ra,28(sp)
 312              		.cfi_remember_state
 313              		.cfi_restore 1
 314 0014 6244     		lw	s0,24(sp)
 315              		.cfi_restore 8
 316 0016 D244     		lw	s1,20(sp)
 317              		.cfi_restore 9
 318              	.LVL28:
 319 0018 4249     		lw	s2,16(sp)
 320              		.cfi_restore 18
 321 001a 0561     		addi	sp,sp,32
 322              	.LCFI10:
 323              		.cfi_def_cfa_offset 0
 324 001c 8280     		jr	ra
 325              	.LVL29:
 326              	.L17:
 327              	.LCFI11:
 328              		.cfi_restore_state
 329              	.LBB104:
  28:lib/cs1237/src/cs1237.c **** 	for(int i = 0; i < n_channels; i++) channels[i].value = (channels[i].value << 1) | cs1237_port_get
 330              		.loc 1 28 38 is_stmt 1 discriminator 3
  28:lib/cs1237/src/cs1237.c **** 	for(int i = 0; i < n_channels; i++) channels[i].value = (channels[i].value << 1) | cs1237_port_get
 331              		.loc 1 28 77 is_stmt 0 discriminator 3
 332 001e C045     		lw	s0,12(a1)
  28:lib/cs1237/src/cs1237.c **** 	for(int i = 0; i < n_channels; i++) channels[i].value = (channels[i].value << 1) | cs1237_port_get
 333              		.loc 1 28 85 discriminator 3
 334 0020 2E85     		mv	a0,a1
 335 0022 2EC6     		sw	a1,12(sp)
 336 0024 97000000 		call	cs1237_port_get_pin_value
 336      E7800000 
 337              	.LVL30:
  28:lib/cs1237/src/cs1237.c **** 	for(int i = 0; i < n_channels; i++) channels[i].value = (channels[i].value << 1) | cs1237_port_get
 338              		.loc 1 28 56 discriminator 3
 339 002c B245     		lw	a1,12(sp)
  28:lib/cs1237/src/cs1237.c **** 	for(int i = 0; i < n_channels; i++) channels[i].value = (channels[i].value << 1) | cs1237_port_get
 340              		.loc 1 28 77 discriminator 3
 341 002e 0604     		slli	s0,s0,1
  28:lib/cs1237/src/cs1237.c **** 	for(int i = 0; i < n_channels; i++) channels[i].value = (channels[i].value << 1) | cs1237_port_get
 342              		.loc 1 28 83 discriminator 3
 343 0030 418D     		or	a0,a0,s0
  28:lib/cs1237/src/cs1237.c **** 	for(int i = 0; i < n_channels; i++) channels[i].value = (channels[i].value << 1) | cs1237_port_get
 344              		.loc 1 28 56 discriminator 3
 345 0032 C8C5     		sw	a0,12(a1)
  28:lib/cs1237/src/cs1237.c **** 	for(int i = 0; i < n_channels; i++) channels[i].value = (channels[i].value << 1) | cs1237_port_get
 346              		.loc 1 28 34 discriminator 3
 347 0034 8504     		addi	s1,s1,1
GAS LISTING C:\Users\marwz\AppData\Local\Temp\cc6zW2FC.s 			page 8


 348              	.LVL31:
 349 0036 D105     		addi	a1,a1,20
 350 0038 D9BF     		j	.L16
 351              	.LBE104:
 352              		.cfi_endproc
 353              	.LFE5:
 355              		.section	.text.cs1237_install_clock_pin,"ax",@progbits
 356              		.align	1
 357              		.globl	cs1237_install_clock_pin
 359              	cs1237_install_clock_pin:
 360              	.LFB6:
  30:lib/cs1237/src/cs1237.c **** 
  31:lib/cs1237/src/cs1237.c **** void cs1237_install_clock_pin(cs1237_channel_t pin){
 361              		.loc 1 31 52 is_stmt 1
 362              		.cfi_startproc
  32:lib/cs1237/src/cs1237.c **** 	clock = pin;
 363              		.loc 1 32 2
 364              		.loc 1 32 8 is_stmt 0
 365 0000 AA85     		mv	a1,a0
 366 0002 37050000 		lui	a0,%hi(clock)
  31:lib/cs1237/src/cs1237.c **** 	clock = pin;
 367              		.loc 1 31 52
 368 0006 4111     		addi	sp,sp,-16
 369              	.LCFI12:
 370              		.cfi_def_cfa_offset 16
 371              		.loc 1 32 8
 372 0008 5146     		li	a2,20
 373 000a 13050500 		addi	a0,a0,%lo(clock)
  31:lib/cs1237/src/cs1237.c **** 	clock = pin;
 374              		.loc 1 31 52
 375 000e 06C6     		sw	ra,12(sp)
 376              		.cfi_offset 1, -4
 377              		.loc 1 32 8
 378 0010 97000000 		call	memcpy
 378      E7800000 
 379              	.LVL32:
  33:lib/cs1237/src/cs1237.c **** }
 380              		.loc 1 33 1
 381 0018 B240     		lw	ra,12(sp)
 382              		.cfi_restore 1
 383 001a 4101     		addi	sp,sp,16
 384              	.LCFI13:
 385              		.cfi_def_cfa_offset 0
 386 001c 8280     		jr	ra
 387              		.cfi_endproc
 388              	.LFE6:
 390              		.section	.text.cs1237_read,"ax",@progbits
 391              		.align	1
 392              		.globl	cs1237_read
 394              	cs1237_read:
 395              	.LFB7:
  34:lib/cs1237/src/cs1237.c **** 
  35:lib/cs1237/src/cs1237.c **** //Public functions
  36:lib/cs1237/src/cs1237.c **** 
  37:lib/cs1237/src/cs1237.c **** int32_t cs1237_read(uint8_t n_channels, cs1237_channel_t* channels){
 396              		.loc 1 37 68 is_stmt 1
 397              		.cfi_startproc
GAS LISTING C:\Users\marwz\AppData\Local\Temp\cc6zW2FC.s 			page 9


 398              	.LVL33:
  38:lib/cs1237/src/cs1237.c **** 	
  39:lib/cs1237/src/cs1237.c **** 	//Block until data is ready
  40:lib/cs1237/src/cs1237.c ****     clk(0);
 399              		.loc 1 40 5
  37:lib/cs1237/src/cs1237.c **** 	
 400              		.loc 1 37 68 is_stmt 0
 401 0000 0111     		addi	sp,sp,-32
 402              	.LCFI14:
 403              		.cfi_def_cfa_offset 32
 404 0002 26CA     		sw	s1,20(sp)
 405 0004 4EC6     		sw	s3,12(sp)
 406              		.cfi_offset 9, -12
 407              		.cfi_offset 19, -20
 408 0006 AA84     		mv	s1,a0
 409 0008 AE89     		mv	s3,a1
 410              		.loc 1 40 5
 411 000a 0145     		li	a0,0
 412              	.LVL34:
  37:lib/cs1237/src/cs1237.c **** 	
 413              		.loc 1 37 68
 414 000c 22CC     		sw	s0,24(sp)
 415 000e 06CE     		sw	ra,28(sp)
 416 0010 4AC8     		sw	s2,16(sp)
 417              		.cfi_offset 8, -8
 418              		.cfi_offset 1, -4
 419              		.cfi_offset 18, -16
 420 0012 1384C900 		addi	s0,s3,12
 421              		.loc 1 40 5
 422 0016 97000000 		call	clk
 422      E7800000 
 423              	.LVL35:
  41:lib/cs1237/src/cs1237.c **** 	//while(get_drdy(n_channels, channels));
  42:lib/cs1237/src/cs1237.c **** 	for(int i = 0; i < n_channels; i++) channels[i].value = 0;
 424              		.loc 1 42 2 is_stmt 1
 425              	.LBB105:
 426              		.loc 1 42 6
 427              		.loc 1 42 2 is_stmt 0
 428 001e 2287     		mv	a4,s0
 429              		.loc 1 42 10
 430 0020 8147     		li	a5,0
 431              	.LVL36:
 432              	.L22:
 433              		.loc 1 42 2 discriminator 1
 434 0022 63CE9704 		bgt	s1,a5,.L23
 435 0026 6D49     		li	s2,27
 436              	.LVL37:
 437              	.L24:
 438              	.LBE105:
 439              	.LBB106:
  43:lib/cs1237/src/cs1237.c **** 	//Send 27 clocks and read drdy
  44:lib/cs1237/src/cs1237.c **** 	for(int i=0; i < 27; i++){
  45:lib/cs1237/src/cs1237.c **** 		clk(1);
 440              		.loc 1 45 3 is_stmt 1 discriminator 3
 441 0028 0545     		li	a0,1
 442 002a 97000000 		call	clk
 442      E7800000 
GAS LISTING C:\Users\marwz\AppData\Local\Temp\cc6zW2FC.s 			page 10


 443              	.LVL38:
  46:lib/cs1237/src/cs1237.c **** 		wait();
 444              		.loc 1 46 3 discriminator 3
 445              	.LBB107:
 446              	.LBB108:
  12:lib/cs1237/src/cs1237.c **** }
 447              		.loc 1 12 2 discriminator 3
 448 0032 97000000 		call	cs1237_port_wait_min_455ns
 448      E7800000 
 449              	.LVL39:
 450              	.LBE108:
 451              	.LBE107:
  47:lib/cs1237/src/cs1237.c **** 		read_bit(n_channels, channels);
 452              		.loc 1 47 3 discriminator 3
 453 003a CE85     		mv	a1,s3
 454 003c 2685     		mv	a0,s1
 455 003e 97000000 		call	read_bit
 455      E7800000 
 456              	.LVL40:
  48:lib/cs1237/src/cs1237.c **** 		clk(0);
 457              		.loc 1 48 3 discriminator 3
 458 0046 0145     		li	a0,0
 459 0048 7D19     		addi	s2,s2,-1
 460              	.LVL41:
 461 004a 97000000 		call	clk
 461      E7800000 
 462              	.LVL42:
  49:lib/cs1237/src/cs1237.c **** 		wait();
 463              		.loc 1 49 3 discriminator 3
 464              	.LBB109:
 465              	.LBB110:
  12:lib/cs1237/src/cs1237.c **** }
 466              		.loc 1 12 2 discriminator 3
 467 0052 97000000 		call	cs1237_port_wait_min_455ns
 467      E7800000 
 468              	.LVL43:
 469              	.LBE110:
 470              	.LBE109:
  44:lib/cs1237/src/cs1237.c **** 		clk(1);
 471              		.loc 1 44 2 is_stmt 0 discriminator 3
 472 005a E31709FC 		bne	s2,zero,.L24
 473 005e A287     		mv	a5,s0
 474              	.LBE106:
 475              	.LBB111:
  50:lib/cs1237/src/cs1237.c **** 	}
  51:lib/cs1237/src/cs1237.c **** 
  52:lib/cs1237/src/cs1237.c **** 	//Discard last 3 bits
  53:lib/cs1237/src/cs1237.c **** 	for(int i = 0; i < n_channels; i++) channels[i].value = channels[i].value >> 3;
 476              		.loc 1 53 10
 477 0060 0147     		li	a4,0
 478              	.L25:
 479              	.LVL44:
 480              		.loc 1 53 2 discriminator 1
 481 0062 63439702 		bgt	s1,a4,.L26
 482              	.LBE111:
 483              	.LBB112:
  54:lib/cs1237/src/cs1237.c **** 
GAS LISTING C:\Users\marwz\AppData\Local\Temp\cc6zW2FC.s 			page 11


  55:lib/cs1237/src/cs1237.c **** 	//Convert from 24bit 2s complement to 32bit 2s complement
  56:lib/cs1237/src/cs1237.c **** 	for(int i = 0; i < n_channels; i++){
 484              		.loc 1 56 10
 485 0066 0147     		li	a4,0
 486              	.LVL45:
  57:lib/cs1237/src/cs1237.c **** 		if(channels[i].value & (1 << 23)){
 487              		.loc 1 57 24
 488 0068 B7068000 		li	a3,8388608
 489              	.L27:
 490              	.LVL46:
  56:lib/cs1237/src/cs1237.c **** 		if(channels[i].value & (1 << 23)){
 491              		.loc 1 56 2 discriminator 1
 492 006c 63459702 		bgt	s1,a4,.L29
 493              	.LBE112:
  58:lib/cs1237/src/cs1237.c **** 			//Sign extend
  59:lib/cs1237/src/cs1237.c **** 			channels[i].value = (channels[i].value ^ (1 << 23)) - (1 << 23);
  60:lib/cs1237/src/cs1237.c **** 		}
  61:lib/cs1237/src/cs1237.c **** 	}
  62:lib/cs1237/src/cs1237.c **** 	
  63:lib/cs1237/src/cs1237.c **** }
 494              		.loc 1 63 1
 495 0070 F240     		lw	ra,28(sp)
 496              		.cfi_remember_state
 497              		.cfi_restore 1
 498 0072 6244     		lw	s0,24(sp)
 499              		.cfi_restore 8
 500 0074 D244     		lw	s1,20(sp)
 501              		.cfi_restore 9
 502 0076 4249     		lw	s2,16(sp)
 503              		.cfi_restore 18
 504 0078 B249     		lw	s3,12(sp)
 505              		.cfi_restore 19
 506              	.LVL47:
 507 007a 0561     		addi	sp,sp,32
 508              	.LCFI15:
 509              		.cfi_def_cfa_offset 0
 510 007c 8280     		jr	ra
 511              	.LVL48:
 512              	.L23:
 513              	.LCFI16:
 514              		.cfi_restore_state
 515              	.LBB113:
  42:lib/cs1237/src/cs1237.c **** 	//Send 27 clocks and read drdy
 516              		.loc 1 42 38 is_stmt 1 discriminator 3
  42:lib/cs1237/src/cs1237.c **** 	//Send 27 clocks and read drdy
 517              		.loc 1 42 56 is_stmt 0 discriminator 3
 518 007e 23200700 		sw	zero,0(a4)
  42:lib/cs1237/src/cs1237.c **** 	//Send 27 clocks and read drdy
 519              		.loc 1 42 34 discriminator 3
 520 0082 8507     		addi	a5,a5,1
 521              	.LVL49:
 522 0084 5107     		addi	a4,a4,20
 523 0086 71BF     		j	.L22
 524              	.LVL50:
 525              	.L26:
 526              	.LBE113:
 527              	.LBB114:
GAS LISTING C:\Users\marwz\AppData\Local\Temp\cc6zW2FC.s 			page 12


  53:lib/cs1237/src/cs1237.c **** 
 528              		.loc 1 53 38 is_stmt 1 discriminator 3
  53:lib/cs1237/src/cs1237.c **** 
 529              		.loc 1 53 76 is_stmt 0 discriminator 3
 530 0088 9443     		lw	a3,0(a5)
  53:lib/cs1237/src/cs1237.c **** 
 531              		.loc 1 53 34 discriminator 3
 532 008a 0507     		addi	a4,a4,1
 533              	.LVL51:
 534 008c D107     		addi	a5,a5,20
  53:lib/cs1237/src/cs1237.c **** 
 535              		.loc 1 53 76 discriminator 3
 536 008e 8D86     		srai	a3,a3,3
  53:lib/cs1237/src/cs1237.c **** 
 537              		.loc 1 53 56 discriminator 3
 538 0090 23A6D7FE 		sw	a3,-20(a5)
 539 0094 F9B7     		j	.L25
 540              	.LVL52:
 541              	.L29:
 542              	.LBE114:
 543              	.LBB115:
  57:lib/cs1237/src/cs1237.c **** 			//Sign extend
 544              		.loc 1 57 3 is_stmt 1
  57:lib/cs1237/src/cs1237.c **** 			//Sign extend
 545              		.loc 1 57 17 is_stmt 0
 546 0096 1C40     		lw	a5,0(s0)
  57:lib/cs1237/src/cs1237.c **** 			//Sign extend
 547              		.loc 1 57 5
 548 0098 13968700 		slli	a2,a5,8
 549 009c 63550600 		bge	a2,zero,.L28
  59:lib/cs1237/src/cs1237.c **** 		}
 550              		.loc 1 59 4 is_stmt 1
  59:lib/cs1237/src/cs1237.c **** 		}
 551              		.loc 1 59 43 is_stmt 0
 552 00a0 B58F     		xor	a5,a5,a3
  59:lib/cs1237/src/cs1237.c **** 		}
 553              		.loc 1 59 56
 554 00a2 958F     		sub	a5,a5,a3
  59:lib/cs1237/src/cs1237.c **** 		}
 555              		.loc 1 59 22
 556 00a4 1CC0     		sw	a5,0(s0)
 557              	.L28:
  56:lib/cs1237/src/cs1237.c **** 		if(channels[i].value & (1 << 23)){
 558              		.loc 1 56 34 discriminator 2
 559 00a6 0507     		addi	a4,a4,1
 560              	.LVL53:
 561 00a8 5104     		addi	s0,s0,20
 562 00aa C9B7     		j	.L27
 563              	.LBE115:
 564              		.cfi_endproc
 565              	.LFE7:
 567              		.section	.text.cs1237_data_ready,"ax",@progbits
 568              		.align	1
 569              		.globl	cs1237_data_ready
 571              	cs1237_data_ready:
 572              	.LFB8:
  64:lib/cs1237/src/cs1237.c **** 
GAS LISTING C:\Users\marwz\AppData\Local\Temp\cc6zW2FC.s 			page 13


  65:lib/cs1237/src/cs1237.c **** uint8_t cs1237_data_ready(uint8_t n_channels, cs1237_channel_t* channels){
 573              		.loc 1 65 74 is_stmt 1
 574              		.cfi_startproc
 575              	.LVL54:
  66:lib/cs1237/src/cs1237.c **** 	uint8_t ready = 1;
 576              		.loc 1 66 2
  67:lib/cs1237/src/cs1237.c **** 	for(int i = 0; i < n_channels; i++) if(cs1237_port_get_pin_value(&channels[i])) ready = 0;
 577              		.loc 1 67 2
 578              	.LBB116:
 579              		.loc 1 67 6
 580              	.LBE116:
  65:lib/cs1237/src/cs1237.c **** 	uint8_t ready = 1;
 581              		.loc 1 65 74 is_stmt 0
 582 0000 7971     		addi	sp,sp,-48
 583              	.LCFI17:
 584              		.cfi_def_cfa_offset 48
 585 0002 22D4     		sw	s0,40(sp)
 586 0004 26D2     		sw	s1,36(sp)
 587 0006 4AD0     		sw	s2,32(sp)
 588 0008 4ECE     		sw	s3,28(sp)
 589 000a 06D6     		sw	ra,44(sp)
 590              		.cfi_offset 8, -8
 591              		.cfi_offset 9, -12
 592              		.cfi_offset 18, -16
 593              		.cfi_offset 19, -20
 594              		.cfi_offset 1, -4
  65:lib/cs1237/src/cs1237.c **** 	uint8_t ready = 1;
 595              		.loc 1 65 74
 596 000c 2A89     		mv	s2,a0
 597              	.LBB117:
 598              		.loc 1 67 10
 599 000e 0144     		li	s0,0
 600              	.LBE117:
  66:lib/cs1237/src/cs1237.c **** 	uint8_t ready = 1;
 601              		.loc 1 66 10
 602 0010 8544     		li	s1,1
 603              	.LBB118:
 604              		.loc 1 67 41
 605 0012 D149     		li	s3,20
 606              	.LVL55:
 607              	.L36:
 608              		.loc 1 67 2 discriminator 5
 609 0014 634A2401 		bgt	s2,s0,.L38
 610              	.LBE118:
  68:lib/cs1237/src/cs1237.c **** 	return ready;
 611              		.loc 1 68 2 is_stmt 1
  69:lib/cs1237/src/cs1237.c **** }
 612              		.loc 1 69 1 is_stmt 0
 613 0018 B250     		lw	ra,44(sp)
 614              		.cfi_remember_state
 615              		.cfi_restore 1
 616 001a 2254     		lw	s0,40(sp)
 617              		.cfi_restore 8
 618              	.LVL56:
 619 001c 2685     		mv	a0,s1
 620 001e 0259     		lw	s2,32(sp)
 621              		.cfi_restore 18
GAS LISTING C:\Users\marwz\AppData\Local\Temp\cc6zW2FC.s 			page 14


 622 0020 9254     		lw	s1,36(sp)
 623              		.cfi_restore 9
 624              	.LVL57:
 625 0022 F249     		lw	s3,28(sp)
 626              		.cfi_restore 19
 627 0024 4561     		addi	sp,sp,48
 628              	.LCFI18:
 629              		.cfi_def_cfa_offset 0
 630 0026 8280     		jr	ra
 631              	.LVL58:
 632              	.L38:
 633              	.LCFI19:
 634              		.cfi_restore_state
 635              	.LBB119:
  67:lib/cs1237/src/cs1237.c **** 	return ready;
 636              		.loc 1 67 38 is_stmt 1 discriminator 6
  67:lib/cs1237/src/cs1237.c **** 	return ready;
 637              		.loc 1 67 41 is_stmt 0 discriminator 6
 638 0028 33053403 		mul	a0,s0,s3
 639 002c 2EC6     		sw	a1,12(sp)
 640 002e 2E95     		add	a0,a1,a0
 641 0030 97000000 		call	cs1237_port_get_pin_value
 641      E7800000 
 642              	.LVL59:
  67:lib/cs1237/src/cs1237.c **** 	return ready;
 643              		.loc 1 67 40 discriminator 6
 644 0038 B245     		lw	a1,12(sp)
 645 003a 11C1     		beq	a0,zero,.L37
  67:lib/cs1237/src/cs1237.c **** 	return ready;
 646              		.loc 1 67 88
 647 003c 8144     		li	s1,0
 648              	.LVL60:
 649              	.L37:
  67:lib/cs1237/src/cs1237.c **** 	return ready;
 650              		.loc 1 67 34 discriminator 4
 651 003e 0504     		addi	s0,s0,1
 652              	.LVL61:
 653 0040 D1BF     		j	.L36
 654              	.LBE119:
 655              		.cfi_endproc
 656              	.LFE8:
 658              		.section	.text.cs1237_configure,"ax",@progbits
 659              		.align	1
 660              		.globl	cs1237_configure
 662              	cs1237_configure:
 663              	.LFB9:
  70:lib/cs1237/src/cs1237.c **** 
  71:lib/cs1237/src/cs1237.c **** 
  72:lib/cs1237/src/cs1237.c **** void cs1237_configure(uint8_t config, uint8_t n_channels, cs1237_channel_t* channels){
 664              		.loc 1 72 86 is_stmt 1
 665              		.cfi_startproc
 666              	.LVL62:
  73:lib/cs1237/src/cs1237.c **** 	const uint8_t write_reg = 0x65;
 667              		.loc 1 73 2
  74:lib/cs1237/src/cs1237.c **** 	
  75:lib/cs1237/src/cs1237.c **** 	//Do a read, discard result
  76:lib/cs1237/src/cs1237.c **** 	cs1237_read(n_channels, channels);
GAS LISTING C:\Users\marwz\AppData\Local\Temp\cc6zW2FC.s 			page 15


 668              		.loc 1 76 2
  72:lib/cs1237/src/cs1237.c **** 	const uint8_t write_reg = 0x65;
 669              		.loc 1 72 86 is_stmt 0
 670 0000 0111     		addi	sp,sp,-32
 671              	.LCFI20:
 672              		.cfi_def_cfa_offset 32
 673 0002 26CA     		sw	s1,20(sp)
 674              		.cfi_offset 9, -12
 675 0004 AE84     		mv	s1,a1
 676 0006 4EC6     		sw	s3,12(sp)
 677              		.loc 1 76 2
 678 0008 B285     		mv	a1,a2
 679              	.LVL63:
 680              		.cfi_offset 19, -20
  72:lib/cs1237/src/cs1237.c **** 	const uint8_t write_reg = 0x65;
 681              		.loc 1 72 86
 682 000a AA89     		mv	s3,a0
 683              		.loc 1 76 2
 684 000c 2685     		mv	a0,s1
 685              	.LVL64:
  72:lib/cs1237/src/cs1237.c **** 	const uint8_t write_reg = 0x65;
 686              		.loc 1 72 86
 687 000e 06CE     		sw	ra,28(sp)
 688 0010 22CC     		sw	s0,24(sp)
 689 0012 4AC8     		sw	s2,16(sp)
 690              		.cfi_offset 1, -4
 691              		.cfi_offset 8, -8
 692              		.cfi_offset 18, -16
 693 0014 3284     		mv	s0,a2
 694 0016 52C4     		sw	s4,8(sp)
 695 0018 56C2     		sw	s5,4(sp)
 696              		.cfi_offset 20, -24
 697              		.cfi_offset 21, -28
 698              		.loc 1 76 2
 699 001a 97000000 		call	cs1237_read
 699      E7800000 
 700              	.LVL65:
  77:lib/cs1237/src/cs1237.c **** 	
  78:lib/cs1237/src/cs1237.c **** 	//Clk 28, change drdy to output
  79:lib/cs1237/src/cs1237.c **** 	clk(1);
 701              		.loc 1 79 2 is_stmt 1
 702 0022 0545     		li	a0,1
 703 0024 97000000 		call	clk
 703      E7800000 
 704              	.LVL66:
  80:lib/cs1237/src/cs1237.c **** 	drdy_output(n_channels, channels);
 705              		.loc 1 80 2
 706 002c A285     		mv	a1,s0
 707 002e 2685     		mv	a0,s1
 708 0030 97000000 		call	drdy_output
 708      E7800000 
 709              	.LVL67:
  81:lib/cs1237/src/cs1237.c **** 	set_drdy(n_channels, channels, (write_reg >> 6) & 1);
 710              		.loc 1 81 2
 711 0038 0546     		li	a2,1
 712 003a A285     		mv	a1,s0
 713 003c 2685     		mv	a0,s1
GAS LISTING C:\Users\marwz\AppData\Local\Temp\cc6zW2FC.s 			page 16


 714 003e 97000000 		call	set_drdy
 714      E7800000 
 715              	.LVL68:
  82:lib/cs1237/src/cs1237.c **** 	wait();
 716              		.loc 1 82 2
 717              	.LBB157:
 718              	.LBB158:
  12:lib/cs1237/src/cs1237.c **** }
 719              		.loc 1 12 2
 720 0046 97000000 		call	cs1237_port_wait_min_455ns
 720      E7800000 
 721              	.LVL69:
 722              	.LBE158:
 723              	.LBE157:
  83:lib/cs1237/src/cs1237.c **** 	clk(0);
 724              		.loc 1 83 2
 725 004e 0145     		li	a0,0
 726 0050 97000000 		call	clk
 726      E7800000 
 727              	.LVL70:
  84:lib/cs1237/src/cs1237.c **** 	wait();
 728              		.loc 1 84 2
 729              	.LBB159:
 730              	.LBB160:
  12:lib/cs1237/src/cs1237.c **** }
 731              		.loc 1 12 2
 732 0058 97000000 		call	cs1237_port_wait_min_455ns
 732      E7800000 
 733              	.LVL71:
 734              	.LBE160:
 735              	.LBE159:
  85:lib/cs1237/src/cs1237.c **** 
  86:lib/cs1237/src/cs1237.c **** 	//Clk 29
  87:lib/cs1237/src/cs1237.c **** 	clk(1);
 736              		.loc 1 87 2
 737 0060 0545     		li	a0,1
 738 0062 97000000 		call	clk
 738      E7800000 
 739              	.LVL72:
  88:lib/cs1237/src/cs1237.c **** 	wait();
 740              		.loc 1 88 2
 741              	.LBB161:
 742              	.LBB162:
  12:lib/cs1237/src/cs1237.c **** }
 743              		.loc 1 12 2
 744 006a 97000000 		call	cs1237_port_wait_min_455ns
 744      E7800000 
 745              	.LVL73:
 746              	.LBE162:
 747              	.LBE161:
  89:lib/cs1237/src/cs1237.c **** 	clk(0);
 748              		.loc 1 89 2
 749 0072 0145     		li	a0,0
 750 0074 97000000 		call	clk
 750      E7800000 
 751              	.LVL74:
  90:lib/cs1237/src/cs1237.c **** 	wait();
GAS LISTING C:\Users\marwz\AppData\Local\Temp\cc6zW2FC.s 			page 17


 752              		.loc 1 90 2
 753              	.LBB163:
 754              	.LBB164:
  12:lib/cs1237/src/cs1237.c **** }
 755              		.loc 1 12 2
 756 007c 1949     		li	s2,6
 757 007e 97000000 		call	cs1237_port_wait_min_455ns
 757      E7800000 
 758              	.LVL75:
 759              	.LBE164:
 760              	.LBE163:
  91:lib/cs1237/src/cs1237.c **** 
  92:lib/cs1237/src/cs1237.c **** 	//Clk 30-36, specify write register
  93:lib/cs1237/src/cs1237.c **** 	for(int i = 0; i < 7; i++){
 761              		.loc 1 93 2
 762              		.loc 1 93 6
 763              	.LBB165:
 764              	.LBB166:
 765              	.LBB167:
  94:lib/cs1237/src/cs1237.c **** 		clk(1);
  95:lib/cs1237/src/cs1237.c **** 		set_drdy(n_channels, channels, (write_reg >> (6 - i)) & 1);
 766              		.loc 1 95 45 is_stmt 0
 767 0086 930A5006 		li	s5,101
  93:lib/cs1237/src/cs1237.c **** 		clk(1);
 768              		.loc 1 93 2
 769 008a 7D5A     		li	s4,-1
 770              	.LVL76:
 771              	.L44:
  94:lib/cs1237/src/cs1237.c **** 		clk(1);
 772              		.loc 1 94 3 is_stmt 1
 773 008c 0545     		li	a0,1
 774 008e 97000000 		call	clk
 774      E7800000 
 775              	.LVL77:
 776              		.loc 1 95 3
 777              		.loc 1 95 45 is_stmt 0
 778 0096 33D62A41 		sra	a2,s5,s2
 779              		.loc 1 95 3
 780 009a 058A     		andi	a2,a2,1
 781 009c A285     		mv	a1,s0
 782 009e 2685     		mv	a0,s1
 783 00a0 97000000 		call	set_drdy
 783      E7800000 
 784              	.LVL78:
  96:lib/cs1237/src/cs1237.c **** 		wait();
 785              		.loc 1 96 3 is_stmt 1
 786              	.LBB168:
 787              	.LBB169:
  12:lib/cs1237/src/cs1237.c **** }
 788              		.loc 1 12 2
 789 00a8 97000000 		call	cs1237_port_wait_min_455ns
 789      E7800000 
 790              	.LVL79:
 791              	.LBE169:
 792              	.LBE168:
  97:lib/cs1237/src/cs1237.c **** 		clk(0);
 793              		.loc 1 97 3
GAS LISTING C:\Users\marwz\AppData\Local\Temp\cc6zW2FC.s 			page 18


 794 00b0 0145     		li	a0,0
 795 00b2 7D19     		addi	s2,s2,-1
 796              	.LVL80:
 797 00b4 97000000 		call	clk
 797      E7800000 
 798              	.LVL81:
  98:lib/cs1237/src/cs1237.c **** 		wait();
 799              		.loc 1 98 3
 800              	.LBB170:
 801              	.LBB171:
  12:lib/cs1237/src/cs1237.c **** }
 802              		.loc 1 12 2
 803 00bc 97000000 		call	cs1237_port_wait_min_455ns
 803      E7800000 
 804              	.LVL82:
 805              	.LBE171:
 806              	.LBE170:
  93:lib/cs1237/src/cs1237.c **** 		clk(1);
 807              		.loc 1 93 2 is_stmt 0
 808 00c4 E31449FD 		bne	s2,s4,.L44
 809              	.LBE167:
  99:lib/cs1237/src/cs1237.c **** 	}
 100:lib/cs1237/src/cs1237.c ****     //CLK 37
 101:lib/cs1237/src/cs1237.c ****     clk(1);
 810              		.loc 1 101 5 is_stmt 1
 811 00c8 0545     		li	a0,1
 812 00ca 97000000 		call	clk
 812      E7800000 
 813              	.LVL83:
 102:lib/cs1237/src/cs1237.c **** 	wait();
 814              		.loc 1 102 2
 815              	.LBB172:
 816              	.LBB173:
  12:lib/cs1237/src/cs1237.c **** }
 817              		.loc 1 12 2
 818 00d2 97000000 		call	cs1237_port_wait_min_455ns
 818      E7800000 
 819              	.LVL84:
 820              	.LBE173:
 821              	.LBE172:
 103:lib/cs1237/src/cs1237.c **** 	clk(0);
 822              		.loc 1 103 2
 823 00da 0145     		li	a0,0
 824 00dc 97000000 		call	clk
 824      E7800000 
 825              	.LVL85:
 104:lib/cs1237/src/cs1237.c **** 	wait();
 826              		.loc 1 104 2
 827              	.LBB174:
 828              	.LBB175:
  12:lib/cs1237/src/cs1237.c **** }
 829              		.loc 1 12 2
 830 00e4 1D49     		li	s2,7
 831 00e6 97000000 		call	cs1237_port_wait_min_455ns
 831      E7800000 
 832              	.LVL86:
 833              	.LBE175:
GAS LISTING C:\Users\marwz\AppData\Local\Temp\cc6zW2FC.s 			page 19


 834              	.LBE174:
 105:lib/cs1237/src/cs1237.c **** 	//Clk 38-45, write configuration
 106:lib/cs1237/src/cs1237.c **** 	for(int i = 0; i < 8; i++){
 835              		.loc 1 106 2
 836              	.LBB176:
 837              		.loc 1 106 6
 838              		.loc 1 106 2 is_stmt 0
 839 00ee 7D5A     		li	s4,-1
 840              	.LVL87:
 841              	.L45:
 107:lib/cs1237/src/cs1237.c **** 		clk(1);
 842              		.loc 1 107 3 is_stmt 1
 843 00f0 0545     		li	a0,1
 844 00f2 97000000 		call	clk
 844      E7800000 
 845              	.LVL88:
 108:lib/cs1237/src/cs1237.c **** 		set_drdy(n_channels, channels, (config >> (7 - i)) & 1);
 846              		.loc 1 108 3
 847              		.loc 1 108 42 is_stmt 0
 848 00fa 33D62941 		sra	a2,s3,s2
 849              		.loc 1 108 3
 850 00fe 058A     		andi	a2,a2,1
 851 0100 A285     		mv	a1,s0
 852 0102 2685     		mv	a0,s1
 853 0104 97000000 		call	set_drdy
 853      E7800000 
 854              	.LVL89:
 109:lib/cs1237/src/cs1237.c **** 		wait();
 855              		.loc 1 109 3 is_stmt 1
 856              	.LBB177:
 857              	.LBB178:
  12:lib/cs1237/src/cs1237.c **** }
 858              		.loc 1 12 2
 859 010c 97000000 		call	cs1237_port_wait_min_455ns
 859      E7800000 
 860              	.LVL90:
 861              	.LBE178:
 862              	.LBE177:
 110:lib/cs1237/src/cs1237.c **** 		clk(0);
 863              		.loc 1 110 3
 864 0114 0145     		li	a0,0
 865 0116 7D19     		addi	s2,s2,-1
 866              	.LVL91:
 867 0118 97000000 		call	clk
 867      E7800000 
 868              	.LVL92:
 111:lib/cs1237/src/cs1237.c **** 		wait();
 869              		.loc 1 111 3
 870              	.LBB179:
 871              	.LBB180:
  12:lib/cs1237/src/cs1237.c **** }
 872              		.loc 1 12 2
 873 0120 97000000 		call	cs1237_port_wait_min_455ns
 873      E7800000 
 874              	.LVL93:
 875              	.LBE180:
 876              	.LBE179:
GAS LISTING C:\Users\marwz\AppData\Local\Temp\cc6zW2FC.s 			page 20


 106:lib/cs1237/src/cs1237.c **** 		clk(1);
 877              		.loc 1 106 2 is_stmt 0
 878 0128 E31449FD 		bne	s2,s4,.L45
 879              	.LBE176:
 112:lib/cs1237/src/cs1237.c **** 	}
 113:lib/cs1237/src/cs1237.c **** 	drdy_input(n_channels, channels);
 880              		.loc 1 113 2 is_stmt 1
 881 012c A285     		mv	a1,s0
 882 012e 2685     		mv	a0,s1
 883 0130 97000000 		call	drdy_input
 883      E7800000 
 884              	.LVL94:
 114:lib/cs1237/src/cs1237.c **** 	//Clk 46
 115:lib/cs1237/src/cs1237.c **** 	clk(1);
 885              		.loc 1 115 2
 886 0138 0545     		li	a0,1
 887 013a 97000000 		call	clk
 887      E7800000 
 888              	.LVL95:
 116:lib/cs1237/src/cs1237.c **** 	wait();
 889              		.loc 1 116 2
 890              	.LBB181:
 891              	.LBB182:
  12:lib/cs1237/src/cs1237.c **** }
 892              		.loc 1 12 2
 893 0142 97000000 		call	cs1237_port_wait_min_455ns
 893      E7800000 
 894              	.LVL96:
 895              	.LBE182:
 896              	.LBE181:
 117:lib/cs1237/src/cs1237.c **** 	clk(0);
 897              		.loc 1 117 2
 898 014a 0145     		li	a0,0
 899 014c 97000000 		call	clk
 899      E7800000 
 900              	.LVL97:
 118:lib/cs1237/src/cs1237.c **** 	wait();
 901              		.loc 1 118 2
 902              	.LBB183:
 903              	.LBB184:
  12:lib/cs1237/src/cs1237.c **** }
 904              		.loc 1 12 2
 905 0154 97000000 		call	cs1237_port_wait_min_455ns
 905      E7800000 
 906              	.LVL98:
 907              	.LBE184:
 908              	.LBE183:
 119:lib/cs1237/src/cs1237.c **** 
 120:lib/cs1237/src/cs1237.c ****     for(int i = 0; i < n_channels; i++) channels[i].config = config;
 909              		.loc 1 120 5
 910              	.LBB185:
 911              		.loc 1 120 9
 912 015c 4104     		addi	s0,s0,16
 913              	.LVL99:
 914              		.loc 1 120 13 is_stmt 0
 915 015e 8147     		li	a5,0
 916              	.LVL100:
GAS LISTING C:\Users\marwz\AppData\Local\Temp\cc6zW2FC.s 			page 21


 917              	.L46:
 918              		.loc 1 120 5
 919 0160 63CB9700 		blt	a5,s1,.L47
 920              	.LBE185:
 921              	.LBE166:
 922              	.LBE165:
 121:lib/cs1237/src/cs1237.c **** 
 122:lib/cs1237/src/cs1237.c **** }
 923              		.loc 1 122 1
 924 0164 F240     		lw	ra,28(sp)
 925              		.cfi_remember_state
 926              		.cfi_restore 1
 927 0166 6244     		lw	s0,24(sp)
 928              		.cfi_restore 8
 929 0168 D244     		lw	s1,20(sp)
 930              		.cfi_restore 9
 931              	.LVL101:
 932 016a 4249     		lw	s2,16(sp)
 933              		.cfi_restore 18
 934 016c B249     		lw	s3,12(sp)
 935              		.cfi_restore 19
 936              	.LVL102:
 937 016e 224A     		lw	s4,8(sp)
 938              		.cfi_restore 20
 939 0170 924A     		lw	s5,4(sp)
 940              		.cfi_restore 21
 941 0172 0561     		addi	sp,sp,32
 942              	.LCFI21:
 943              		.cfi_def_cfa_offset 0
 944 0174 8280     		jr	ra
 945              	.LVL103:
 946              	.L47:
 947              	.LCFI22:
 948              		.cfi_restore_state
 949              	.LBB188:
 950              	.LBB187:
 951              	.LBB186:
 120:lib/cs1237/src/cs1237.c **** 
 952              		.loc 1 120 41 is_stmt 1
 120:lib/cs1237/src/cs1237.c **** 
 953              		.loc 1 120 60 is_stmt 0
 954 0176 23003401 		sb	s3,0(s0)
 120:lib/cs1237/src/cs1237.c **** 
 955              		.loc 1 120 37
 956 017a 8507     		addi	a5,a5,1
 957              	.LVL104:
 958 017c 5104     		addi	s0,s0,20
 959 017e CDB7     		j	.L46
 960              	.LBE186:
 961              	.LBE187:
 962              	.LBE188:
 963              		.cfi_endproc
 964              	.LFE9:
 966              		.section	.text.cs1237_get_configuration,"ax",@progbits
 967              		.align	1
 968              		.globl	cs1237_get_configuration
 970              	cs1237_get_configuration:
GAS LISTING C:\Users\marwz\AppData\Local\Temp\cc6zW2FC.s 			page 22


 971              	.LFB10:
 123:lib/cs1237/src/cs1237.c **** 
 124:lib/cs1237/src/cs1237.c **** 
 125:lib/cs1237/src/cs1237.c **** 
 126:lib/cs1237/src/cs1237.c **** uint8_t cs1237_get_configuration(uint8_t n_channels, cs1237_channel_t* channels){
 972              		.loc 1 126 81 is_stmt 1
 973              		.cfi_startproc
 974              	.LVL105:
 127:lib/cs1237/src/cs1237.c **** 	const uint8_t read_reg = 0x56;
 975              		.loc 1 127 2
 128:lib/cs1237/src/cs1237.c **** 	uint8_t config = 0;
 976              		.loc 1 128 2
 129:lib/cs1237/src/cs1237.c **** 	//Do a read, discard result
 130:lib/cs1237/src/cs1237.c **** 	cs1237_read(n_channels, channels);
 977              		.loc 1 130 2
 126:lib/cs1237/src/cs1237.c **** 	const uint8_t read_reg = 0x56;
 978              		.loc 1 126 81 is_stmt 0
 979 0000 0111     		addi	sp,sp,-32
 980              	.LCFI23:
 981              		.cfi_def_cfa_offset 32
 982 0002 26CA     		sw	s1,20(sp)
 983              		.cfi_offset 9, -12
 984 0004 AE84     		mv	s1,a1
 985 0006 22CC     		sw	s0,24(sp)
 986 0008 4AC8     		sw	s2,16(sp)
 987 000a 06CE     		sw	ra,28(sp)
 988 000c 4EC6     		sw	s3,12(sp)
 989 000e 52C4     		sw	s4,8(sp)
 990 0010 56C2     		sw	s5,4(sp)
 991              		.cfi_offset 8, -8
 992              		.cfi_offset 18, -16
 993              		.cfi_offset 1, -4
 994              		.cfi_offset 19, -20
 995              		.cfi_offset 20, -24
 996              		.cfi_offset 21, -28
 126:lib/cs1237/src/cs1237.c **** 	const uint8_t read_reg = 0x56;
 997              		.loc 1 126 81
 998 0012 2A84     		mv	s0,a0
 999 0014 1389C400 		addi	s2,s1,12
 1000              		.loc 1 130 2
 1001 0018 97000000 		call	cs1237_read
 1001      E7800000 
 1002              	.LVL106:
 131:lib/cs1237/src/cs1237.c **** 	for(int i = 0; i < n_channels; i++) channels[i].value = 0;
 1003              		.loc 1 131 2 is_stmt 1
 1004              	.LBB189:
 1005              		.loc 1 131 6
 1006              		.loc 1 131 2 is_stmt 0
 1007 0020 4A87     		mv	a4,s2
 1008              		.loc 1 131 10
 1009 0022 8147     		li	a5,0
 1010              	.LVL107:
 1011              	.L52:
 1012              		.loc 1 131 2 discriminator 1
 1013 0024 63CB8714 		bgt	s0,a5,.L53
 1014              	.LBE189:
 132:lib/cs1237/src/cs1237.c **** 	//Clk 28, change drdy to output
GAS LISTING C:\Users\marwz\AppData\Local\Temp\cc6zW2FC.s 			page 23


 133:lib/cs1237/src/cs1237.c **** 	clk(1);
 1015              		.loc 1 133 2 is_stmt 1
 1016 0028 0545     		li	a0,1
 1017 002a 97000000 		call	clk
 1017      E7800000 
 1018              	.LVL108:
 134:lib/cs1237/src/cs1237.c **** 	drdy_output(n_channels, channels);
 1019              		.loc 1 134 2
 1020 0032 A685     		mv	a1,s1
 1021 0034 2285     		mv	a0,s0
 1022 0036 97000000 		call	drdy_output
 1022      E7800000 
 1023              	.LVL109:
 135:lib/cs1237/src/cs1237.c **** 	set_drdy(n_channels, channels, (read_reg >> 6) & 1);
 1024              		.loc 1 135 2
 1025 003e 0546     		li	a2,1
 1026 0040 A685     		mv	a1,s1
 1027 0042 2285     		mv	a0,s0
 1028 0044 97000000 		call	set_drdy
 1028      E7800000 
 1029              	.LVL110:
 136:lib/cs1237/src/cs1237.c **** 	wait();
 1030              		.loc 1 136 2
 1031              	.LBB190:
 1032              	.LBB191:
  12:lib/cs1237/src/cs1237.c **** }
 1033              		.loc 1 12 2
 1034 004c 97000000 		call	cs1237_port_wait_min_455ns
 1034      E7800000 
 1035              	.LVL111:
 1036              	.LBE191:
 1037              	.LBE190:
 137:lib/cs1237/src/cs1237.c **** 	clk(0);
 1038              		.loc 1 137 2
 1039 0054 0145     		li	a0,0
 1040 0056 97000000 		call	clk
 1040      E7800000 
 1041              	.LVL112:
 138:lib/cs1237/src/cs1237.c **** 	wait();
 1042              		.loc 1 138 2
 1043              	.LBB192:
 1044              	.LBB193:
  12:lib/cs1237/src/cs1237.c **** }
 1045              		.loc 1 12 2
 1046 005e 97000000 		call	cs1237_port_wait_min_455ns
 1046      E7800000 
 1047              	.LVL113:
 1048              	.LBE193:
 1049              	.LBE192:
 139:lib/cs1237/src/cs1237.c **** 
 140:lib/cs1237/src/cs1237.c **** 	//Clk 29
 141:lib/cs1237/src/cs1237.c **** 	clk(1);
 1050              		.loc 1 141 2
 1051 0066 0545     		li	a0,1
 1052 0068 97000000 		call	clk
 1052      E7800000 
 1053              	.LVL114:
GAS LISTING C:\Users\marwz\AppData\Local\Temp\cc6zW2FC.s 			page 24


 142:lib/cs1237/src/cs1237.c **** 	wait();
 1054              		.loc 1 142 2
 1055              	.LBB194:
 1056              	.LBB195:
  12:lib/cs1237/src/cs1237.c **** }
 1057              		.loc 1 12 2
 1058 0070 97000000 		call	cs1237_port_wait_min_455ns
 1058      E7800000 
 1059              	.LVL115:
 1060              	.LBE195:
 1061              	.LBE194:
 143:lib/cs1237/src/cs1237.c **** 	clk(0);
 1062              		.loc 1 143 2
 1063 0078 0145     		li	a0,0
 1064 007a 97000000 		call	clk
 1064      E7800000 
 1065              	.LVL116:
 144:lib/cs1237/src/cs1237.c **** 	wait();
 1066              		.loc 1 144 2
 1067              	.LBB196:
 1068              	.LBB197:
  12:lib/cs1237/src/cs1237.c **** }
 1069              		.loc 1 12 2
 1070 0082 9949     		li	s3,6
 1071 0084 97000000 		call	cs1237_port_wait_min_455ns
 1071      E7800000 
 1072              	.LVL117:
 1073              	.LBE197:
 1074              	.LBE196:
 145:lib/cs1237/src/cs1237.c **** 
 146:lib/cs1237/src/cs1237.c **** 	//Clk 30-36, specify read register
 147:lib/cs1237/src/cs1237.c **** 	for(int i = 0; i < 7; i++){
 1075              		.loc 1 147 2
 1076              	.LBB198:
 1077              		.loc 1 147 6
 148:lib/cs1237/src/cs1237.c **** 		clk(1);
 149:lib/cs1237/src/cs1237.c **** 		set_drdy(n_channels, channels, (read_reg >> (6 - i)) & 1);
 1078              		.loc 1 149 44 is_stmt 0
 1079 008c 930A6005 		li	s5,86
 147:lib/cs1237/src/cs1237.c **** 		clk(1);
 1080              		.loc 1 147 2
 1081 0090 7D5A     		li	s4,-1
 1082              	.LVL118:
 1083              	.L54:
 148:lib/cs1237/src/cs1237.c **** 		clk(1);
 1084              		.loc 1 148 3 is_stmt 1 discriminator 3
 1085 0092 0545     		li	a0,1
 1086 0094 97000000 		call	clk
 1086      E7800000 
 1087              	.LVL119:
 1088              		.loc 1 149 3 discriminator 3
 1089              		.loc 1 149 44 is_stmt 0 discriminator 3
 1090 009c 33D63A41 		sra	a2,s5,s3
 1091              		.loc 1 149 3 discriminator 3
 1092 00a0 058A     		andi	a2,a2,1
 1093 00a2 A685     		mv	a1,s1
 1094 00a4 2285     		mv	a0,s0
GAS LISTING C:\Users\marwz\AppData\Local\Temp\cc6zW2FC.s 			page 25


 1095 00a6 97000000 		call	set_drdy
 1095      E7800000 
 1096              	.LVL120:
 150:lib/cs1237/src/cs1237.c **** 		wait();
 1097              		.loc 1 150 3 is_stmt 1 discriminator 3
 1098              	.LBB199:
 1099              	.LBB200:
  12:lib/cs1237/src/cs1237.c **** }
 1100              		.loc 1 12 2 discriminator 3
 1101 00ae 97000000 		call	cs1237_port_wait_min_455ns
 1101      E7800000 
 1102              	.LVL121:
 1103              	.LBE200:
 1104              	.LBE199:
 151:lib/cs1237/src/cs1237.c **** 		clk(0);
 1105              		.loc 1 151 3 discriminator 3
 1106 00b6 0145     		li	a0,0
 1107 00b8 FD19     		addi	s3,s3,-1
 1108              	.LVL122:
 1109 00ba 97000000 		call	clk
 1109      E7800000 
 1110              	.LVL123:
 152:lib/cs1237/src/cs1237.c **** 		wait();
 1111              		.loc 1 152 3 discriminator 3
 1112              	.LBB201:
 1113              	.LBB202:
  12:lib/cs1237/src/cs1237.c **** }
 1114              		.loc 1 12 2 discriminator 3
 1115 00c2 97000000 		call	cs1237_port_wait_min_455ns
 1115      E7800000 
 1116              	.LVL124:
 1117              	.LBE202:
 1118              	.LBE201:
 147:lib/cs1237/src/cs1237.c **** 		clk(1);
 1119              		.loc 1 147 2 is_stmt 0 discriminator 3
 1120 00ca E39449FD 		bne	s3,s4,.L54
 1121              	.LBE198:
 153:lib/cs1237/src/cs1237.c **** 	}
 154:lib/cs1237/src/cs1237.c **** 	//Clk 37
 155:lib/cs1237/src/cs1237.c **** 	clk(1);
 1122              		.loc 1 155 2 is_stmt 1
 1123 00ce 0545     		li	a0,1
 1124 00d0 97000000 		call	clk
 1124      E7800000 
 1125              	.LVL125:
 156:lib/cs1237/src/cs1237.c **** 	wait();
 1126              		.loc 1 156 2
 1127              	.LBB203:
 1128              	.LBB204:
  12:lib/cs1237/src/cs1237.c **** }
 1129              		.loc 1 12 2
 1130 00d8 97000000 		call	cs1237_port_wait_min_455ns
 1130      E7800000 
 1131              	.LVL126:
 1132              	.LBE204:
 1133              	.LBE203:
 157:lib/cs1237/src/cs1237.c **** 	clk(0);
GAS LISTING C:\Users\marwz\AppData\Local\Temp\cc6zW2FC.s 			page 26


 1134              		.loc 1 157 2
 1135 00e0 0145     		li	a0,0
 1136 00e2 97000000 		call	clk
 1136      E7800000 
 1137              	.LVL127:
 158:lib/cs1237/src/cs1237.c **** 	wait();
 1138              		.loc 1 158 2
 1139              	.LBB205:
 1140              	.LBB206:
  12:lib/cs1237/src/cs1237.c **** }
 1141              		.loc 1 12 2
 1142 00ea 97000000 		call	cs1237_port_wait_min_455ns
 1142      E7800000 
 1143              	.LVL128:
 1144              	.LBE206:
 1145              	.LBE205:
 159:lib/cs1237/src/cs1237.c **** 
 160:lib/cs1237/src/cs1237.c **** 	drdy_input(n_channels, channels);
 1146              		.loc 1 160 2
 1147 00f2 A685     		mv	a1,s1
 1148 00f4 2285     		mv	a0,s0
 1149 00f6 97000000 		call	drdy_input
 1149      E7800000 
 1150              	.LVL129:
 161:lib/cs1237/src/cs1237.c **** 	//Clk 38-45, write configuration
 162:lib/cs1237/src/cs1237.c **** 	for(int i = 0; i < 8; i++){
 1151              		.loc 1 162 2
 1152              	.LBB207:
 1153              		.loc 1 162 6
 1154              	.LBE207:
 160:lib/cs1237/src/cs1237.c **** 	//Clk 38-45, write configuration
 1155              		.loc 1 160 2 is_stmt 0
 1156 00fe A149     		li	s3,8
 1157              	.LVL130:
 1158              	.L55:
 1159              	.LBB212:
 163:lib/cs1237/src/cs1237.c **** 		clk(1);
 1160              		.loc 1 163 3 is_stmt 1 discriminator 3
 1161 0100 0545     		li	a0,1
 1162 0102 97000000 		call	clk
 1162      E7800000 
 1163              	.LVL131:
 164:lib/cs1237/src/cs1237.c **** 		wait();
 1164              		.loc 1 164 3 discriminator 3
 1165              	.LBB208:
 1166              	.LBB209:
  12:lib/cs1237/src/cs1237.c **** }
 1167              		.loc 1 12 2 discriminator 3
 1168 010a 97000000 		call	cs1237_port_wait_min_455ns
 1168      E7800000 
 1169              	.LVL132:
 1170              	.LBE209:
 1171              	.LBE208:
 165:lib/cs1237/src/cs1237.c **** 		read_bit(n_channels, channels);
 1172              		.loc 1 165 3 discriminator 3
 1173 0112 A685     		mv	a1,s1
 1174 0114 2285     		mv	a0,s0
GAS LISTING C:\Users\marwz\AppData\Local\Temp\cc6zW2FC.s 			page 27


 1175 0116 97000000 		call	read_bit
 1175      E7800000 
 1176              	.LVL133:
 166:lib/cs1237/src/cs1237.c **** 		clk(0);
 1177              		.loc 1 166 3 discriminator 3
 1178 011e 0145     		li	a0,0
 1179 0120 FD19     		addi	s3,s3,-1
 1180              	.LVL134:
 1181 0122 97000000 		call	clk
 1181      E7800000 
 1182              	.LVL135:
 167:lib/cs1237/src/cs1237.c **** 		wait();
 1183              		.loc 1 167 3 discriminator 3
 1184              	.LBB210:
 1185              	.LBB211:
  12:lib/cs1237/src/cs1237.c **** }
 1186              		.loc 1 12 2 discriminator 3
 1187 012a 97000000 		call	cs1237_port_wait_min_455ns
 1187      E7800000 
 1188              	.LVL136:
 1189              	.LBE211:
 1190              	.LBE210:
 162:lib/cs1237/src/cs1237.c **** 		clk(1);
 1191              		.loc 1 162 2 is_stmt 0 discriminator 3
 1192 0132 E39709FC 		bne	s3,zero,.L55
 1193              	.LBE212:
 168:lib/cs1237/src/cs1237.c **** 	}
 169:lib/cs1237/src/cs1237.c **** 	
 170:lib/cs1237/src/cs1237.c **** 	//Clk 46
 171:lib/cs1237/src/cs1237.c **** 	clk(1);
 1194              		.loc 1 171 2 is_stmt 1
 1195 0136 0545     		li	a0,1
 1196 0138 97000000 		call	clk
 1196      E7800000 
 1197              	.LVL137:
 172:lib/cs1237/src/cs1237.c **** 	wait();
 1198              		.loc 1 172 2
 1199              	.LBB213:
 1200              	.LBB214:
  12:lib/cs1237/src/cs1237.c **** }
 1201              		.loc 1 12 2
 1202 0140 97000000 		call	cs1237_port_wait_min_455ns
 1202      E7800000 
 1203              	.LVL138:
 1204              	.LBE214:
 1205              	.LBE213:
 173:lib/cs1237/src/cs1237.c **** 	clk(0);
 1206              		.loc 1 173 2
 1207 0148 0145     		li	a0,0
 1208 014a 97000000 		call	clk
 1208      E7800000 
 1209              	.LVL139:
 174:lib/cs1237/src/cs1237.c **** 	wait();
 1210              		.loc 1 174 2
 1211              	.LBB215:
 1212              	.LBB216:
  12:lib/cs1237/src/cs1237.c **** }
GAS LISTING C:\Users\marwz\AppData\Local\Temp\cc6zW2FC.s 			page 28


 1213              		.loc 1 12 2
 1214 0152 97000000 		call	cs1237_port_wait_min_455ns
 1214      E7800000 
 1215              	.LVL140:
 1216              	.LBE216:
 1217              	.LBE215:
 175:lib/cs1237/src/cs1237.c **** 
 176:lib/cs1237/src/cs1237.c **** 	for(int i = 0; i < n_channels; i++) channels[i].config = channels[i].value;
 1218              		.loc 1 176 2
 1219              	.LBB217:
 1220              		.loc 1 176 6
 1221              		.loc 1 176 2 is_stmt 0
 1222 015a CA87     		mv	a5,s2
 1223              		.loc 1 176 10
 1224 015c 0147     		li	a4,0
 1225              	.LVL141:
 1226              	.L56:
 1227              		.loc 1 176 2 discriminator 1
 1228 015e 63438702 		bgt	s0,a4,.L57
 1229              	.LBE217:
 1230              	.LBB218:
 177:lib/cs1237/src/cs1237.c **** 	for(int i = 0; i < n_channels; i++) channels[i].value = 0;
 1231              		.loc 1 177 10
 1232 0162 8147     		li	a5,0
 1233              	.L58:
 1234              	.LVL142:
 1235              		.loc 1 177 2 discriminator 1
 1236 0164 63C68702 		bgt	s0,a5,.L59
 1237              	.LBE218:
 178:lib/cs1237/src/cs1237.c **** }
 1238              		.loc 1 178 1
 1239 0168 F240     		lw	ra,28(sp)
 1240              		.cfi_remember_state
 1241              		.cfi_restore 1
 1242 016a 6244     		lw	s0,24(sp)
 1243              		.cfi_restore 8
 1244 016c D244     		lw	s1,20(sp)
 1245              		.cfi_restore 9
 1246              	.LVL143:
 1247 016e 4249     		lw	s2,16(sp)
 1248              		.cfi_restore 18
 1249 0170 B249     		lw	s3,12(sp)
 1250              		.cfi_restore 19
 1251 0172 224A     		lw	s4,8(sp)
 1252              		.cfi_restore 20
 1253 0174 924A     		lw	s5,4(sp)
 1254              		.cfi_restore 21
 1255 0176 0561     		addi	sp,sp,32
 1256              	.LCFI24:
 1257              		.cfi_def_cfa_offset 0
 1258 0178 8280     		jr	ra
 1259              	.LVL144:
 1260              	.L53:
 1261              	.LCFI25:
 1262              		.cfi_restore_state
 1263              	.LBB219:
 131:lib/cs1237/src/cs1237.c **** 	//Clk 28, change drdy to output
GAS LISTING C:\Users\marwz\AppData\Local\Temp\cc6zW2FC.s 			page 29


 1264              		.loc 1 131 38 is_stmt 1 discriminator 3
 131:lib/cs1237/src/cs1237.c **** 	//Clk 28, change drdy to output
 1265              		.loc 1 131 56 is_stmt 0 discriminator 3
 1266 017a 23200700 		sw	zero,0(a4)
 131:lib/cs1237/src/cs1237.c **** 	//Clk 28, change drdy to output
 1267              		.loc 1 131 34 discriminator 3
 1268 017e 8507     		addi	a5,a5,1
 1269              	.LVL145:
 1270 0180 5107     		addi	a4,a4,20
 1271 0182 4DB5     		j	.L52
 1272              	.LVL146:
 1273              	.L57:
 1274              	.LBE219:
 1275              	.LBB220:
 176:lib/cs1237/src/cs1237.c **** 	for(int i = 0; i < n_channels; i++) channels[i].value = 0;
 1276              		.loc 1 176 38 is_stmt 1 discriminator 3
 176:lib/cs1237/src/cs1237.c **** 	for(int i = 0; i < n_channels; i++) channels[i].value = 0;
 1277              		.loc 1 176 57 is_stmt 0 discriminator 3
 1278 0184 9443     		lw	a3,0(a5)
 176:lib/cs1237/src/cs1237.c **** 	for(int i = 0; i < n_channels; i++) channels[i].value = 0;
 1279              		.loc 1 176 34 discriminator 3
 1280 0186 0507     		addi	a4,a4,1
 1281              	.LVL147:
 1282 0188 D107     		addi	a5,a5,20
 176:lib/cs1237/src/cs1237.c **** 	for(int i = 0; i < n_channels; i++) channels[i].value = 0;
 1283              		.loc 1 176 57 discriminator 3
 1284 018a 2388D7FE 		sb	a3,-16(a5)
 1285 018e C1BF     		j	.L56
 1286              	.LVL148:
 1287              	.L59:
 1288              	.LBE220:
 1289              	.LBB221:
 177:lib/cs1237/src/cs1237.c **** }
 1290              		.loc 1 177 38 is_stmt 1 discriminator 3
 177:lib/cs1237/src/cs1237.c **** }
 1291              		.loc 1 177 56 is_stmt 0 discriminator 3
 1292 0190 23200900 		sw	zero,0(s2)
 177:lib/cs1237/src/cs1237.c **** }
 1293              		.loc 1 177 34 discriminator 3
 1294 0194 8507     		addi	a5,a5,1
 1295              	.LVL149:
 1296 0196 5109     		addi	s2,s2,20
 1297 0198 F1B7     		j	.L58
 1298              	.LBE221:
 1299              		.cfi_endproc
 1300              	.LFE10:
 1302              		.section	.text.cs1237_sample_rate_and_gain,"ax",@progbits
 1303              		.align	1
 1304              		.globl	cs1237_sample_rate_and_gain
 1306              	cs1237_sample_rate_and_gain:
 1307              	.LFB11:
 179:lib/cs1237/src/cs1237.c **** 
 180:lib/cs1237/src/cs1237.c **** void cs1237_sample_rate_and_gain(uint8_t sample_rate, uint8_t gain, uint8_t n_channels, cs1237_chan
 1308              		.loc 1 180 116 is_stmt 1
 1309              		.cfi_startproc
 1310              	.LVL150:
 181:lib/cs1237/src/cs1237.c ****     uint8_t config = 0x3C;
GAS LISTING C:\Users\marwz\AppData\Local\Temp\cc6zW2FC.s 			page 30


 1311              		.loc 1 181 5
 182:lib/cs1237/src/cs1237.c ****     config = (config & 0xC3) | ((sample_rate & 0x3) << 4) | ((gain & 0x3) << 2);
 1312              		.loc 1 182 5
 183:lib/cs1237/src/cs1237.c ****     cs1237_configure(config, n_channels, channels);
 1313              		.loc 1 183 5
 182:lib/cs1237/src/cs1237.c ****     config = (config & 0xC3) | ((sample_rate & 0x3) << 4) | ((gain & 0x3) << 2);
 1314              		.loc 1 182 75 is_stmt 0
 1315 0000 8A05     		slli	a1,a1,2
 1316              	.LVL151:
 182:lib/cs1237/src/cs1237.c ****     config = (config & 0xC3) | ((sample_rate & 0x3) << 4) | ((gain & 0x3) << 2);
 1317              		.loc 1 182 53
 1318 0002 1205     		slli	a0,a0,4
 1319              	.LVL152:
 180:lib/cs1237/src/cs1237.c ****     uint8_t config = 0x3C;
 1320              		.loc 1 180 116
 1321 0004 3287     		mv	a4,a2
 182:lib/cs1237/src/cs1237.c ****     config = (config & 0xC3) | ((sample_rate & 0x3) << 4) | ((gain & 0x3) << 2);
 1322              		.loc 1 182 75
 1323 0006 93F7C500 		andi	a5,a1,12
 182:lib/cs1237/src/cs1237.c ****     config = (config & 0xC3) | ((sample_rate & 0x3) << 4) | ((gain & 0x3) << 2);
 1324              		.loc 1 182 53
 1325 000a 13750503 		andi	a0,a0,48
 1326              		.loc 1 183 5
 1327 000e 3686     		mv	a2,a3
 1328              	.LVL153:
 1329 0010 BA85     		mv	a1,a4
 1330 0012 5D8D     		or	a0,a0,a5
 1331 0014 17030000 		tail	cs1237_configure
 1331      67000300 
 1332              	.LVL154:
 1333              		.cfi_endproc
 1334              	.LFE11:
 1336              		.comm	clock,20,4
 1337              		.text
 1338              	.Letext0:
 1339              		.file 2 "c:\\users\\marwz\\documents\\github\\datafusion\\src\\datafusionexe\\pressurereadings\\pr
 1340              		.file 3 "c:\\users\\marwz\\documents\\github\\datafusion\\src\\datafusionexe\\pressurereadings\\pr
 1341              		.file 4 "lib/cs1237/include/cs1237_port.h"
 1342              		.file 5 "<built-in>"
GAS LISTING C:\Users\marwz\AppData\Local\Temp\cc6zW2FC.s 			page 31

