GAS LISTING C:\Users\marwz\AppData\Local\Temp\ccYde9TW.s 			page 1


   1              		.file	"debugger_port.c"
   2              		.option nopic
   3              		.attribute arch, "rv32i2p0_m2p0_a2p0_c2p0"
   4              		.attribute unaligned_access, 0
   5              		.attribute stack_align, 16
   6              		.text
   7              	.Ltext0:
   8              		.cfi_sections	.debug_frame
   9              		.section	.text.debug_port_print,"ax",@progbits
  10              		.align	1
  11              		.globl	debug_port_print
  13              	debug_port_print:
  14              	.LFB6:
  15              		.file 1 "./../../firmware/debugger/debugger_port.c"
   1:./../../firmware/debugger/debugger_port.c **** #include "gd32vf103.h"
   2:./../../firmware/debugger/debugger_port.c **** #include "debugger_delay.h"
   3:./../../firmware/debugger/debugger_port.c **** #include "usb_serial_if.h"
   4:./../../firmware/debugger/debugger_port.c **** #include "debugger.h"
   5:./../../firmware/debugger/debugger_port.c **** /**
   6:./../../firmware/debugger/debugger_port.c ****  * To use the debugger with a different interface these functions need to be defined
   7:./../../firmware/debugger/debugger_port.c ****  * This makes it possible to use gdb with various interfaces such as USB, UART, I2C, CAN
   8:./../../firmware/debugger/debugger_port.c ****  * but possibly also some more exotic ones, maybe debug with local LCD and keypad?
   9:./../../firmware/debugger/debugger_port.c ****  * */
  10:./../../firmware/debugger/debugger_port.c **** 
  11:./../../firmware/debugger/debugger_port.c **** 
  12:./../../firmware/debugger/debugger_port.c **** /**
  13:./../../firmware/debugger/debugger_port.c ****  * Sends messages to the debugger 
  14:./../../firmware/debugger/debugger_port.c ****  * This function should send the characters in the message buffer (7 bit clean).
  15:./../../firmware/debugger/debugger_port.c ****  * Must be able to handle 512 bytes in the message buffer.
  16:./../../firmware/debugger/debugger_port.c ****  * Is allowed to block, or rely on DMA/IRQs for non-blocking messages.
  17:./../../firmware/debugger/debugger_port.c ****  * */
  18:./../../firmware/debugger/debugger_port.c **** void debug_port_print(char *message, uint32_t size)
  19:./../../firmware/debugger/debugger_port.c **** {
  16              		.loc 1 19 1
  17              		.cfi_startproc
  18              	.LVL0:
  20:./../../firmware/debugger/debugger_port.c ****     _write(0, message, size);
  19              		.loc 1 20 5
  20 0000 2E86     		mv	a2,a1
  21 0002 AA85     		mv	a1,a0
  22              	.LVL1:
  23 0004 0145     		li	a0,0
  24              	.LVL2:
  25 0006 17030000 		tail	_write
  25      67000300 
  26              	.LVL3:
  27              		.cfi_endproc
  28              	.LFE6:
  30              		.section	.text.debug_port_read,"ax",@progbits
  31              		.align	1
  32              		.globl	debug_port_read
  34              	debug_port_read:
  35              	.LFB7:
  21:./../../firmware/debugger/debugger_port.c **** }
  22:./../../firmware/debugger/debugger_port.c **** 
  23:./../../firmware/debugger/debugger_port.c **** 
  24:./../../firmware/debugger/debugger_port.c **** /**
GAS LISTING C:\Users\marwz\AppData\Local\Temp\ccYde9TW.s 			page 2


  25:./../../firmware/debugger/debugger_port.c ****  * Receive characters from the debug interface.
  26:./../../firmware/debugger/debugger_port.c ****  * Should normally just report exactly any characters received from the interface
  27:./../../firmware/debugger/debugger_port.c ****  * Does not need to care about the contents or whether a messsage is complete.
  28:./../../firmware/debugger/debugger_port.c ****  * If you are doing something exotic complete messages work well too, but it should
  29:./../../firmware/debugger/debugger_port.c ****  * respect max_size (most rsp messages should fit in a normal max_size buffer though).
  30:./../../firmware/debugger/debugger_port.c ****  * */
  31:./../../firmware/debugger/debugger_port.c **** int debug_port_read(char *buffer, uint32_t max_size)
  32:./../../firmware/debugger/debugger_port.c **** {
  36              		.loc 1 32 1
  37              		.cfi_startproc
  38              	.LVL4:
  33:./../../firmware/debugger/debugger_port.c ****     return read_usb_serial(buffer);
  39              		.loc 1 33 5
  40              		.loc 1 33 12 is_stmt 0
  41 0000 17030000 		tail	read_usb_serial
  41      67000300 
  42              	.LVL5:
  43              		.cfi_endproc
  44              	.LFE7:
  46              		.section	.text.debug_port_init,"ax",@progbits
  47              		.align	1
  48              		.globl	debug_port_init
  50              	debug_port_init:
  51              	.LFB8:
  34:./../../firmware/debugger/debugger_port.c **** }
  35:./../../firmware/debugger/debugger_port.c **** 
  36:./../../firmware/debugger/debugger_port.c **** int debug_port_init(){
  52              		.loc 1 36 22 is_stmt 1
  53              		.cfi_startproc
  37:./../../firmware/debugger/debugger_port.c ****     configure_usb_serial();
  54              		.loc 1 37 5
  36:./../../firmware/debugger/debugger_port.c ****     configure_usb_serial();
  55              		.loc 1 36 22 is_stmt 0
  56 0000 4111     		addi	sp,sp,-16
  57              	.LCFI0:
  58              		.cfi_def_cfa_offset 16
  59 0002 06C6     		sw	ra,12(sp)
  60              		.cfi_offset 1, -4
  61              		.loc 1 37 5
  62 0004 97000000 		call	configure_usb_serial
  62      E7800000 
  63              	.LVL6:
  38:./../../firmware/debugger/debugger_port.c ****     dbg_attatch_irq(USBFS_IRQn);
  64              		.loc 1 38 5 is_stmt 1
  65 000c 13056005 		li	a0,86
  66 0010 97000000 		call	dbg_attatch_irq
  66      E7800000 
  67              	.LVL7:
  39:./../../firmware/debugger/debugger_port.c ****     dbg_attatch_irq(USBFS_WKUP_IRQn);
  68              		.loc 1 39 5
  69 0018 1305D003 		li	a0,61
  70 001c 97000000 		call	dbg_attatch_irq
  70      E7800000 
  71              	.LVL8:
  40:./../../firmware/debugger/debugger_port.c ****     while (!usb_serial_available()) {
  72              		.loc 1 40 5
  73              	.L4:
GAS LISTING C:\Users\marwz\AppData\Local\Temp\ccYde9TW.s 			page 3


  74              		.loc 1 40 13 is_stmt 0
  75 0024 97000000 		call	usb_serial_available
  75      E7800000 
  76              	.LVL9:
  77              		.loc 1 40 11
  78 002c 01C5     		beq	a0,zero,.L5
  41:./../../firmware/debugger/debugger_port.c ****         dbg_delay_1ms(100);
  42:./../../firmware/debugger/debugger_port.c ****     }
  43:./../../firmware/debugger/debugger_port.c **** }...
  79              		.loc 1 43 1
  80 002e B240     		lw	ra,12(sp)
  81              		.cfi_remember_state
  82              		.cfi_restore 1
  83 0030 4101     		addi	sp,sp,16
  84              	.LCFI1:
  85              		.cfi_def_cfa_offset 0
  86 0032 8280     		jr	ra
  87              	.L5:
  88              	.LCFI2:
  89              		.cfi_restore_state
  41:./../../firmware/debugger/debugger_port.c ****         dbg_delay_1ms(100);
  90              		.loc 1 41 9 is_stmt 1
  91 0034 13054006 		li	a0,100
  92 0038 97000000 		call	dbg_delay_1ms
  92      E7800000 
  93              	.LVL10:
  94 0040 D5B7     		j	.L4
  95              		.cfi_endproc
  96              	.LFE8:
  98              		.text
  99              	.Letext0:
 100              		.file 2 "c:\\users\\marwz\\documents\\github\\datafusion\\src\\datafusionexe\\pressurereadings\\pr
 101              		.file 3 "c:\\users\\marwz\\documents\\github\\datafusion\\src\\datafusionexe\\pressurereadings\\pr
 102              		.file 4 "lib/usbcdc/include/drv_usb_regs.h"
 103              		.file 5 "./../../firmware/GD32VF103_standard_peripheral/system_gd32vf103.h"
 104              		.file 6 "lib/usbcdc/include/usb_ch9_std.h"
 105              		.file 7 "lib/usbcdc/include/drv_usb_core.h"
 106              		.file 8 "lib/usbcdc/include/drv_usb_dev.h"
 107              		.file 9 "c:\\users\\marwz\\documents\\github\\datafusion\\src\\datafusionexe\\pressurereadings\\pr
 108              		.file 10 "c:\\users\\marwz\\documents\\github\\datafusion\\src\\datafusionexe\\pressurereadings\\p
 109              		.file 11 "c:\\users\\marwz\\documents\\github\\datafusion\\src\\datafusionexe\\pressurereadings\\p
 110              		.file 12 "c:\\users\\marwz\\documents\\github\\datafusion\\src\\datafusionexe\\pressurereadings\\p
 111              		.file 13 "lib/usbcdc/include/cdc_acm_core.h"
 112              		.file 14 "c:\\users\\marwz\\documents\\github\\datafusion\\src\\datafusionexe\\pressurereadings\\p
 113              		.file 15 "lib/usbcdc/include/usb_serial_if.h"
 114              		.file 16 "./../../firmware/debugger/debugger.h"
 115              		.file 17 "./../../firmware/debugger/debugger_delay.h"
 116              		.file 18 "./../../firmware/GD32VF103_standard_peripheral/gd32vf103.h"
GAS LISTING C:\Users\marwz\AppData\Local\Temp\ccYde9TW.s 			page 4

