GAS LISTING C:\Users\marwz\AppData\Local\Temp\ccDVLJoD.s 			page 1


   1              		.file	"debugger_core.c"
   2              		.option nopic
   3              		.attribute arch, "rv32i2p0_m2p0_a2p0_c2p0"
   4              		.attribute unaligned_access, 0
   5              		.attribute stack_align, 16
   6              		.text
   7              	.Ltext0:
   8              		.cfi_sections	.debug_frame
   9              		.section	.text.dbg_dummy,"ax",@progbits
  10              		.align	1
  11              		.globl	dbg_dummy
  13              	dbg_dummy:
  14              	.LFB7:
  15              		.file 1 "./../../firmware/debugger/debugger_core.c"
   1:./../../firmware/debugger/debugger_core.c **** #include "debugger.h"
   2:./../../firmware/debugger/debugger_core.c **** #include "gd32vf103.h"
   3:./../../firmware/debugger/debugger_core.c **** #include "debugger_delay.h"
   4:./../../firmware/debugger/debugger_core.c **** #include "riscv_encoding.h"
   5:./../../firmware/debugger/debugger_core.c **** #include "debugger_port.h"
   6:./../../firmware/debugger/debugger_core.c **** 
   7:./../../firmware/debugger/debugger_core.c **** #define USE_USB
   8:./../../firmware/debugger/debugger_core.c **** #define USE_USB_PRINTF
   9:./../../firmware/debugger/debugger_core.c **** 
  10:./../../firmware/debugger/debugger_core.c **** #define DBG_BREAKPOINTS_AVAILABLE 4
  11:./../../firmware/debugger/debugger_core.c **** 
  12:./../../firmware/debugger/debugger_core.c **** enum dbg_states {
  13:./../../firmware/debugger/debugger_core.c ****     DBG_BREAK,
  14:./../../firmware/debugger/debugger_core.c ****     DBG_STALL,
  15:./../../firmware/debugger/debugger_core.c ****     DBG_RUNNING,
  16:./../../firmware/debugger/debugger_core.c ****     DBG_STEP,
  17:./../../firmware/debugger/debugger_core.c ****     DBG_CONTINUE
  18:./../../firmware/debugger/debugger_core.c **** };
  19:./../../firmware/debugger/debugger_core.c **** 
  20:./../../firmware/debugger/debugger_core.c **** typedef struct {
  21:./../../firmware/debugger/debugger_core.c ****     int32_t x[32];
  22:./../../firmware/debugger/debugger_core.c **** } registerfile_t;
  23:./../../firmware/debugger/debugger_core.c **** 
  24:./../../firmware/debugger/debugger_core.c **** typedef struct {
  25:./../../firmware/debugger/debugger_core.c ****     uint32_t tdata[3];
  26:./../../firmware/debugger/debugger_core.c ****     uint32_t used;
  27:./../../firmware/debugger/debugger_core.c **** } dbg_breakpoint_config_t;
  28:./../../firmware/debugger/debugger_core.c **** 
  29:./../../firmware/debugger/debugger_core.c **** 
  30:./../../firmware/debugger/debugger_core.c **** #define DBG_NUM_INTERRUPTS 87
  31:./../../firmware/debugger/debugger_core.c **** #define DBG_INTERRUPT_VECTOR_SIZE ((DBG_NUM_INTERRUPTS / 32) + 1)
  32:./../../firmware/debugger/debugger_core.c **** typedef struct {
  33:./../../firmware/debugger/debugger_core.c ****     uint32_t state;
  34:./../../firmware/debugger/debugger_core.c ****     registerfile_t regs;
  35:./../../firmware/debugger/debugger_core.c ****     uint32_t pc;
  36:./../../firmware/debugger/debugger_core.c ****     dbg_breakpoint_config_t brk[DBG_BREAKPOINTS_AVAILABLE];
  37:./../../firmware/debugger/debugger_core.c ****     uint32_t irq_enabled_vector[DBG_INTERRUPT_VECTOR_SIZE];
  38:./../../firmware/debugger/debugger_core.c ****     uint32_t irq_ignore_vector_mask[DBG_INTERRUPT_VECTOR_SIZE];
  39:./../../firmware/debugger/debugger_core.c **** } dbg_state_t;
  40:./../../firmware/debugger/debugger_core.c **** 
  41:./../../firmware/debugger/debugger_core.c **** static const char dbg_hex_lookup[] = "0123456789ABCDEF";
  42:./../../firmware/debugger/debugger_core.c **** 
  43:./../../firmware/debugger/debugger_core.c **** static dbg_state_t dbg_state_g = { .state = DBG_RUNNING, 
GAS LISTING C:\Users\marwz\AppData\Local\Temp\ccDVLJoD.s 			page 2


  44:./../../firmware/debugger/debugger_core.c ****                                    .regs = {0}, 
  45:./../../firmware/debugger/debugger_core.c ****                                    .pc = 0, 
  46:./../../firmware/debugger/debugger_core.c ****                                    .brk = {0},
  47:./../../firmware/debugger/debugger_core.c ****                                     /* Stored irq state when entering debugger */
  48:./../../firmware/debugger/debugger_core.c ****                                    .irq_enabled_vector = 0,
  49:./../../firmware/debugger/debugger_core.c ****                                     /* IRQs that should not be disabled when debugging. 
  50:./../../firmware/debugger/debugger_core.c ****                                        Primarily used to enable IRQ based link for debugger*/
  51:./../../firmware/debugger/debugger_core.c ****                                    .irq_ignore_vector_mask = 0 
  52:./../../firmware/debugger/debugger_core.c ****                                 };
  53:./../../firmware/debugger/debugger_core.c **** 
  54:./../../firmware/debugger/debugger_core.c **** void    dbg_message_decoder(dbg_state_t *state, uint8_t *message);
  55:./../../firmware/debugger/debugger_core.c **** int32_t dbg_check_messages(uint8_t *message_buffer);
  56:./../../firmware/debugger/debugger_core.c **** void    dbg_reply(const char *buffer);
  57:./../../firmware/debugger/debugger_core.c **** 
  58:./../../firmware/debugger/debugger_core.c **** registerfile_t build_register_state_sp(uintptr_t sp);
  59:./../../firmware/debugger/debugger_core.c **** uintptr_t      predict_next_instruction(uintptr_t pc, registerfile_t reg_state);
  60:./../../firmware/debugger/debugger_core.c **** uint8_t        dbg_match(uint8_t *comp, const uint8_t *match_to);
  61:./../../firmware/debugger/debugger_core.c **** uint8_t*       dbg_parse_hex(char *str, uint32_t max_size, uint32_t *result);
  62:./../../firmware/debugger/debugger_core.c **** uint8_t        dbg_checksum(const uint8_t *buffer, uint32_t length);
  63:./../../firmware/debugger/debugger_core.c **** 
  64:./../../firmware/debugger/debugger_core.c **** void dbg_store_breakpoint(uint32_t breakpoint_index, dbg_state_t *dbg_state);
  65:./../../firmware/debugger/debugger_core.c **** void dbg_set_temporary_breakpoint(uintptr_t addr, uint32_t breakpoint_index);
  66:./../../firmware/debugger/debugger_core.c **** void dbg_restore_breakpoints(dbg_state_t *dbg_state);
  67:./../../firmware/debugger/debugger_core.c **** void dbg_temporary_disable_breakpoint(uint32_t breakpoint_index);
  68:./../../firmware/debugger/debugger_core.c **** void dbg_add_breakpoint(uintptr_t addr, dbg_state_t *dbg_state);
  69:./../../firmware/debugger/debugger_core.c **** void dbg_set_breakpoint(uint32_t breakpoint_index, uintptr_t addr, dbg_state_t *dbg_state);
  70:./../../firmware/debugger/debugger_core.c **** void dbg_remove_breakpoint(uintptr_t addr, dbg_state_t *dbg_state);
  71:./../../firmware/debugger/debugger_core.c **** 
  72:./../../firmware/debugger/debugger_core.c **** //Portable arch candidate
  73:./../../firmware/debugger/debugger_core.c **** void dbg_store_irq_state(dbg_state_t *dbg_state);
  74:./../../firmware/debugger/debugger_core.c **** //Portable arch candidate
  75:./../../firmware/debugger/debugger_core.c **** void dbg_restore_irq_state(dbg_state_t *dbg_state);
  76:./../../firmware/debugger/debugger_core.c **** 
  77:./../../firmware/debugger/debugger_core.c **** void dbg_set_irq_ignore(dbg_state_t *dbg_state, uint32_t source);
  78:./../../firmware/debugger/debugger_core.c **** 
  79:./../../firmware/debugger/debugger_core.c **** void dbg_attatch_irq(unsigned int source){
  80:./../../firmware/debugger/debugger_core.c ****     dbg_set_irq_ignore(&dbg_state_g, source);
  81:./../../firmware/debugger/debugger_core.c **** }
  82:./../../firmware/debugger/debugger_core.c **** 
  83:./../../firmware/debugger/debugger_core.c **** void dbg_break(){
  84:./../../firmware/debugger/debugger_core.c ****     dbg_state_g.state = DBG_BREAK;
  85:./../../firmware/debugger/debugger_core.c **** }
  86:./../../firmware/debugger/debugger_core.c **** void dbg_store_irq_state(dbg_state_t *dbg_state){
  87:./../../firmware/debugger/debugger_core.c ****     for(int i = 0; i < DBG_INTERRUPT_VECTOR_SIZE; i++){
  88:./../../firmware/debugger/debugger_core.c ****         dbg_state->irq_enabled_vector[i] = 0;
  89:./../../firmware/debugger/debugger_core.c ****     }
  90:./../../firmware/debugger/debugger_core.c ****     uint32_t vector_index = 0;
  91:./../../firmware/debugger/debugger_core.c ****     uint32_t bit_index = 0;
  92:./../../firmware/debugger/debugger_core.c ****     for(int i = 0; i < DBG_NUM_INTERRUPTS; i++){
  93:./../../firmware/debugger/debugger_core.c ****         vector_index = i / 32;
  94:./../../firmware/debugger/debugger_core.c ****         bit_index = i % 32;
  95:./../../firmware/debugger/debugger_core.c ****         if(*((uint8_t*)(ECLIC_ADDR_BASE+ECLIC_INT_IE_OFFSET+i*4)) == 1){
  96:./../../firmware/debugger/debugger_core.c ****             dbg_state->irq_enabled_vector[vector_index] |= (1 << bit_index);
  97:./../../firmware/debugger/debugger_core.c ****             if(~dbg_state->irq_ignore_vector_mask[vector_index] & (1U << bit_index)) eclic_disable_
  98:./../../firmware/debugger/debugger_core.c ****         }
  99:./../../firmware/debugger/debugger_core.c ****     }
 100:./../../firmware/debugger/debugger_core.c **** }
GAS LISTING C:\Users\marwz\AppData\Local\Temp\ccDVLJoD.s 			page 3


 101:./../../firmware/debugger/debugger_core.c **** 
 102:./../../firmware/debugger/debugger_core.c **** void dbg_restore_irq_state(dbg_state_t *dbg_state){
 103:./../../firmware/debugger/debugger_core.c ****     uint32_t vector_index = 0;
 104:./../../firmware/debugger/debugger_core.c ****     uint32_t bit_index = 0;
 105:./../../firmware/debugger/debugger_core.c ****     for(int i = 0; i < DBG_NUM_INTERRUPTS; i++){
 106:./../../firmware/debugger/debugger_core.c ****         vector_index = i / 32;
 107:./../../firmware/debugger/debugger_core.c ****         bit_index = i % 32;
 108:./../../firmware/debugger/debugger_core.c ****         if(dbg_state->irq_enabled_vector[vector_index] & (1U << bit_index)){
 109:./../../firmware/debugger/debugger_core.c ****             if(~dbg_state->irq_ignore_vector_mask[vector_index] & (1U << bit_index)) eclic_enable_i
 110:./../../firmware/debugger/debugger_core.c ****         }
 111:./../../firmware/debugger/debugger_core.c ****     }
 112:./../../firmware/debugger/debugger_core.c **** }
 113:./../../firmware/debugger/debugger_core.c **** 
 114:./../../firmware/debugger/debugger_core.c **** void dbg_set_irq_ignore(dbg_state_t *dbg_state, uint32_t source){
 115:./../../firmware/debugger/debugger_core.c ****     dbg_state->irq_ignore_vector_mask[source / 32] |= (1U << (source % 32));
 116:./../../firmware/debugger/debugger_core.c **** }
 117:./../../firmware/debugger/debugger_core.c **** 
 118:./../../firmware/debugger/debugger_core.c **** volatile void  __attribute__ ((noinline)) dbg_dummy()
 119:./../../firmware/debugger/debugger_core.c **** {
  16              		.loc 1 119 1
  17              		.cfi_startproc
 120:./../../firmware/debugger/debugger_core.c ****     volatile int i = 0;
  18              		.loc 1 120 5
 119:./../../firmware/debugger/debugger_core.c ****     volatile int i = 0;
  19              		.loc 1 119 1 is_stmt 0
  20 0000 4111     		addi	sp,sp,-16
  21              	.LCFI0:
  22              		.cfi_def_cfa_offset 16
  23              		.loc 1 120 18
  24 0002 02C6     		sw	zero,12(sp)
 121:./../../firmware/debugger/debugger_core.c ****     return;
  25              		.loc 1 121 5 is_stmt 1
 122:./../../firmware/debugger/debugger_core.c **** }
  26              		.loc 1 122 1 is_stmt 0
  27 0004 4101     		addi	sp,sp,16
  28              	.LCFI1:
  29              		.cfi_def_cfa_offset 0
  30 0006 8280     		jr	ra
  31              		.cfi_endproc
  32              	.LFE7:
  34              		.section	.text.dbg_break,"ax",@progbits
  35              		.align	1
  36              		.globl	dbg_break
  38              	dbg_break:
  39              	.LFB3:
  83:./../../firmware/debugger/debugger_core.c ****     dbg_state_g.state = DBG_BREAK;
  40              		.loc 1 83 17 is_stmt 1
  41              		.cfi_startproc
  84:./../../firmware/debugger/debugger_core.c **** }
  42              		.loc 1 84 5
  84:./../../firmware/debugger/debugger_core.c **** }
  43              		.loc 1 84 23 is_stmt 0
  44 0000 B7070000 		lui	a5,%hi(.LANCHOR0)
  45 0004 23A00700 		sw	zero,%lo(.LANCHOR0)(a5)
  85:./../../firmware/debugger/debugger_core.c **** void dbg_store_irq_state(dbg_state_t *dbg_state){
  46              		.loc 1 85 1
  47 0008 8280     		ret
GAS LISTING C:\Users\marwz\AppData\Local\Temp\ccDVLJoD.s 			page 4


  48              		.cfi_endproc
  49              	.LFE3:
  51              		.section	.text.dbg_store_irq_state,"ax",@progbits
  52              		.align	1
  53              		.globl	dbg_store_irq_state
  55              	dbg_store_irq_state:
  56              	.LFB4:
  86:./../../firmware/debugger/debugger_core.c ****     for(int i = 0; i < DBG_INTERRUPT_VECTOR_SIZE; i++){
  57              		.loc 1 86 49 is_stmt 1
  58              		.cfi_startproc
  59              	.LVL0:
  87:./../../firmware/debugger/debugger_core.c ****         dbg_state->irq_enabled_vector[i] = 0;
  60              		.loc 1 87 5
  61              	.LBB14:
  87:./../../firmware/debugger/debugger_core.c ****         dbg_state->irq_enabled_vector[i] = 0;
  62              		.loc 1 87 9
  88:./../../firmware/debugger/debugger_core.c ****     }
  63              		.loc 1 88 9
  64              	.LBE14:
  86:./../../firmware/debugger/debugger_core.c ****     for(int i = 0; i < DBG_INTERRUPT_VECTOR_SIZE; i++){
  65              		.loc 1 86 49 is_stmt 0
  66 0000 0111     		addi	sp,sp,-32
  67              	.LCFI2:
  68              		.cfi_def_cfa_offset 32
  69 0002 22CC     		sw	s0,24(sp)
  70 0004 26CA     		sw	s1,20(sp)
  71 0006 4AC8     		sw	s2,16(sp)
  72 0008 4EC6     		sw	s3,12(sp)
  73 000a 52C4     		sw	s4,8(sp)
  74 000c 06CE     		sw	ra,28(sp)
  75              		.cfi_offset 8, -8
  76              		.cfi_offset 9, -12
  77              		.cfi_offset 18, -16
  78              		.cfi_offset 19, -20
  79              		.cfi_offset 20, -24
  80              		.cfi_offset 1, -4
  86:./../../firmware/debugger/debugger_core.c ****     for(int i = 0; i < DBG_INTERRUPT_VECTOR_SIZE; i++){
  81              		.loc 1 86 49
  82 000e AA84     		mv	s1,a0
  83              	.LBB15:
  88:./../../firmware/debugger/debugger_core.c ****     }
  84              		.loc 1 88 42
  85 0010 2324050C 		sw	zero,200(a0)
  86              	.LVL1:
  88:./../../firmware/debugger/debugger_core.c ****     }
  87              		.loc 1 88 9 is_stmt 1
  88:./../../firmware/debugger/debugger_core.c ****     }
  88              		.loc 1 88 42 is_stmt 0
  89 0014 2326050C 		sw	zero,204(a0)
  90              	.LVL2:
  88:./../../firmware/debugger/debugger_core.c ****     }
  91              		.loc 1 88 9 is_stmt 1
  88:./../../firmware/debugger/debugger_core.c ****     }
  92              		.loc 1 88 42 is_stmt 0
  93 0018 2328050C 		sw	zero,208(a0)
  94              	.LVL3:
  95              	.LBE15:
GAS LISTING C:\Users\marwz\AppData\Local\Temp\ccDVLJoD.s 			page 5


  96              	.LBB16:
  92:./../../firmware/debugger/debugger_core.c ****         vector_index = i / 32;
  97              		.loc 1 92 13
  98 001c 0144     		li	s0,0
  95:./../../firmware/debugger/debugger_core.c ****             dbg_state->irq_enabled_vector[vector_index] |= (1 << bit_index);
  99              		.loc 1 95 12
 100 001e 371A00D2 		li	s4,-771747840
  95:./../../firmware/debugger/debugger_core.c ****             dbg_state->irq_enabled_vector[vector_index] |= (1 << bit_index);
 101              		.loc 1 95 11
 102 0022 0549     		li	s2,1
  92:./../../firmware/debugger/debugger_core.c ****         vector_index = i / 32;
 103              		.loc 1 92 5
 104 0024 93097005 		li	s3,87
 105              	.LVL4:
 106              	.L8:
  93:./../../firmware/debugger/debugger_core.c ****         bit_index = i % 32;
 107              		.loc 1 93 9 is_stmt 1
  94:./../../firmware/debugger/debugger_core.c ****         if(*((uint8_t*)(ECLIC_ADDR_BASE+ECLIC_INT_IE_OFFSET+i*4)) == 1){
 108              		.loc 1 94 9
  95:./../../firmware/debugger/debugger_core.c ****             dbg_state->irq_enabled_vector[vector_index] |= (1 << bit_index);
 109              		.loc 1 95 9
  95:./../../firmware/debugger/debugger_core.c ****             dbg_state->irq_enabled_vector[vector_index] |= (1 << bit_index);
 110              		.loc 1 95 12 is_stmt 0
 111 0028 93172400 		slli	a5,s0,2
 112 002c D297     		add	a5,s4,a5
  95:./../../firmware/debugger/debugger_core.c ****             dbg_state->irq_enabled_vector[vector_index] |= (1 << bit_index);
 113              		.loc 1 95 11
 114 002e 83C71700 		lbu	a5,1(a5)
 115 0032 63982703 		bne	a5,s2,.L6
  96:./../../firmware/debugger/debugger_core.c ****             if(~dbg_state->irq_ignore_vector_mask[vector_index] & (1U << bit_index)) eclic_disable_
 116              		.loc 1 96 13 is_stmt 1
  93:./../../firmware/debugger/debugger_core.c ****         bit_index = i % 32;
 117              		.loc 1 93 26 is_stmt 0
 118 0036 93575440 		srai	a5,s0,5
 119              	.LVL5:
 120 003a 8A07     		slli	a5,a5,2
 121              	.LVL6:
 122 003c A697     		add	a5,s1,a5
  96:./../../firmware/debugger/debugger_core.c ****             if(~dbg_state->irq_ignore_vector_mask[vector_index] & (1U << bit_index)) eclic_disable_
 123              		.loc 1 96 57
 124 003e 83A6870C 		lw	a3,200(a5)
  96:./../../firmware/debugger/debugger_core.c ****             if(~dbg_state->irq_ignore_vector_mask[vector_index] & (1U << bit_index)) eclic_disable_
 125              		.loc 1 96 63
 126 0042 33178900 		sll	a4,s2,s0
  96:./../../firmware/debugger/debugger_core.c ****             if(~dbg_state->irq_ignore_vector_mask[vector_index] & (1U << bit_index)) eclic_disable_
 127              		.loc 1 96 57
 128 0046 D98E     		or	a3,a3,a4
 129 0048 23A4D70C 		sw	a3,200(a5)
  97:./../../firmware/debugger/debugger_core.c ****         }
 130              		.loc 1 97 13 is_stmt 1
  97:./../../firmware/debugger/debugger_core.c ****         }
 131              		.loc 1 97 16 is_stmt 0
 132 004c 83A7470D 		lw	a5,212(a5)
 133 0050 93C7F7FF 		not	a5,a5
  97:./../../firmware/debugger/debugger_core.c ****         }
 134              		.loc 1 97 65
 135 0054 F98F     		and	a5,a5,a4
GAS LISTING C:\Users\marwz\AppData\Local\Temp\ccDVLJoD.s 			page 6


  97:./../../firmware/debugger/debugger_core.c ****         }
 136              		.loc 1 97 15
 137 0056 91C7     		beq	a5,zero,.L6
  97:./../../firmware/debugger/debugger_core.c ****         }
 138              		.loc 1 97 86 is_stmt 1 discriminator 1
 139 0058 2285     		mv	a0,s0
 140 005a 97000000 		call	eclic_disable_interrupt
 140      E7800000 
 141              	.LVL7:
 142              	.L6:
  92:./../../firmware/debugger/debugger_core.c ****         vector_index = i / 32;
 143              		.loc 1 92 45 is_stmt 0 discriminator 2
 144 0062 0504     		addi	s0,s0,1
 145              	.LVL8:
  92:./../../firmware/debugger/debugger_core.c ****         vector_index = i / 32;
 146              		.loc 1 92 5 discriminator 2
 147 0064 E31234FD 		bne	s0,s3,.L8
 148              	.LBE16:
 100:./../../firmware/debugger/debugger_core.c **** 
 149              		.loc 1 100 1
 150 0068 F240     		lw	ra,28(sp)
 151              		.cfi_restore 1
 152 006a 6244     		lw	s0,24(sp)
 153              		.cfi_restore 8
 154              	.LVL9:
 155 006c D244     		lw	s1,20(sp)
 156              		.cfi_restore 9
 157              	.LVL10:
 158 006e 4249     		lw	s2,16(sp)
 159              		.cfi_restore 18
 160 0070 B249     		lw	s3,12(sp)
 161              		.cfi_restore 19
 162 0072 224A     		lw	s4,8(sp)
 163              		.cfi_restore 20
 164 0074 0561     		addi	sp,sp,32
 165              	.LCFI3:
 166              		.cfi_def_cfa_offset 0
 167 0076 8280     		jr	ra
 168              		.cfi_endproc
 169              	.LFE4:
 171              		.section	.text.dbg_restore_irq_state,"ax",@progbits
 172              		.align	1
 173              		.globl	dbg_restore_irq_state
 175              	dbg_restore_irq_state:
 176              	.LFB5:
 102:./../../firmware/debugger/debugger_core.c ****     uint32_t vector_index = 0;
 177              		.loc 1 102 51 is_stmt 1
 178              		.cfi_startproc
 179              	.LVL11:
 103:./../../firmware/debugger/debugger_core.c ****     uint32_t bit_index = 0;
 180              		.loc 1 103 5
 104:./../../firmware/debugger/debugger_core.c ****     for(int i = 0; i < DBG_NUM_INTERRUPTS; i++){
 181              		.loc 1 104 5
 105:./../../firmware/debugger/debugger_core.c ****         vector_index = i / 32;
 182              		.loc 1 105 5
 183              	.LBB17:
 105:./../../firmware/debugger/debugger_core.c ****         vector_index = i / 32;
GAS LISTING C:\Users\marwz\AppData\Local\Temp\ccDVLJoD.s 			page 7


 184              		.loc 1 105 9
 185              	.LBE17:
 102:./../../firmware/debugger/debugger_core.c ****     uint32_t vector_index = 0;
 186              		.loc 1 102 51 is_stmt 0
 187 0000 0111     		addi	sp,sp,-32
 188              	.LCFI4:
 189              		.cfi_def_cfa_offset 32
 190 0002 22CC     		sw	s0,24(sp)
 191 0004 26CA     		sw	s1,20(sp)
 192 0006 4AC8     		sw	s2,16(sp)
 193 0008 4EC6     		sw	s3,12(sp)
 194 000a 06CE     		sw	ra,28(sp)
 195              		.cfi_offset 8, -8
 196              		.cfi_offset 9, -12
 197              		.cfi_offset 18, -16
 198              		.cfi_offset 19, -20
 199              		.cfi_offset 1, -4
 102:./../../firmware/debugger/debugger_core.c ****     uint32_t vector_index = 0;
 200              		.loc 1 102 51
 201 000c 2A89     		mv	s2,a0
 202              	.LBB18:
 105:./../../firmware/debugger/debugger_core.c ****         vector_index = i / 32;
 203              		.loc 1 105 13
 204 000e 0144     		li	s0,0
 108:./../../firmware/debugger/debugger_core.c ****             if(~dbg_state->irq_ignore_vector_mask[vector_index] & (1U << bit_index)) eclic_enable_i
 205              		.loc 1 108 62
 206 0010 8549     		li	s3,1
 105:./../../firmware/debugger/debugger_core.c ****         vector_index = i / 32;
 207              		.loc 1 105 5
 208 0012 93047005 		li	s1,87
 209              	.LVL12:
 210              	.L16:
 106:./../../firmware/debugger/debugger_core.c ****         bit_index = i % 32;
 211              		.loc 1 106 9 is_stmt 1
 107:./../../firmware/debugger/debugger_core.c ****         if(dbg_state->irq_enabled_vector[vector_index] & (1U << bit_index)){
 212              		.loc 1 107 9
 108:./../../firmware/debugger/debugger_core.c ****             if(~dbg_state->irq_ignore_vector_mask[vector_index] & (1U << bit_index)) eclic_enable_i
 213              		.loc 1 108 9
 106:./../../firmware/debugger/debugger_core.c ****         bit_index = i % 32;
 214              		.loc 1 106 26 is_stmt 0
 215 0016 93575440 		srai	a5,s0,5
 216              	.LVL13:
 217 001a 8A07     		slli	a5,a5,2
 218              	.LVL14:
 219 001c CA97     		add	a5,s2,a5
 108:./../../firmware/debugger/debugger_core.c ****             if(~dbg_state->irq_ignore_vector_mask[vector_index] & (1U << bit_index)) eclic_enable_i
 220              		.loc 1 108 56
 221 001e 03A7870C 		lw	a4,200(a5)
 108:./../../firmware/debugger/debugger_core.c ****             if(~dbg_state->irq_ignore_vector_mask[vector_index] & (1U << bit_index)) eclic_enable_i
 222              		.loc 1 108 62
 223 0022 B3968900 		sll	a3,s3,s0
 108:./../../firmware/debugger/debugger_core.c ****             if(~dbg_state->irq_ignore_vector_mask[vector_index] & (1U << bit_index)) eclic_enable_i
 224              		.loc 1 108 56
 225 0026 758F     		and	a4,a3,a4
 108:./../../firmware/debugger/debugger_core.c ****             if(~dbg_state->irq_ignore_vector_mask[vector_index] & (1U << bit_index)) eclic_enable_i
 226              		.loc 1 108 11
 227 0028 01CF     		beq	a4,zero,.L15
GAS LISTING C:\Users\marwz\AppData\Local\Temp\ccDVLJoD.s 			page 8


 109:./../../firmware/debugger/debugger_core.c ****         }
 228              		.loc 1 109 13 is_stmt 1
 109:./../../firmware/debugger/debugger_core.c ****         }
 229              		.loc 1 109 16 is_stmt 0
 230 002a 83A7470D 		lw	a5,212(a5)
 231 002e 93C7F7FF 		not	a5,a5
 109:./../../firmware/debugger/debugger_core.c ****         }
 232              		.loc 1 109 65
 233 0032 F58F     		and	a5,a5,a3
 109:./../../firmware/debugger/debugger_core.c ****         }
 234              		.loc 1 109 15
 235 0034 91C7     		beq	a5,zero,.L15
 109:./../../firmware/debugger/debugger_core.c ****         }
 236              		.loc 1 109 86 is_stmt 1 discriminator 1
 237 0036 2285     		mv	a0,s0
 238 0038 97000000 		call	eclic_enable_interrupt
 238      E7800000 
 239              	.LVL15:
 240              	.L15:
 105:./../../firmware/debugger/debugger_core.c ****         vector_index = i / 32;
 241              		.loc 1 105 45 is_stmt 0 discriminator 2
 242 0040 0504     		addi	s0,s0,1
 243              	.LVL16:
 105:./../../firmware/debugger/debugger_core.c ****         vector_index = i / 32;
 244              		.loc 1 105 5 discriminator 2
 245 0042 E31A94FC 		bne	s0,s1,.L16
 246              	.LBE18:
 112:./../../firmware/debugger/debugger_core.c **** 
 247              		.loc 1 112 1
 248 0046 F240     		lw	ra,28(sp)
 249              		.cfi_restore 1
 250 0048 6244     		lw	s0,24(sp)
 251              		.cfi_restore 8
 252              	.LVL17:
 253 004a D244     		lw	s1,20(sp)
 254              		.cfi_restore 9
 255 004c 4249     		lw	s2,16(sp)
 256              		.cfi_restore 18
 257              	.LVL18:
 258 004e B249     		lw	s3,12(sp)
 259              		.cfi_restore 19
 260 0050 0561     		addi	sp,sp,32
 261              	.LCFI5:
 262              		.cfi_def_cfa_offset 0
 263 0052 8280     		jr	ra
 264              		.cfi_endproc
 265              	.LFE5:
 267              		.section	.text.dbg_set_irq_ignore,"ax",@progbits
 268              		.align	1
 269              		.globl	dbg_set_irq_ignore
 271              	dbg_set_irq_ignore:
 272              	.LFB6:
 114:./../../firmware/debugger/debugger_core.c ****     dbg_state->irq_ignore_vector_mask[source / 32] |= (1U << (source % 32));
 273              		.loc 1 114 65 is_stmt 1
 274              		.cfi_startproc
 275              	.LVL19:
 115:./../../firmware/debugger/debugger_core.c **** }
GAS LISTING C:\Users\marwz\AppData\Local\Temp\ccDVLJoD.s 			page 9


 276              		.loc 1 115 5
 115:./../../firmware/debugger/debugger_core.c **** }
 277              		.loc 1 115 46 is_stmt 0
 278 0000 93D75500 		srli	a5,a1,5
 279 0004 8A07     		slli	a5,a5,2
 280 0006 3E95     		add	a0,a0,a5
 281              	.LVL20:
 115:./../../firmware/debugger/debugger_core.c **** }
 282              		.loc 1 115 59
 283 0008 8547     		li	a5,1
 284 000a B397B700 		sll	a5,a5,a1
 115:./../../firmware/debugger/debugger_core.c **** }
 285              		.loc 1 115 52
 286 000e 8325450D 		lw	a1,212(a0)
 287              	.LVL21:
 288 0012 DD8D     		or	a1,a1,a5
 289 0014 232AB50C 		sw	a1,212(a0)
 116:./../../firmware/debugger/debugger_core.c **** 
 290              		.loc 1 116 1
 291 0018 8280     		ret
 292              		.cfi_endproc
 293              	.LFE6:
 295              		.section	.text.dbg_attatch_irq,"ax",@progbits
 296              		.align	1
 297              		.globl	dbg_attatch_irq
 299              	dbg_attatch_irq:
 300              	.LFB2:
  79:./../../firmware/debugger/debugger_core.c ****     dbg_set_irq_ignore(&dbg_state_g, source);
 301              		.loc 1 79 42 is_stmt 1
 302              		.cfi_startproc
 303              	.LVL22:
  80:./../../firmware/debugger/debugger_core.c **** }
 304              		.loc 1 80 5
 305 0000 AA85     		mv	a1,a0
 306 0002 37050000 		lui	a0,%hi(.LANCHOR0)
 307              	.LVL23:
 308 0006 13050500 		addi	a0,a0,%lo(.LANCHOR0)
 309 000a 17030000 		tail	dbg_set_irq_ignore
 309      67000300 
 310              	.LVL24:
 311              		.cfi_endproc
 312              	.LFE2:
 314              		.section	.text.build_register_state_sp,"ax",@progbits
 315              		.align	1
 316              		.globl	build_register_state_sp
 318              	build_register_state_sp:
 319              	.LFB9:
 123:./../../firmware/debugger/debugger_core.c **** //_dbg_sp comes from linker script
 124:./../../firmware/debugger/debugger_core.c **** //debugger and standard C runtime has separate stacks so that the debuggers stack is not easily cor
 125:./../../firmware/debugger/debugger_core.c **** //Debugger stack starts at the end of ram
 126:./../../firmware/debugger/debugger_core.c **** extern int _dbg_sp;
 127:./../../firmware/debugger/debugger_core.c **** void dbg_init()
 128:./../../firmware/debugger/debugger_core.c **** {
 129:./../../firmware/debugger/debugger_core.c ****     uint32_t trap_entry_ptr = (uint32_t)dbg_trap_entry;
 130:./../../firmware/debugger/debugger_core.c ****     trap_entry_ptr |= 3;
 131:./../../firmware/debugger/debugger_core.c ****     write_csr(mtvec, trap_entry_ptr);
 132:./../../firmware/debugger/debugger_core.c ****     write_csr(mscratch, _dbg_sp);
GAS LISTING C:\Users\marwz\AppData\Local\Temp\ccDVLJoD.s 			page 10


 133:./../../firmware/debugger/debugger_core.c ****     rcu_periph_clock_enable(RCU_GPIOA);
 134:./../../firmware/debugger/debugger_core.c ****     rcu_periph_clock_enable(RCU_AF);
 135:./../../firmware/debugger/debugger_core.c ****     gpio_init(GPIOA, GPIO_MODE_AF_PP, GPIO_OSPEED_50MHZ, GPIO_PIN_11 | GPIO_PIN_12);
 136:./../../firmware/debugger/debugger_core.c ****     debug_port_init();
 137:./../../firmware/debugger/debugger_core.c ****     //dbg_delay_1ms(3000);
 138:./../../firmware/debugger/debugger_core.c ****     //Set an artificial breakpoint to invoke the debugger
 139:./../../firmware/debugger/debugger_core.c ****     void (*dummy_breakpoint)() = dbg_dummy;
 140:./../../firmware/debugger/debugger_core.c ****     dbg_set_temporary_breakpoint((uintptr_t) dummy_breakpoint, 1);
 141:./../../firmware/debugger/debugger_core.c ****     dbg_dummy();
 142:./../../firmware/debugger/debugger_core.c **** }
 143:./../../firmware/debugger/debugger_core.c **** 
 144:./../../firmware/debugger/debugger_core.c **** registerfile_t build_register_state_sp(uintptr_t sp)
 145:./../../firmware/debugger/debugger_core.c **** {
 320              		.loc 1 145 1
 321              		.cfi_startproc
 322              	.LVL25:
 146:./../../firmware/debugger/debugger_core.c ****     registerfile_t regs = {0};
 323              		.loc 1 146 5
 145:./../../firmware/debugger/debugger_core.c ****     registerfile_t regs = {0};
 324              		.loc 1 145 1 is_stmt 0
 325 0000 7571     		addi	sp,sp,-144
 326              	.LCFI6:
 327              		.cfi_def_cfa_offset 144
 328 0002 22C5     		sw	s0,136(sp)
 329 0004 26C3     		sw	s1,132(sp)
 330              		.cfi_offset 8, -8
 331              		.cfi_offset 9, -12
 332 0006 2A84     		mv	s0,a0
 333 0008 AE84     		mv	s1,a1
 334              		.loc 1 146 20
 335 000a 13060008 		li	a2,128
 336 000e 8145     		li	a1,0
 337              	.LVL26:
 338 0010 0A85     		mv	a0,sp
 339              	.LVL27:
 145:./../../firmware/debugger/debugger_core.c ****     registerfile_t regs = {0};
 340              		.loc 1 145 1
 341 0012 06C7     		sw	ra,140(sp)
 342              		.cfi_offset 1, -4
 343              		.loc 1 146 20
 344 0014 97000000 		call	memset
 344      E7800000 
 345              	.LVL28:
 147:./../../firmware/debugger/debugger_core.c ****     int32_t *p_sp = (int32_t*)sp;
 346              		.loc 1 147 5 is_stmt 1
 148:./../../firmware/debugger/debugger_core.c ****     for (int i = 0; i < 32; i++) {
 347              		.loc 1 148 5
 348              	.LBB19:
 349              		.loc 1 148 10
 350              	.LBE19:
 146:./../../firmware/debugger/debugger_core.c ****     int32_t *p_sp = (int32_t*)sp;
 351              		.loc 1 146 20 is_stmt 0
 352 001c 8147     		li	a5,0
 353              	.LBB20:
 354              		.loc 1 148 5
 355 001e 13070008 		li	a4,128
 356              	.LVL29:
GAS LISTING C:\Users\marwz\AppData\Local\Temp\ccDVLJoD.s 			page 11


 357              	.L28:
 149:./../../firmware/debugger/debugger_core.c ****         regs.x[i] = p_sp[i];
 358              		.loc 1 149 9 is_stmt 1 discriminator 3
 359              		.loc 1 149 25 is_stmt 0 discriminator 3
 360 0022 33869700 		add	a2,a5,s1
 361              		.loc 1 149 19 discriminator 3
 362 0026 1042     		lw	a2,0(a2)
 363 0028 B306F100 		add	a3,sp,a5
 364 002c 9107     		addi	a5,a5,4
 365 002e 90C2     		sw	a2,0(a3)
 148:./../../firmware/debugger/debugger_core.c ****     for (int i = 0; i < 32; i++) {
 366              		.loc 1 148 5 discriminator 3
 367 0030 E399E7FE 		bne	a5,a4,.L28
 368              	.LBE20:
 150:./../../firmware/debugger/debugger_core.c ****     }
 151:./../../firmware/debugger/debugger_core.c ****     //regs.x[2] += 4 * 32;
 152:./../../firmware/debugger/debugger_core.c ****     return regs;
 369              		.loc 1 152 5 is_stmt 1
 370              		.loc 1 152 12 is_stmt 0
 371 0034 8A85     		mv	a1,sp
 372 0036 2285     		mv	a0,s0
 373 0038 13060008 		li	a2,128
 374 003c 97000000 		call	memcpy
 374      E7800000 
 375              	.LVL30:
 153:./../../firmware/debugger/debugger_core.c **** }
 376              		.loc 1 153 1
 377 0044 2285     		mv	a0,s0
 378 0046 BA40     		lw	ra,140(sp)
 379              		.cfi_restore 1
 380 0048 2A44     		lw	s0,136(sp)
 381              		.cfi_restore 8
 382              	.LVL31:
 383 004a 9A44     		lw	s1,132(sp)
 384              		.cfi_restore 9
 385              	.LVL32:
 386 004c 4961     		addi	sp,sp,144
 387              	.LCFI7:
 388              		.cfi_def_cfa_offset 0
 389 004e 8280     		jr	ra
 390              		.cfi_endproc
 391              	.LFE9:
 393              		.section	.text.instruction_executed_before,"ax",@progbits
 394              		.align	1
 395              		.globl	instruction_executed_before
 397              	instruction_executed_before:
 398              	.LFB10:
 154:./../../firmware/debugger/debugger_core.c **** #define DBG_OPCODE_MASK 0x7F
 155:./../../firmware/debugger/debugger_core.c **** #define DBG_OPCODE_CEXT_MASK 0xE003
 156:./../../firmware/debugger/debugger_core.c **** #define DBG_OPCODE_STORE 0x23
 157:./../../firmware/debugger/debugger_core.c **** #define DBG_OPCODE_LOAD 0x03
 158:./../../firmware/debugger/debugger_core.c **** #define DBG_OPCODE_C_LWSP 0x4002
 159:./../../firmware/debugger/debugger_core.c **** #define DBG_OPCODE_C_SWSP 0xC002
 160:./../../firmware/debugger/debugger_core.c **** #define DBG_OPCODE_C_LW   0x4000
 161:./../../firmware/debugger/debugger_core.c **** #define DBG_OPCODE_C_SW   0xC000
 162:./../../firmware/debugger/debugger_core.c **** uint32_t instruction_executed_before(uint32_t instruction){
 399              		.loc 1 162 59 is_stmt 1
GAS LISTING C:\Users\marwz\AppData\Local\Temp\ccDVLJoD.s 			page 12


 400              		.cfi_startproc
 401              	.LVL33:
 163:./../../firmware/debugger/debugger_core.c ****     
 164:./../../firmware/debugger/debugger_core.c ****     //Load   - true
 165:./../../firmware/debugger/debugger_core.c ****     //Store  - true
 166:./../../firmware/debugger/debugger_core.c ****     if((instruction & DBG_OPCODE_MASK) == DBG_OPCODE_STORE) return 1;
 402              		.loc 1 166 5
 167:./../../firmware/debugger/debugger_core.c ****     if((instruction & DBG_OPCODE_MASK) == DBG_OPCODE_LOAD) return 1;
 403              		.loc 1 167 5
 404              		.loc 1 167 7 is_stmt 0
 405 0000 1377F505 		andi	a4,a0,95
 406 0004 8D47     		li	a5,3
 407 0006 630AF700 		beq	a4,a5,.L33
 408              	.LVL34:
 409              	.LBB23:
 410              	.LBB24:
 168:./../../firmware/debugger/debugger_core.c ****     
 169:./../../firmware/debugger/debugger_core.c ****     //Compressed instructions
 170:./../../firmware/debugger/debugger_core.c ****     if((instruction & DBG_OPCODE_CEXT_MASK) == DBG_OPCODE_C_LWSP) return 1;
 411              		.loc 1 170 5 is_stmt 1
 171:./../../firmware/debugger/debugger_core.c ****     if((instruction & DBG_OPCODE_CEXT_MASK) == DBG_OPCODE_C_SWSP) return 1;
 412              		.loc 1 171 5
 172:./../../firmware/debugger/debugger_core.c ****     if((instruction & DBG_OPCODE_CEXT_MASK) == DBG_OPCODE_C_LW) return 1;
 413              		.loc 1 172 5
 414              		.loc 1 172 7 is_stmt 0
 415 000a 9967     		li	a5,24576
 416 000c 8507     		addi	a5,a5,1
 417 000e 7D8D     		and	a0,a0,a5
 418              	.LVL35:
 419 0010 F177     		li	a5,-16384
 420 0012 3E95     		add	a0,a0,a5
 421 0014 13351500 		seqz	a0,a0
 422 0018 8280     		ret
 423              	.LVL36:
 424              	.L33:
 425              	.LBE24:
 426              	.LBE23:
 167:./../../firmware/debugger/debugger_core.c ****     
 427              		.loc 1 167 67
 428 001a 0545     		li	a0,1
 429              	.LVL37:
 173:./../../firmware/debugger/debugger_core.c ****     if((instruction & DBG_OPCODE_CEXT_MASK) == DBG_OPCODE_C_SW) return 1;
 174:./../../firmware/debugger/debugger_core.c ****     
 175:./../../firmware/debugger/debugger_core.c ****     //These should not be able to cause side effects, so default to safest behavior
 176:./../../firmware/debugger/debugger_core.c ****     //auipc  - D/C 
 177:./../../firmware/debugger/debugger_core.c ****     //lui    - D/C
 178:./../../firmware/debugger/debugger_core.c **** 
 179:./../../firmware/debugger/debugger_core.c ****     //Arith  - false
 180:./../../firmware/debugger/debugger_core.c ****     //Jump   - false
 181:./../../firmware/debugger/debugger_core.c ****     //Branch - false
 182:./../../firmware/debugger/debugger_core.c ****     //CSR    - false
 183:./../../firmware/debugger/debugger_core.c **** 
 184:./../../firmware/debugger/debugger_core.c ****     return 0;
 185:./../../firmware/debugger/debugger_core.c **** }
 430              		.loc 1 185 1
 431 001c 8280     		ret
 432              		.cfi_endproc
GAS LISTING C:\Users\marwz\AppData\Local\Temp\ccDVLJoD.s 			page 13


 433              	.LFE10:
 435              		.section	.text.predict_next_instruction,"ax",@progbits
 436              		.align	1
 437              		.globl	predict_next_instruction
 439              	predict_next_instruction:
 440              	.LFB11:
 186:./../../firmware/debugger/debugger_core.c **** 
 187:./../../firmware/debugger/debugger_core.c **** uintptr_t predict_next_instruction(uintptr_t pc, registerfile_t reg_state)
 188:./../../firmware/debugger/debugger_core.c **** {
 441              		.loc 1 188 1 is_stmt 1
 442              		.cfi_startproc
 443              	.LVL38:
 189:./../../firmware/debugger/debugger_core.c ****     uint32_t instruction = *((uint32_t*)pc);
 444              		.loc 1 189 5
 445              		.loc 1 189 14 is_stmt 0
 446 0000 1C41     		lw	a5,0(a0)
 447              	.LVL39:
 190:./../../firmware/debugger/debugger_core.c ****     int32_t immediate = 0;
 448              		.loc 1 190 5 is_stmt 1
 191:./../../firmware/debugger/debugger_core.c ****     uint32_t opcode = 0;
 449              		.loc 1 191 5
 192:./../../firmware/debugger/debugger_core.c ****     uint32_t rs1, rs2 = 0;
 450              		.loc 1 192 5
 193:./../../firmware/debugger/debugger_core.c **** 
 194:./../../firmware/debugger/debugger_core.c ****     if ((instruction & 3) == 3) {
 451              		.loc 1 194 5
 452              		.loc 1 194 8 is_stmt 0
 453 0002 0D47     		li	a4,3
 454              		.loc 1 194 22
 455 0004 93F63700 		andi	a3,a5,3
 456              		.loc 1 194 8
 457 0008 6391E616 		bne	a3,a4,.L35
 195:./../../firmware/debugger/debugger_core.c ****        //Normal instruction
 196:./../../firmware/debugger/debugger_core.c ****         if ((instruction & 0x63) == 0x63) {
 458              		.loc 1 196 9 is_stmt 1
 459              		.loc 1 196 26 is_stmt 0
 460 000c 13F73706 		andi	a4,a5,99
 461              		.loc 1 196 12
 462 0010 13063006 		li	a2,99
 463 0014 631DC710 		bne	a4,a2,.L36
 197:./../../firmware/debugger/debugger_core.c ****             //Jump instruction
 198:./../../firmware/debugger/debugger_core.c ****             switch ((instruction >> 2) & 0x7) {
 464              		.loc 1 198 13 is_stmt 1
 465              		.loc 1 198 34 is_stmt 0
 466 0018 13D72700 		srli	a4,a5,2
 467              		.loc 1 198 40
 468 001c 1D8B     		andi	a4,a4,7
 469              		.loc 1 198 13
 470 001e 0546     		li	a2,1
 471 0020 6309C70E 		beq	a4,a2,.L37
 472 0024 09C7     		beq	a4,zero,.L38
 473 0026 6300D70C 		beq	a4,a3,.L39
 474              	.LVL40:
 475              	.L40:
 199:./../../firmware/debugger/debugger_core.c ****             case 0: //Branch
 200:./../../firmware/debugger/debugger_core.c ****                 immediate = (instruction >> 7) & 0x1E;
 201:./../../firmware/debugger/debugger_core.c ****                 immediate |= (instruction >> 20) & 0x7e0;
GAS LISTING C:\Users\marwz\AppData\Local\Temp\ccDVLJoD.s 			page 14


 202:./../../firmware/debugger/debugger_core.c ****                 immediate |= (instruction << 4) & 0x800;
 203:./../../firmware/debugger/debugger_core.c ****                 if (instruction & 0x80000000) immediate |= 0xFFFFF000;
 204:./../../firmware/debugger/debugger_core.c **** 
 205:./../../firmware/debugger/debugger_core.c ****                 rs1 = (instruction >> 15) & 0x1F;
 206:./../../firmware/debugger/debugger_core.c ****                 rs2 = (instruction >> 20) & 0x1F;
 207:./../../firmware/debugger/debugger_core.c **** 
 208:./../../firmware/debugger/debugger_core.c ****                 switch (((instruction >> 12) & 0x7)) {
 209:./../../firmware/debugger/debugger_core.c ****                 case 0: //BEQ
 210:./../../firmware/debugger/debugger_core.c ****                     if (reg_state.x[rs1] == reg_state.x[rs2]) return pc + immediate;
 211:./../../firmware/debugger/debugger_core.c ****                     else return pc + 4;
 212:./../../firmware/debugger/debugger_core.c ****                 case 1: //BNE
 213:./../../firmware/debugger/debugger_core.c ****                     if (reg_state.x[rs1] != reg_state.x[rs2]) return pc + immediate;
 214:./../../firmware/debugger/debugger_core.c ****                     else return pc + 4;
 215:./../../firmware/debugger/debugger_core.c ****                 case 2: case 3: return pc + 4; //Illegal
 476              		.loc 1 215 33 is_stmt 1
 477              		.loc 1 215 43 is_stmt 0
 478 002a 1105     		addi	a0,a0,4
 479              	.LVL41:
 480 002c 8280     		ret
 481              	.LVL42:
 482              	.L38:
 200:./../../firmware/debugger/debugger_core.c ****                 immediate |= (instruction >> 20) & 0x7e0;
 483              		.loc 1 200 17 is_stmt 1
 201:./../../firmware/debugger/debugger_core.c ****                 immediate |= (instruction << 4) & 0x800;
 484              		.loc 1 201 17
 202:./../../firmware/debugger/debugger_core.c ****                 if (instruction & 0x80000000) immediate |= 0xFFFFF000;
 485              		.loc 1 202 49 is_stmt 0
 486 002e 8566     		li	a3,4096
 487 0030 93860680 		addi	a3,a3,-2048
 201:./../../firmware/debugger/debugger_core.c ****                 immediate |= (instruction << 4) & 0x800;
 488              		.loc 1 201 43
 489 0034 13D74701 		srli	a4,a5,20
 490              	.LVL43:
 202:./../../firmware/debugger/debugger_core.c ****                 if (instruction & 0x80000000) immediate |= 0xFFFFF000;
 491              		.loc 1 202 17 is_stmt 1
 202:./../../firmware/debugger/debugger_core.c ****                 if (instruction & 0x80000000) immediate |= 0xFFFFF000;
 492              		.loc 1 202 43 is_stmt 0
 493 0038 13964700 		slli	a2,a5,4
 202:./../../firmware/debugger/debugger_core.c ****                 if (instruction & 0x80000000) immediate |= 0xFFFFF000;
 494              		.loc 1 202 49
 495 003c 758E     		and	a2,a2,a3
 201:./../../firmware/debugger/debugger_core.c ****                 immediate |= (instruction << 4) & 0x800;
 496              		.loc 1 201 50
 497 003e 9376077E 		andi	a3,a4,2016
 202:./../../firmware/debugger/debugger_core.c ****                 if (instruction & 0x80000000) immediate |= 0xFFFFF000;
 498              		.loc 1 202 27
 499 0042 558E     		or	a2,a2,a3
 200:./../../firmware/debugger/debugger_core.c ****                 immediate |= (instruction >> 20) & 0x7e0;
 500              		.loc 1 200 42
 501 0044 93D67700 		srli	a3,a5,7
 200:./../../firmware/debugger/debugger_core.c ****                 immediate |= (instruction >> 20) & 0x7e0;
 502              		.loc 1 200 27
 503 0048 F98A     		andi	a3,a3,30
 202:./../../firmware/debugger/debugger_core.c ****                 if (instruction & 0x80000000) immediate |= 0xFFFFF000;
 504              		.loc 1 202 27
 505 004a 558E     		or	a2,a2,a3
 506              	.LVL44:
GAS LISTING C:\Users\marwz\AppData\Local\Temp\ccDVLJoD.s 			page 15


 203:./../../firmware/debugger/debugger_core.c **** 
 507              		.loc 1 203 17 is_stmt 1
 203:./../../firmware/debugger/debugger_core.c **** 
 508              		.loc 1 203 20 is_stmt 0
 509 004c 63D40700 		bge	a5,zero,.L41
 203:./../../firmware/debugger/debugger_core.c **** 
 510              		.loc 1 203 47 is_stmt 1 discriminator 1
 203:./../../firmware/debugger/debugger_core.c **** 
 511              		.loc 1 203 57 is_stmt 0 discriminator 1
 512 0050 FD76     		li	a3,-4096
 513 0052 558E     		or	a2,a2,a3
 514              	.LVL45:
 515              	.L41:
 205:./../../firmware/debugger/debugger_core.c ****                 rs2 = (instruction >> 20) & 0x1F;
 516              		.loc 1 205 17 is_stmt 1
 205:./../../firmware/debugger/debugger_core.c ****                 rs2 = (instruction >> 20) & 0x1F;
 517              		.loc 1 205 36 is_stmt 0
 518 0054 93D6F700 		srli	a3,a5,15
 208:./../../firmware/debugger/debugger_core.c ****                 case 0: //BEQ
 519              		.loc 1 208 39
 520 0058 B183     		srli	a5,a5,12
 521              	.LVL46:
 208:./../../firmware/debugger/debugger_core.c ****                 case 0: //BEQ
 522              		.loc 1 208 46
 523 005a 9D8B     		andi	a5,a5,7
 524 005c FD17     		addi	a5,a5,-1
 525 005e 1948     		li	a6,6
 205:./../../firmware/debugger/debugger_core.c ****                 rs2 = (instruction >> 20) & 0x1F;
 526              		.loc 1 205 21
 527 0060 FD8A     		andi	a3,a3,31
 528              	.LVL47:
 206:./../../firmware/debugger/debugger_core.c **** 
 529              		.loc 1 206 17 is_stmt 1
 206:./../../firmware/debugger/debugger_core.c **** 
 530              		.loc 1 206 21 is_stmt 0
 531 0062 7D8B     		andi	a4,a4,31
 532              	.LVL48:
 208:./../../firmware/debugger/debugger_core.c ****                 case 0: //BEQ
 533              		.loc 1 208 17 is_stmt 1
 534 0064 636AF800 		bgtu	a5,a6,.L42
 535 0068 37080000 		lui	a6,%hi(.L44)
 536 006c 8A07     		slli	a5,a5,2
 537 006e 13080800 		addi	a6,a6,%lo(.L44)
 538 0072 C297     		add	a5,a5,a6
 539 0074 9C43     		lw	a5,0(a5)
 540 0076 8287     		jr	a5
 541              		.section	.rodata.predict_next_instruction,"a",@progbits
 542              		.align	2
 543              		.align	2
 544              	.L44:
 545 0000 00000000 		.word	.L48
 546 0004 00000000 		.word	.L40
 547 0008 00000000 		.word	.L40
 548 000c 00000000 		.word	.L47
 549 0010 00000000 		.word	.L46
 550 0014 00000000 		.word	.L45
 551 0018 00000000 		.word	.L43
GAS LISTING C:\Users\marwz\AppData\Local\Temp\ccDVLJoD.s 			page 16


 552              		.section	.text.predict_next_instruction
 553              	.L42:
 210:./../../firmware/debugger/debugger_core.c ****                     else return pc + 4;
 554              		.loc 1 210 21
 210:./../../firmware/debugger/debugger_core.c ****                     else return pc + 4;
 555              		.loc 1 210 36 is_stmt 0
 556 0078 8A06     		slli	a3,a3,2
 557              	.LVL49:
 210:./../../firmware/debugger/debugger_core.c ****                     else return pc + 4;
 558              		.loc 1 210 56
 559 007a 0A07     		slli	a4,a4,2
 560              	.LVL50:
 210:./../../firmware/debugger/debugger_core.c ****                     else return pc + 4;
 561              		.loc 1 210 36
 562 007c AE96     		add	a3,a1,a3
 210:./../../firmware/debugger/debugger_core.c ****                     else return pc + 4;
 563              		.loc 1 210 56
 564 007e 2E97     		add	a4,a1,a4
 210:./../../firmware/debugger/debugger_core.c ****                     else return pc + 4;
 565              		.loc 1 210 24
 566 0080 9442     		lw	a3,0(a3)
 567 0082 1C43     		lw	a5,0(a4)
 568 0084 E393F6FA 		bne	a3,a5,.L40
 569              	.L88:
 216:./../../firmware/debugger/debugger_core.c ****                 case 4: //BLT
 217:./../../firmware/debugger/debugger_core.c ****                     if (reg_state.x[rs1] < reg_state.x[rs2]) return pc + immediate;
 218:./../../firmware/debugger/debugger_core.c ****                     else return pc + 4;
 219:./../../firmware/debugger/debugger_core.c ****                 case 5: //BGE
 220:./../../firmware/debugger/debugger_core.c ****                     if (reg_state.x[rs1] >= reg_state.x[rs2]) return pc + immediate;
 221:./../../firmware/debugger/debugger_core.c ****                     else return pc + 4;
 222:./../../firmware/debugger/debugger_core.c ****                 case 6: //BLTU
 223:./../../firmware/debugger/debugger_core.c ****                     if ((uint32_t)reg_state.x[rs1] < (uint32_t)reg_state.x[rs2]) 
 224:./../../firmware/debugger/debugger_core.c ****                         return pc + immediate;
 225:./../../firmware/debugger/debugger_core.c ****                     else return pc + 4;
 226:./../../firmware/debugger/debugger_core.c ****                 case 7: //BGEU
 227:./../../firmware/debugger/debugger_core.c ****                     if ((uint32_t)reg_state.x[rs1] >= (uint32_t)reg_state.x[rs2]) 
 228:./../../firmware/debugger/debugger_core.c ****                         return pc + immediate;
 570              		.loc 1 228 25 is_stmt 1
 571              		.loc 1 228 35 is_stmt 0
 572 0088 3295     		add	a0,a0,a2
 573              	.LVL51:
 574 008a 8280     		ret
 575              	.LVL52:
 576              	.L48:
 213:./../../firmware/debugger/debugger_core.c ****                     else return pc + 4;
 577              		.loc 1 213 21 is_stmt 1
 213:./../../firmware/debugger/debugger_core.c ****                     else return pc + 4;
 578              		.loc 1 213 36 is_stmt 0
 579 008c 8A06     		slli	a3,a3,2
 580              	.LVL53:
 213:./../../firmware/debugger/debugger_core.c ****                     else return pc + 4;
 581              		.loc 1 213 56
 582 008e 0A07     		slli	a4,a4,2
 583              	.LVL54:
 213:./../../firmware/debugger/debugger_core.c ****                     else return pc + 4;
 584              		.loc 1 213 36
 585 0090 AE96     		add	a3,a1,a3
GAS LISTING C:\Users\marwz\AppData\Local\Temp\ccDVLJoD.s 			page 17


 213:./../../firmware/debugger/debugger_core.c ****                     else return pc + 4;
 586              		.loc 1 213 56
 587 0092 2E97     		add	a4,a1,a4
 213:./../../firmware/debugger/debugger_core.c ****                     else return pc + 4;
 588              		.loc 1 213 24
 589 0094 9442     		lw	a3,0(a3)
 590 0096 1C43     		lw	a5,0(a4)
 591 0098 E398F6FE 		bne	a3,a5,.L88
 592 009c 79B7     		j	.L40
 593              	.LVL55:
 594              	.L47:
 217:./../../firmware/debugger/debugger_core.c ****                     else return pc + 4;
 595              		.loc 1 217 21 is_stmt 1
 217:./../../firmware/debugger/debugger_core.c ****                     else return pc + 4;
 596              		.loc 1 217 36 is_stmt 0
 597 009e 8A06     		slli	a3,a3,2
 598              	.LVL56:
 217:./../../firmware/debugger/debugger_core.c ****                     else return pc + 4;
 599              		.loc 1 217 55
 600 00a0 0A07     		slli	a4,a4,2
 601              	.LVL57:
 217:./../../firmware/debugger/debugger_core.c ****                     else return pc + 4;
 602              		.loc 1 217 36
 603 00a2 AE96     		add	a3,a1,a3
 217:./../../firmware/debugger/debugger_core.c ****                     else return pc + 4;
 604              		.loc 1 217 55
 605 00a4 2E97     		add	a4,a1,a4
 217:./../../firmware/debugger/debugger_core.c ****                     else return pc + 4;
 606              		.loc 1 217 24
 607 00a6 9442     		lw	a3,0(a3)
 608 00a8 1C43     		lw	a5,0(a4)
 609 00aa E3D0F6F8 		bge	a3,a5,.L40
 610 00ae E9BF     		j	.L88
 611              	.LVL58:
 612              	.L46:
 220:./../../firmware/debugger/debugger_core.c ****                     else return pc + 4;
 613              		.loc 1 220 21 is_stmt 1
 220:./../../firmware/debugger/debugger_core.c ****                     else return pc + 4;
 614              		.loc 1 220 36 is_stmt 0
 615 00b0 8A06     		slli	a3,a3,2
 616              	.LVL59:
 220:./../../firmware/debugger/debugger_core.c ****                     else return pc + 4;
 617              		.loc 1 220 56
 618 00b2 0A07     		slli	a4,a4,2
 619              	.LVL60:
 220:./../../firmware/debugger/debugger_core.c ****                     else return pc + 4;
 620              		.loc 1 220 36
 621 00b4 AE96     		add	a3,a1,a3
 220:./../../firmware/debugger/debugger_core.c ****                     else return pc + 4;
 622              		.loc 1 220 56
 623 00b6 2E97     		add	a4,a1,a4
 220:./../../firmware/debugger/debugger_core.c ****                     else return pc + 4;
 624              		.loc 1 220 24
 625 00b8 9442     		lw	a3,0(a3)
 626 00ba 1C43     		lw	a5,0(a4)
 627 00bc E3C7F6F6 		blt	a3,a5,.L40
 628 00c0 E1B7     		j	.L88
GAS LISTING C:\Users\marwz\AppData\Local\Temp\ccDVLJoD.s 			page 18


 629              	.LVL61:
 630              	.L45:
 223:./../../firmware/debugger/debugger_core.c ****                         return pc + immediate;
 631              		.loc 1 223 21 is_stmt 1
 223:./../../firmware/debugger/debugger_core.c ****                         return pc + immediate;
 632              		.loc 1 223 46 is_stmt 0
 633 00c2 8A06     		slli	a3,a3,2
 634              	.LVL62:
 223:./../../firmware/debugger/debugger_core.c ****                         return pc + immediate;
 635              		.loc 1 223 75
 636 00c4 0A07     		slli	a4,a4,2
 637              	.LVL63:
 223:./../../firmware/debugger/debugger_core.c ****                         return pc + immediate;
 638              		.loc 1 223 46
 639 00c6 AE96     		add	a3,a1,a3
 223:./../../firmware/debugger/debugger_core.c ****                         return pc + immediate;
 640              		.loc 1 223 75
 641 00c8 2E97     		add	a4,a1,a4
 223:./../../firmware/debugger/debugger_core.c ****                         return pc + immediate;
 642              		.loc 1 223 24
 643 00ca 9442     		lw	a3,0(a3)
 644 00cc 1C43     		lw	a5,0(a4)
 645 00ce E3FEF6F4 		bgeu	a3,a5,.L40
 646 00d2 5DBF     		j	.L88
 647              	.LVL64:
 648              	.L43:
 227:./../../firmware/debugger/debugger_core.c ****                         return pc + immediate;
 649              		.loc 1 227 21 is_stmt 1
 227:./../../firmware/debugger/debugger_core.c ****                         return pc + immediate;
 650              		.loc 1 227 46 is_stmt 0
 651 00d4 8A06     		slli	a3,a3,2
 652              	.LVL65:
 227:./../../firmware/debugger/debugger_core.c ****                         return pc + immediate;
 653              		.loc 1 227 76
 654 00d6 0A07     		slli	a4,a4,2
 655              	.LVL66:
 227:./../../firmware/debugger/debugger_core.c ****                         return pc + immediate;
 656              		.loc 1 227 46
 657 00d8 AE96     		add	a3,a1,a3
 227:./../../firmware/debugger/debugger_core.c ****                         return pc + immediate;
 658              		.loc 1 227 76
 659 00da 2E97     		add	a4,a1,a4
 227:./../../firmware/debugger/debugger_core.c ****                         return pc + immediate;
 660              		.loc 1 227 24
 661 00dc 9442     		lw	a3,0(a3)
 662 00de 1C43     		lw	a5,0(a4)
 663 00e0 E3E5F6F4 		bltu	a3,a5,.L40
 664 00e4 55B7     		j	.L88
 665              	.LVL67:
 666              	.L39:
 229:./../../firmware/debugger/debugger_core.c ****                     else return pc + 4;
 230:./../../firmware/debugger/debugger_core.c ****                 }
 231:./../../firmware/debugger/debugger_core.c ****                 return pc + 4;
 232:./../../firmware/debugger/debugger_core.c **** 
 233:./../../firmware/debugger/debugger_core.c **** 
 234:./../../firmware/debugger/debugger_core.c ****                 break;
 667              		.loc 1 234 17 is_stmt 1
GAS LISTING C:\Users\marwz\AppData\Local\Temp\ccDVLJoD.s 			page 19


 235:./../../firmware/debugger/debugger_core.c ****             case 3: //JAL
 236:./../../firmware/debugger/debugger_core.c ****                 immediate = (instruction >> 20) & 0x007FE;
 668              		.loc 1 236 17
 237:./../../firmware/debugger/debugger_core.c ****                 immediate |= (instruction >> 9) & 0x00800;
 669              		.loc 1 237 17
 238:./../../firmware/debugger/debugger_core.c ****                 immediate |= instruction        & 0xFF000;
 670              		.loc 1 238 17
 237:./../../firmware/debugger/debugger_core.c ****                 immediate |= (instruction >> 9) & 0x00800;
 671              		.loc 1 237 49 is_stmt 0
 672 00e6 8566     		li	a3,4096
 673 00e8 93860680 		addi	a3,a3,-2048
 237:./../../firmware/debugger/debugger_core.c ****                 immediate |= (instruction >> 9) & 0x00800;
 674              		.loc 1 237 43
 675 00ec 13D79700 		srli	a4,a5,9
 237:./../../firmware/debugger/debugger_core.c ****                 immediate |= (instruction >> 9) & 0x00800;
 676              		.loc 1 237 49
 677 00f0 758F     		and	a4,a4,a3
 678              		.loc 1 238 49
 679 00f2 B7F60F00 		li	a3,1044480
 680 00f6 FD8E     		and	a3,a5,a3
 681              		.loc 1 238 27
 682 00f8 558F     		or	a4,a4,a3
 236:./../../firmware/debugger/debugger_core.c ****                 immediate |= (instruction >> 9) & 0x00800;
 683              		.loc 1 236 42
 684 00fa 93D64701 		srli	a3,a5,20
 236:./../../firmware/debugger/debugger_core.c ****                 immediate |= (instruction >> 9) & 0x00800;
 685              		.loc 1 236 27
 686 00fe 93F6E67F 		andi	a3,a3,2046
 687              		.loc 1 238 27
 688 0102 558F     		or	a4,a4,a3
 689              	.LVL68:
 239:./../../firmware/debugger/debugger_core.c ****                 if (instruction & 0x80000000) immediate = (uint32_t) immediate | 0xFFF00000;
 690              		.loc 1 239 17 is_stmt 1
 691              		.loc 1 239 20 is_stmt 0
 692 0104 63D50700 		bge	a5,zero,.L51
 693              		.loc 1 239 47 is_stmt 1 discriminator 1
 694              		.loc 1 239 80 is_stmt 0 discriminator 1
 695 0108 B707F0FF 		li	a5,-1048576
 696              	.LVL69:
 697 010c 5D8F     		or	a4,a4,a5
 698              	.LVL70:
 699              	.L51:
 240:./../../firmware/debugger/debugger_core.c ****                 return pc + immediate;
 700              		.loc 1 240 17 is_stmt 1
 701              		.loc 1 240 27 is_stmt 0
 702 010e 3A95     		add	a0,a0,a4
 703              	.LVL71:
 704 0110 8280     		ret
 705              	.LVL72:
 706              	.L37:
 241:./../../firmware/debugger/debugger_core.c ****             case 1: //JALR
 242:./../../firmware/debugger/debugger_core.c ****                 immediate = (instruction >> 20) & 0xFFF;
 707              		.loc 1 242 17 is_stmt 1
 708              		.loc 1 242 42 is_stmt 0
 709 0112 13D54701 		srli	a0,a5,20
 710              	.LVL73:
 243:./../../firmware/debugger/debugger_core.c ****                 if (instruction & 0x80000000) immediate |= 0xFFFFF000;
GAS LISTING C:\Users\marwz\AppData\Local\Temp\ccDVLJoD.s 			page 20


 711              		.loc 1 243 17 is_stmt 1
 712              		.loc 1 243 20 is_stmt 0
 713 0116 63D40700 		bge	a5,zero,.L52
 714              		.loc 1 243 47 is_stmt 1 discriminator 1
 715              		.loc 1 243 57 is_stmt 0 discriminator 1
 716 011a 7D77     		li	a4,-4096
 717 011c 598D     		or	a0,a0,a4
 718              	.LVL74:
 719              	.L52:
 244:./../../firmware/debugger/debugger_core.c ****                 rs1 = (instruction >> 15) & 0x1F;
 720              		.loc 1 244 17 is_stmt 1
 245:./../../firmware/debugger/debugger_core.c ****                    
 246:./../../firmware/debugger/debugger_core.c ****                 return immediate + reg_state.x[rs1];
 721              		.loc 1 246 17
 244:./../../firmware/debugger/debugger_core.c ****                 rs1 = (instruction >> 15) & 0x1F;
 722              		.loc 1 244 21 is_stmt 0
 723 011e 13D7D700 		srli	a4,a5,13
 724              		.loc 1 246 47
 725 0122 1377C707 		andi	a4,a4,124
 726 0126 2E97     		add	a4,a1,a4
 727              		.loc 1 246 34
 728 0128 1C43     		lw	a5,0(a4)
 729              	.LVL75:
 730              	.L64:
 731              	.LBB25:
 247:./../../firmware/debugger/debugger_core.c ****             case 4: //CSR, EBREAK, ECALL, FENCE
 248:./../../firmware/debugger/debugger_core.c ****                     //TODO: Not sure what to do here, will let it fall through for now
 249:./../../firmware/debugger/debugger_core.c ****             default://Illegal instruction
 250:./../../firmware/debugger/debugger_core.c ****                 return pc + 4;
 251:./../../firmware/debugger/debugger_core.c ****             }
 252:./../../firmware/debugger/debugger_core.c ****         }
 253:./../../firmware/debugger/debugger_core.c ****         if((instruction & 0x00200073) == 0x00200073){
 254:./../../firmware/debugger/debugger_core.c ****             //URET, MRET, SRET, HRET
 255:./../../firmware/debugger/debugger_core.c ****             //Return from interrupt, MRET is really the only one that should happen but to be safe.
 256:./../../firmware/debugger/debugger_core.c ****             switch (instruction >> 24){
 257:./../../firmware/debugger/debugger_core.c ****                 case 0: //URET
 258:./../../firmware/debugger/debugger_core.c ****                     return read_csr(uepc);
 259:./../../firmware/debugger/debugger_core.c ****                 break;
 260:./../../firmware/debugger/debugger_core.c ****                 case 1: //SRET
 261:./../../firmware/debugger/debugger_core.c ****                     return read_csr(sepc);
 262:./../../firmware/debugger/debugger_core.c ****                 break;
 263:./../../firmware/debugger/debugger_core.c ****                 case 2: //HRET
 264:./../../firmware/debugger/debugger_core.c ****                     return read_csr(hepc);
 265:./../../firmware/debugger/debugger_core.c ****                 break;
 266:./../../firmware/debugger/debugger_core.c ****                 case 3: //MRET
 267:./../../firmware/debugger/debugger_core.c ****                     //TODO: This implementation is wrong... would only get the the current instruct
 268:./../../firmware/debugger/debugger_core.c ****                     //Assume we are returning from an interrupt
 269:./../../firmware/debugger/debugger_core.c ****                     //So interrupts should "check in" their state and the debugger will check for a
 270:./../../firmware/debugger/debugger_core.c ****                     //This WILL add some additional latency to the interrupt service, but make them
 271:./../../firmware/debugger/debugger_core.c ****                     //Can we somehow ignore the added parts??
 272:./../../firmware/debugger/debugger_core.c ****                     //Using some signal to tell the debugger that is should ignore this part?? mayb
 273:./../../firmware/debugger/debugger_core.c ****                     return read_csr(mepc);
 274:./../../firmware/debugger/debugger_core.c ****                 break;
 275:./../../firmware/debugger/debugger_core.c ****             }
 276:./../../firmware/debugger/debugger_core.c **** 
 277:./../../firmware/debugger/debugger_core.c ****         }
 278:./../../firmware/debugger/debugger_core.c ****         //Not a jump, continue with next instruction
GAS LISTING C:\Users\marwz\AppData\Local\Temp\ccDVLJoD.s 			page 21


 279:./../../firmware/debugger/debugger_core.c ****         return pc + 4;
 280:./../../firmware/debugger/debugger_core.c ****     }
 281:./../../firmware/debugger/debugger_core.c ****     else {
 282:./../../firmware/debugger/debugger_core.c ****         //Compressed instruction
 283:./../../firmware/debugger/debugger_core.c ****         uint32_t rs1 = 0;
 284:./../../firmware/debugger/debugger_core.c ****         if ((instruction & 3) == 0) return pc + 2; //No flow control instructions in Q0
 285:./../../firmware/debugger/debugger_core.c ****         if ((instruction & 3) == 1) { //Quadrant 1
 286:./../../firmware/debugger/debugger_core.c ****             opcode = (instruction >> 12) & 0xF;
 287:./../../firmware/debugger/debugger_core.c ****             switch (opcode >> 1) {        
 288:./../../firmware/debugger/debugger_core.c ****             case 1: case 5: //J//JAL
 289:./../../firmware/debugger/debugger_core.c ****                 immediate  = (instruction >> 1) & 0xB40;
 290:./../../firmware/debugger/debugger_core.c ****                 immediate |= (instruction >> 2) & 0x00E;
 291:./../../firmware/debugger/debugger_core.c ****                 immediate |= (instruction >> 7) & 0x010;
 292:./../../firmware/debugger/debugger_core.c ****                 immediate |= (instruction << 2) & 0x400;
 293:./../../firmware/debugger/debugger_core.c ****                 immediate |= (instruction << 1) & 0x080;
 294:./../../firmware/debugger/debugger_core.c ****                 immediate |= (instruction << 3) & 0x020;
 295:./../../firmware/debugger/debugger_core.c ****                 if(immediate & 0x800) immediate |= 0xFFFFF000;
 296:./../../firmware/debugger/debugger_core.c ****                 return pc + immediate;
 732              		.loc 1 296 17 is_stmt 1
 733              		.loc 1 296 27 is_stmt 0
 734 012a 3E95     		add	a0,a5,a0
 735 012c 8280     		ret
 736              	.LVL76:
 737              	.L36:
 738              	.LBE25:
 253:./../../firmware/debugger/debugger_core.c ****             //URET, MRET, SRET, HRET
 739              		.loc 1 253 9 is_stmt 1
 253:./../../firmware/debugger/debugger_core.c ****             //URET, MRET, SRET, HRET
 740              		.loc 1 253 25 is_stmt 0
 741 012e 37072000 		li	a4,2097152
 742 0132 13073707 		addi	a4,a4,115
 743 0136 33F6E700 		and	a2,a5,a4
 253:./../../firmware/debugger/debugger_core.c ****             //URET, MRET, SRET, HRET
 744              		.loc 1 253 11
 745 013a E318E6EE 		bne	a2,a4,.L40
 256:./../../firmware/debugger/debugger_core.c ****                 case 0: //URET
 746              		.loc 1 256 13 is_stmt 1
 256:./../../firmware/debugger/debugger_core.c ****                 case 0: //URET
 747              		.loc 1 256 33 is_stmt 0
 748 013e E183     		srli	a5,a5,24
 749              	.LVL77:
 256:./../../firmware/debugger/debugger_core.c ****                 case 0: //URET
 750              		.loc 1 256 13
 751 0140 0547     		li	a4,1
 752 0142 638EE700 		beq	a5,a4,.L53
 753 0146 89CB     		beq	a5,zero,.L54
 754 0148 0947     		li	a4,2
 755 014a 638DE700 		beq	a5,a4,.L55
 756 014e E39ED7EC 		bne	a5,a3,.L40
 265:./../../firmware/debugger/debugger_core.c ****                 case 3: //MRET
 757              		.loc 1 265 17 is_stmt 1
 273:./../../firmware/debugger/debugger_core.c ****                 break;
 758              		.loc 1 273 21
 759              	.LBB26:
 273:./../../firmware/debugger/debugger_core.c ****                 break;
 760              		.loc 1 273 28
 273:./../../firmware/debugger/debugger_core.c ****                 break;
GAS LISTING C:\Users\marwz\AppData\Local\Temp\ccDVLJoD.s 			page 22


 761              		.loc 1 273 28
 762              	 #APP
 763              	# 273 "./../../firmware/debugger/debugger_core.c" 1
 764              		csrr a0, mepc
 765              	# 0 "" 2
 766              	.LVL78:
 273:./../../firmware/debugger/debugger_core.c ****                 break;
 767              		.loc 1 273 28
 768              	 #NO_APP
 769              	.LBE26:
 770 0156 8280     		ret
 771              	.LVL79:
 772              	.L54:
 258:./../../firmware/debugger/debugger_core.c ****                 break;
 773              		.loc 1 258 21
 774              	.LBB27:
 258:./../../firmware/debugger/debugger_core.c ****                 break;
 775              		.loc 1 258 28
 258:./../../firmware/debugger/debugger_core.c ****                 break;
 776              		.loc 1 258 28
 777              	 #APP
 778              	# 258 "./../../firmware/debugger/debugger_core.c" 1
 779              		csrr a0, uepc
 780              	# 0 "" 2
 781              	.LVL80:
 258:./../../firmware/debugger/debugger_core.c ****                 break;
 782              		.loc 1 258 28
 783              	 #NO_APP
 784              	.LBE27:
 785 015c 8280     		ret
 786              	.LVL81:
 787              	.L53:
 259:./../../firmware/debugger/debugger_core.c ****                 case 1: //SRET
 788              		.loc 1 259 17
 261:./../../firmware/debugger/debugger_core.c ****                 break;
 789              		.loc 1 261 21
 790              	.LBB28:
 261:./../../firmware/debugger/debugger_core.c ****                 break;
 791              		.loc 1 261 28
 261:./../../firmware/debugger/debugger_core.c ****                 break;
 792              		.loc 1 261 28
 793              	 #APP
 794              	# 261 "./../../firmware/debugger/debugger_core.c" 1
 795              		csrr a0, sepc
 796              	# 0 "" 2
 797              	.LVL82:
 261:./../../firmware/debugger/debugger_core.c ****                 break;
 798              		.loc 1 261 28
 799              	 #NO_APP
 800              	.LBE28:
 801 0162 8280     		ret
 802              	.LVL83:
 803              	.L55:
 262:./../../firmware/debugger/debugger_core.c ****                 case 2: //HRET
 804              		.loc 1 262 17
 264:./../../firmware/debugger/debugger_core.c ****                 break;
 805              		.loc 1 264 21
GAS LISTING C:\Users\marwz\AppData\Local\Temp\ccDVLJoD.s 			page 23


 806              	.LBB29:
 264:./../../firmware/debugger/debugger_core.c ****                 break;
 807              		.loc 1 264 28
 264:./../../firmware/debugger/debugger_core.c ****                 break;
 808              		.loc 1 264 28
 809              	 #APP
 810              	# 264 "./../../firmware/debugger/debugger_core.c" 1
 811              		csrr a0, hepc
 812              	# 0 "" 2
 813              	.LVL84:
 264:./../../firmware/debugger/debugger_core.c ****                 break;
 814              		.loc 1 264 28
 815              	 #NO_APP
 816              	.LBE29:
 817 0168 8280     		ret
 818              	.LVL85:
 819              	.L35:
 820              	.LBB30:
 283:./../../firmware/debugger/debugger_core.c ****         if ((instruction & 3) == 0) return pc + 2; //No flow control instructions in Q0
 821              		.loc 1 283 9
 284:./../../firmware/debugger/debugger_core.c ****         if ((instruction & 3) == 1) { //Quadrant 1
 822              		.loc 1 284 9
 284:./../../firmware/debugger/debugger_core.c ****         if ((instruction & 3) == 1) { //Quadrant 1
 823              		.loc 1 284 12 is_stmt 0
 824 016a 99E2     		bne	a3,zero,.L57
 825              	.LVL86:
 826              	.L61:
 297:./../../firmware/debugger/debugger_core.c ****                 
 298:./../../firmware/debugger/debugger_core.c ****             case 6: //BEQZ
 299:./../../firmware/debugger/debugger_core.c ****                 immediate  = (instruction >> 4) & 0x100;
 300:./../../firmware/debugger/debugger_core.c ****                 immediate |= (instruction >> 7) & 0x018;
 301:./../../firmware/debugger/debugger_core.c ****                 immediate |= (instruction << 1) & 0x0C0;
 302:./../../firmware/debugger/debugger_core.c ****                 immediate |= (instruction >> 2) & 0x006;
 303:./../../firmware/debugger/debugger_core.c ****                 immediate |= (instruction << 3) & 0x020;
 304:./../../firmware/debugger/debugger_core.c ****                 if (immediate & 0x100) immediate |= 0xFFFFFF00;
 305:./../../firmware/debugger/debugger_core.c ****                 rs1 = ((instruction >> 7) & 7) + 8;
 306:./../../firmware/debugger/debugger_core.c ****                 if (reg_state.x[rs1] == 0) return pc + immediate;
 307:./../../firmware/debugger/debugger_core.c ****                 return pc + 2;
 308:./../../firmware/debugger/debugger_core.c **** 
 309:./../../firmware/debugger/debugger_core.c ****                 case 7: //BNEZ
 310:./../../firmware/debugger/debugger_core.c ****                 immediate  = (instruction >> 4) & 0x100;
 311:./../../firmware/debugger/debugger_core.c ****                 immediate |= (instruction >> 7) & 0x018;
 312:./../../firmware/debugger/debugger_core.c ****                 immediate |= (instruction << 1) & 0x0C0;
 313:./../../firmware/debugger/debugger_core.c ****                 immediate |= (instruction >> 2) & 0x006;
 314:./../../firmware/debugger/debugger_core.c ****                 immediate |= (instruction << 3) & 0x020;
 315:./../../firmware/debugger/debugger_core.c ****                 if(immediate & 0x100) immediate |= 0xFFFFFF00;
 316:./../../firmware/debugger/debugger_core.c ****                 rs1 = ((instruction >> 7) & 7) + 8;
 317:./../../firmware/debugger/debugger_core.c ****                 if (reg_state.x[rs1] != 0) return pc + immediate;
 318:./../../firmware/debugger/debugger_core.c ****                 return pc + 2;
 319:./../../firmware/debugger/debugger_core.c **** 
 320:./../../firmware/debugger/debugger_core.c ****                 default: //Not a jump continue with next instruction
 321:./../../firmware/debugger/debugger_core.c ****                     return pc + 2;
 827              		.loc 1 321 21 is_stmt 1
 828              		.loc 1 321 31 is_stmt 0
 829 016c 0905     		addi	a0,a0,2
 830              	.LVL87:
 831 016e 8280     		ret
GAS LISTING C:\Users\marwz\AppData\Local\Temp\ccDVLJoD.s 			page 24


 832              	.LVL88:
 833              	.L57:
 285:./../../firmware/debugger/debugger_core.c ****             opcode = (instruction >> 12) & 0xF;
 834              		.loc 1 285 9 is_stmt 1
 285:./../../firmware/debugger/debugger_core.c ****             opcode = (instruction >> 12) & 0xF;
 835              		.loc 1 285 12 is_stmt 0
 836 0170 0547     		li	a4,1
 837 0172 6396E60E 		bne	a3,a4,.L58
 286:./../../firmware/debugger/debugger_core.c ****             switch (opcode >> 1) {        
 838              		.loc 1 286 13 is_stmt 1
 839              	.LVL89:
 287:./../../firmware/debugger/debugger_core.c ****             case 1: case 5: //J//JAL
 840              		.loc 1 287 13
 287:./../../firmware/debugger/debugger_core.c ****             case 1: case 5: //J//JAL
 841              		.loc 1 287 28 is_stmt 0
 842 0176 13D7D700 		srli	a4,a5,13
 843 017a 1D8B     		andi	a4,a4,7
 287:./../../firmware/debugger/debugger_core.c ****             case 1: case 5: //J//JAL
 844              		.loc 1 287 13
 845 017c 1546     		li	a2,5
 846 017e 6306C700 		beq	a4,a2,.L59
 847 0182 6367E604 		bgtu	a4,a2,.L60
 848 0186 E313D7FE 		bne	a4,a3,.L61
 849              	.L59:
 289:./../../firmware/debugger/debugger_core.c ****                 immediate |= (instruction >> 2) & 0x00E;
 850              		.loc 1 289 17 is_stmt 1
 851              	.LVL90:
 290:./../../firmware/debugger/debugger_core.c ****                 immediate |= (instruction >> 7) & 0x010;
 852              		.loc 1 290 17
 291:./../../firmware/debugger/debugger_core.c ****                 immediate |= (instruction << 2) & 0x400;
 853              		.loc 1 291 17
 292:./../../firmware/debugger/debugger_core.c ****                 immediate |= (instruction << 1) & 0x080;
 854              		.loc 1 292 17
 293:./../../firmware/debugger/debugger_core.c ****                 immediate |= (instruction << 3) & 0x020;
 855              		.loc 1 293 17
 294:./../../firmware/debugger/debugger_core.c ****                 if(immediate & 0x800) immediate |= 0xFFFFF000;
 856              		.loc 1 294 17
 290:./../../firmware/debugger/debugger_core.c ****                 immediate |= (instruction >> 7) & 0x010;
 857              		.loc 1 290 43 is_stmt 0
 858 018a 13D72700 		srli	a4,a5,2
 291:./../../firmware/debugger/debugger_core.c ****                 immediate |= (instruction << 2) & 0x400;
 859              		.loc 1 291 43
 860 018e 93D67700 		srli	a3,a5,7
 291:./../../firmware/debugger/debugger_core.c ****                 immediate |= (instruction << 2) & 0x400;
 861              		.loc 1 291 49
 862 0192 C18A     		andi	a3,a3,16
 863              	.LVL91:
 290:./../../firmware/debugger/debugger_core.c ****                 immediate |= (instruction >> 7) & 0x010;
 864              		.loc 1 290 49
 865 0194 398B     		andi	a4,a4,14
 294:./../../firmware/debugger/debugger_core.c ****                 if(immediate & 0x800) immediate |= 0xFFFFF000;
 866              		.loc 1 294 27
 867 0196 558F     		or	a4,a4,a3
 292:./../../firmware/debugger/debugger_core.c ****                 immediate |= (instruction << 1) & 0x080;
 868              		.loc 1 292 43
 869 0198 93962700 		slli	a3,a5,2
 870              	.LVL92:
GAS LISTING C:\Users\marwz\AppData\Local\Temp\ccDVLJoD.s 			page 25


 292:./../../firmware/debugger/debugger_core.c ****                 immediate |= (instruction << 1) & 0x080;
 871              		.loc 1 292 49
 872 019c 93F60640 		andi	a3,a3,1024
 873              	.LVL93:
 294:./../../firmware/debugger/debugger_core.c ****                 if(immediate & 0x800) immediate |= 0xFFFFF000;
 874              		.loc 1 294 27
 875 01a0 558F     		or	a4,a4,a3
 293:./../../firmware/debugger/debugger_core.c ****                 immediate |= (instruction << 3) & 0x020;
 876              		.loc 1 293 43
 877 01a2 93961700 		slli	a3,a5,1
 878              	.LVL94:
 293:./../../firmware/debugger/debugger_core.c ****                 immediate |= (instruction << 3) & 0x020;
 879              		.loc 1 293 49
 880 01a6 93F60608 		andi	a3,a3,128
 881              	.LVL95:
 294:./../../firmware/debugger/debugger_core.c ****                 if(immediate & 0x800) immediate |= 0xFFFFF000;
 882              		.loc 1 294 27
 883 01aa 558F     		or	a4,a4,a3
 294:./../../firmware/debugger/debugger_core.c ****                 if(immediate & 0x800) immediate |= 0xFFFFF000;
 884              		.loc 1 294 43
 885 01ac 93963700 		slli	a3,a5,3
 886              	.LVL96:
 294:./../../firmware/debugger/debugger_core.c ****                 if(immediate & 0x800) immediate |= 0xFFFFF000;
 887              		.loc 1 294 49
 888 01b0 93F60602 		andi	a3,a3,32
 294:./../../firmware/debugger/debugger_core.c ****                 if(immediate & 0x800) immediate |= 0xFFFFF000;
 889              		.loc 1 294 27
 890 01b4 558F     		or	a4,a4,a3
 289:./../../firmware/debugger/debugger_core.c ****                 immediate |= (instruction >> 2) & 0x00E;
 891              		.loc 1 289 28
 892 01b6 8566     		li	a3,4096
 893 01b8 138606B4 		addi	a2,a3,-1216
 289:./../../firmware/debugger/debugger_core.c ****                 immediate |= (instruction >> 2) & 0x00E;
 894              		.loc 1 289 43
 895 01bc 8583     		srli	a5,a5,1
 896              	.LVL97:
 289:./../../firmware/debugger/debugger_core.c ****                 immediate |= (instruction >> 2) & 0x00E;
 897              		.loc 1 289 28
 898 01be F18F     		and	a5,a5,a2
 294:./../../firmware/debugger/debugger_core.c ****                 if(immediate & 0x800) immediate |= 0xFFFFF000;
 899              		.loc 1 294 27
 900 01c0 D98F     		or	a5,a4,a5
 901              	.LVL98:
 295:./../../firmware/debugger/debugger_core.c ****                 return pc + immediate;
 902              		.loc 1 295 17 is_stmt 1
 295:./../../firmware/debugger/debugger_core.c ****                 return pc + immediate;
 903              		.loc 1 295 30 is_stmt 0
 904 01c2 93860680 		addi	a3,a3,-2048
 905 01c6 FD8E     		and	a3,a5,a3
 295:./../../firmware/debugger/debugger_core.c ****                 return pc + immediate;
 906              		.loc 1 295 19
 907 01c8 ADD2     		beq	a3,zero,.L64
 295:./../../firmware/debugger/debugger_core.c ****                 return pc + immediate;
 908              		.loc 1 295 39 is_stmt 1 discriminator 1
 295:./../../firmware/debugger/debugger_core.c ****                 return pc + immediate;
 909              		.loc 1 295 49 is_stmt 0 discriminator 1
 910 01ca 7D77     		li	a4,-4096
GAS LISTING C:\Users\marwz\AppData\Local\Temp\ccDVLJoD.s 			page 26


 911 01cc D98F     		or	a5,a5,a4
 912              	.LVL99:
 913 01ce B1BF     		j	.L64
 914              	.LVL100:
 915              	.L60:
 287:./../../firmware/debugger/debugger_core.c ****             case 1: case 5: //J//JAL
 916              		.loc 1 287 13
 917 01d0 9946     		li	a3,6
 918 01d2 6305D704 		beq	a4,a3,.L62
 919 01d6 9D46     		li	a3,7
 920 01d8 E31AD7F8 		bne	a4,a3,.L61
 310:./../../firmware/debugger/debugger_core.c ****                 immediate |= (instruction >> 7) & 0x018;
 921              		.loc 1 310 17 is_stmt 1
 922              	.LVL101:
 311:./../../firmware/debugger/debugger_core.c ****                 immediate |= (instruction << 1) & 0x0C0;
 923              		.loc 1 311 17
 311:./../../firmware/debugger/debugger_core.c ****                 immediate |= (instruction << 1) & 0x0C0;
 924              		.loc 1 311 43 is_stmt 0
 925 01dc 13D77700 		srli	a4,a5,7
 926              	.LVL102:
 312:./../../firmware/debugger/debugger_core.c ****                 immediate |= (instruction >> 2) & 0x006;
 927              		.loc 1 312 17 is_stmt 1
 313:./../../firmware/debugger/debugger_core.c ****                 immediate |= (instruction << 3) & 0x020;
 928              		.loc 1 313 17
 314:./../../firmware/debugger/debugger_core.c ****                 if(immediate & 0x100) immediate |= 0xFFFFFF00;
 929              		.loc 1 314 17
 312:./../../firmware/debugger/debugger_core.c ****                 immediate |= (instruction >> 2) & 0x006;
 930              		.loc 1 312 43 is_stmt 0
 931 01e0 93961700 		slli	a3,a5,1
 311:./../../firmware/debugger/debugger_core.c ****                 immediate |= (instruction << 1) & 0x0C0;
 932              		.loc 1 311 49
 933 01e4 13768701 		andi	a2,a4,24
 312:./../../firmware/debugger/debugger_core.c ****                 immediate |= (instruction >> 2) & 0x006;
 934              		.loc 1 312 49
 935 01e8 93F6060C 		andi	a3,a3,192
 936              	.LVL103:
 314:./../../firmware/debugger/debugger_core.c ****                 if(immediate & 0x100) immediate |= 0xFFFFFF00;
 937              		.loc 1 314 27
 938 01ec D18E     		or	a3,a3,a2
 939              	.LVL104:
 313:./../../firmware/debugger/debugger_core.c ****                 immediate |= (instruction << 3) & 0x020;
 940              		.loc 1 313 43
 941 01ee 13D62700 		srli	a2,a5,2
 313:./../../firmware/debugger/debugger_core.c ****                 immediate |= (instruction << 3) & 0x020;
 942              		.loc 1 313 49
 943 01f2 198A     		andi	a2,a2,6
 944              	.LVL105:
 314:./../../firmware/debugger/debugger_core.c ****                 if(immediate & 0x100) immediate |= 0xFFFFFF00;
 945              		.loc 1 314 27
 946 01f4 D18E     		or	a3,a3,a2
 314:./../../firmware/debugger/debugger_core.c ****                 if(immediate & 0x100) immediate |= 0xFFFFFF00;
 947              		.loc 1 314 43
 948 01f6 13963700 		slli	a2,a5,3
 949              	.LVL106:
 314:./../../firmware/debugger/debugger_core.c ****                 if(immediate & 0x100) immediate |= 0xFFFFFF00;
 950              		.loc 1 314 49
 951 01fa 13760602 		andi	a2,a2,32
GAS LISTING C:\Users\marwz\AppData\Local\Temp\ccDVLJoD.s 			page 27


 310:./../../firmware/debugger/debugger_core.c ****                 immediate |= (instruction >> 7) & 0x018;
 952              		.loc 1 310 43
 953 01fe 9183     		srli	a5,a5,4
 954              	.LVL107:
 314:./../../firmware/debugger/debugger_core.c ****                 if(immediate & 0x100) immediate |= 0xFFFFFF00;
 955              		.loc 1 314 27
 956 0200 D18E     		or	a3,a3,a2
 310:./../../firmware/debugger/debugger_core.c ****                 immediate |= (instruction >> 7) & 0x018;
 957              		.loc 1 310 28
 958 0202 93F70710 		andi	a5,a5,256
 959              	.LVL108:
 315:./../../firmware/debugger/debugger_core.c ****                 rs1 = ((instruction >> 7) & 7) + 8;
 960              		.loc 1 315 17 is_stmt 1
 315:./../../firmware/debugger/debugger_core.c ****                 rs1 = ((instruction >> 7) & 7) + 8;
 961              		.loc 1 315 30 is_stmt 0
 962 0206 DD8E     		or	a3,a3,a5
 963              	.LVL109:
 315:./../../firmware/debugger/debugger_core.c ****                 rs1 = ((instruction >> 7) & 7) + 8;
 964              		.loc 1 315 19
 965 0208 99C3     		beq	a5,zero,.L67
 315:./../../firmware/debugger/debugger_core.c ****                 rs1 = ((instruction >> 7) & 7) + 8;
 966              		.loc 1 315 39 is_stmt 1 discriminator 1
 315:./../../firmware/debugger/debugger_core.c ****                 rs1 = ((instruction >> 7) & 7) + 8;
 967              		.loc 1 315 49 is_stmt 0 discriminator 1
 968 020a 93E606F0 		ori	a3,a3,-256
 969              	.LVL110:
 970              	.L67:
 316:./../../firmware/debugger/debugger_core.c ****                 if (reg_state.x[rs1] != 0) return pc + immediate;
 971              		.loc 1 316 17 is_stmt 1
 317:./../../firmware/debugger/debugger_core.c ****                 return pc + 2;
 972              		.loc 1 317 17
 316:./../../firmware/debugger/debugger_core.c ****                 if (reg_state.x[rs1] != 0) return pc + immediate;
 973              		.loc 1 316 43 is_stmt 0
 974 020e 1D8B     		andi	a4,a4,7
 975              	.LVL111:
 317:./../../firmware/debugger/debugger_core.c ****                 return pc + 2;
 976              		.loc 1 317 32
 977 0210 2107     		addi	a4,a4,8
 978              	.LVL112:
 979 0212 0A07     		slli	a4,a4,2
 980              	.LVL113:
 981 0214 2E97     		add	a4,a1,a4
 317:./../../firmware/debugger/debugger_core.c ****                 return pc + 2;
 982              		.loc 1 317 20
 983 0216 1C43     		lw	a5,0(a4)
 984 0218 B1DB     		beq	a5,zero,.L61
 985 021a 81A0     		j	.L85
 986              	.LVL114:
 987              	.L62:
 299:./../../firmware/debugger/debugger_core.c ****                 immediate |= (instruction >> 7) & 0x018;
 988              		.loc 1 299 17 is_stmt 1
 300:./../../firmware/debugger/debugger_core.c ****                 immediate |= (instruction << 1) & 0x0C0;
 989              		.loc 1 300 17
 300:./../../firmware/debugger/debugger_core.c ****                 immediate |= (instruction << 1) & 0x0C0;
 990              		.loc 1 300 43 is_stmt 0
 991 021c 13D77700 		srli	a4,a5,7
 992              	.LVL115:
GAS LISTING C:\Users\marwz\AppData\Local\Temp\ccDVLJoD.s 			page 28


 301:./../../firmware/debugger/debugger_core.c ****                 immediate |= (instruction >> 2) & 0x006;
 993              		.loc 1 301 17 is_stmt 1
 302:./../../firmware/debugger/debugger_core.c ****                 immediate |= (instruction << 3) & 0x020;
 994              		.loc 1 302 17
 303:./../../firmware/debugger/debugger_core.c ****                 if (immediate & 0x100) immediate |= 0xFFFFFF00;
 995              		.loc 1 303 17
 301:./../../firmware/debugger/debugger_core.c ****                 immediate |= (instruction >> 2) & 0x006;
 996              		.loc 1 301 43 is_stmt 0
 997 0220 93961700 		slli	a3,a5,1
 300:./../../firmware/debugger/debugger_core.c ****                 immediate |= (instruction << 1) & 0x0C0;
 998              		.loc 1 300 49
 999 0224 13768701 		andi	a2,a4,24
 301:./../../firmware/debugger/debugger_core.c ****                 immediate |= (instruction >> 2) & 0x006;
 1000              		.loc 1 301 49
 1001 0228 93F6060C 		andi	a3,a3,192
 1002              	.LVL116:
 303:./../../firmware/debugger/debugger_core.c ****                 if (immediate & 0x100) immediate |= 0xFFFFFF00;
 1003              		.loc 1 303 27
 1004 022c D18E     		or	a3,a3,a2
 1005              	.LVL117:
 302:./../../firmware/debugger/debugger_core.c ****                 immediate |= (instruction << 3) & 0x020;
 1006              		.loc 1 302 43
 1007 022e 13D62700 		srli	a2,a5,2
 302:./../../firmware/debugger/debugger_core.c ****                 immediate |= (instruction << 3) & 0x020;
 1008              		.loc 1 302 49
 1009 0232 198A     		andi	a2,a2,6
 1010              	.LVL118:
 303:./../../firmware/debugger/debugger_core.c ****                 if (immediate & 0x100) immediate |= 0xFFFFFF00;
 1011              		.loc 1 303 27
 1012 0234 D18E     		or	a3,a3,a2
 303:./../../firmware/debugger/debugger_core.c ****                 if (immediate & 0x100) immediate |= 0xFFFFFF00;
 1013              		.loc 1 303 43
 1014 0236 13963700 		slli	a2,a5,3
 1015              	.LVL119:
 303:./../../firmware/debugger/debugger_core.c ****                 if (immediate & 0x100) immediate |= 0xFFFFFF00;
 1016              		.loc 1 303 49
 1017 023a 13760602 		andi	a2,a2,32
 299:./../../firmware/debugger/debugger_core.c ****                 immediate |= (instruction >> 7) & 0x018;
 1018              		.loc 1 299 43
 1019 023e 9183     		srli	a5,a5,4
 1020              	.LVL120:
 303:./../../firmware/debugger/debugger_core.c ****                 if (immediate & 0x100) immediate |= 0xFFFFFF00;
 1021              		.loc 1 303 27
 1022 0240 D18E     		or	a3,a3,a2
 299:./../../firmware/debugger/debugger_core.c ****                 immediate |= (instruction >> 7) & 0x018;
 1023              		.loc 1 299 28
 1024 0242 93F70710 		andi	a5,a5,256
 1025              	.LVL121:
 304:./../../firmware/debugger/debugger_core.c ****                 rs1 = ((instruction >> 7) & 7) + 8;
 1026              		.loc 1 304 17 is_stmt 1
 304:./../../firmware/debugger/debugger_core.c ****                 rs1 = ((instruction >> 7) & 7) + 8;
 1027              		.loc 1 304 31 is_stmt 0
 1028 0246 DD8E     		or	a3,a3,a5
 1029              	.LVL122:
 304:./../../firmware/debugger/debugger_core.c ****                 rs1 = ((instruction >> 7) & 7) + 8;
 1030              		.loc 1 304 20
 1031 0248 99C3     		beq	a5,zero,.L65
GAS LISTING C:\Users\marwz\AppData\Local\Temp\ccDVLJoD.s 			page 29


 304:./../../firmware/debugger/debugger_core.c ****                 rs1 = ((instruction >> 7) & 7) + 8;
 1032              		.loc 1 304 40 is_stmt 1 discriminator 1
 304:./../../firmware/debugger/debugger_core.c ****                 rs1 = ((instruction >> 7) & 7) + 8;
 1033              		.loc 1 304 50 is_stmt 0 discriminator 1
 1034 024a 93E606F0 		ori	a3,a3,-256
 1035              	.LVL123:
 1036              	.L65:
 305:./../../firmware/debugger/debugger_core.c ****                 if (reg_state.x[rs1] == 0) return pc + immediate;
 1037              		.loc 1 305 17 is_stmt 1
 306:./../../firmware/debugger/debugger_core.c ****                 return pc + 2;
 1038              		.loc 1 306 17
 305:./../../firmware/debugger/debugger_core.c ****                 if (reg_state.x[rs1] == 0) return pc + immediate;
 1039              		.loc 1 305 43 is_stmt 0
 1040 024e 1D8B     		andi	a4,a4,7
 1041              	.LVL124:
 306:./../../firmware/debugger/debugger_core.c ****                 return pc + 2;
 1042              		.loc 1 306 32
 1043 0250 2107     		addi	a4,a4,8
 1044              	.LVL125:
 1045 0252 0A07     		slli	a4,a4,2
 1046              	.LVL126:
 1047 0254 2E97     		add	a4,a1,a4
 306:./../../firmware/debugger/debugger_core.c ****                 return pc + 2;
 1048              		.loc 1 306 20
 1049 0256 1C43     		lw	a5,0(a4)
 1050 0258 91FB     		bne	a5,zero,.L61
 1051              	.LVL127:
 1052              	.L85:
 317:./../../firmware/debugger/debugger_core.c ****                 return pc + 2;
 1053              		.loc 1 317 44 is_stmt 1 discriminator 1
 317:./../../firmware/debugger/debugger_core.c ****                 return pc + 2;
 1054              		.loc 1 317 54 is_stmt 0 discriminator 1
 1055 025a 3695     		add	a0,a3,a0
 1056              	.LVL128:
 1057 025c 8280     		ret
 1058              	.LVL129:
 1059              	.L58:
 322:./../../firmware/debugger/debugger_core.c ****             }
 323:./../../firmware/debugger/debugger_core.c ****         }
 324:./../../firmware/debugger/debugger_core.c ****         if ((instruction & 3) == 2) { //Quadrant 2
 1060              		.loc 1 324 9 is_stmt 1
 325:./../../firmware/debugger/debugger_core.c ****             if (((instruction & 0xE07F) == 0x8002) && ((instruction >> 7) & (0x1f << 7))) {
 1061              		.loc 1 325 13
 1062              		.loc 1 325 31 is_stmt 0
 1063 025e 3967     		li	a4,57344
 1064 0260 1307F707 		addi	a4,a4,127
 1065              		.loc 1 325 16
 1066 0264 A166     		li	a3,32768
 1067              		.loc 1 325 31
 1068 0266 7D8F     		and	a4,a5,a4
 1069              		.loc 1 325 16
 1070 0268 8906     		addi	a3,a3,2
 1071 026a E311D7F0 		bne	a4,a3,.L61
 1072              		.loc 1 325 75 discriminator 1
 1073 026e 0567     		li	a4,4096
 1074              		.loc 1 325 69 discriminator 1
 1075 0270 9D83     		srli	a5,a5,7
GAS LISTING C:\Users\marwz\AppData\Local\Temp\ccDVLJoD.s 			page 30


 1076              	.LVL130:
 1077              		.loc 1 325 75 discriminator 1
 1078 0272 130707F8 		addi	a4,a4,-128
 1079 0276 7D8F     		and	a4,a5,a4
 1080              		.loc 1 325 52 discriminator 1
 1081 0278 E30A07EE 		beq	a4,zero,.L61
 326:./../../firmware/debugger/debugger_core.c ****                 rs1 = (instruction >> 7) & 0x1F;
 1082              		.loc 1 326 17 is_stmt 1
 1083              	.LVL131:
 327:./../../firmware/debugger/debugger_core.c **** 
 328:./../../firmware/debugger/debugger_core.c ****                 return reg_state.x[rs1];
 1084              		.loc 1 328 17
 326:./../../firmware/debugger/debugger_core.c ****                 rs1 = (instruction >> 7) & 0x1F;
 1085              		.loc 1 326 21 is_stmt 0
 1086 027c FD8B     		andi	a5,a5,31
 1087              	.LVL132:
 1088              		.loc 1 328 35
 1089 027e 8A07     		slli	a5,a5,2
 1090              	.LVL133:
 1091 0280 3387F500 		add	a4,a1,a5
 1092 0284 0843     		lw	a0,0(a4)
 1093              	.LVL134:
 1094              	.LBE30:
 329:./../../firmware/debugger/debugger_core.c ****             }
 330:./../../firmware/debugger/debugger_core.c ****         }
 331:./../../firmware/debugger/debugger_core.c ****         return pc + 2;
 332:./../../firmware/debugger/debugger_core.c ****     }
 333:./../../firmware/debugger/debugger_core.c **** }
 1095              		.loc 1 333 1
 1096 0286 8280     		ret
 1097              		.cfi_endproc
 1098              	.LFE11:
 1100              		.section	.text.dbg_add_breakpoint,"ax",@progbits
 1101              		.align	1
 1102              		.globl	dbg_add_breakpoint
 1104              	dbg_add_breakpoint:
 1105              	.LFB13:
 334:./../../firmware/debugger/debugger_core.c **** 
 335:./../../firmware/debugger/debugger_core.c **** volatile uintptr_t handle_trap(uintptr_t mcause, uintptr_t sp)
 336:./../../firmware/debugger/debugger_core.c **** {
 337:./../../firmware/debugger/debugger_core.c ****     volatile registerfile_t regs = build_register_state_sp(sp);
 338:./../../firmware/debugger/debugger_core.c ****     dbg_store_irq_state(&dbg_state_g);
 339:./../../firmware/debugger/debugger_core.c ****     dbg_state_g.regs = regs;
 340:./../../firmware/debugger/debugger_core.c ****     volatile uintptr_t address = 0;
 341:./../../firmware/debugger/debugger_core.c ****     uint32_t next_instruction = 0;
 342:./../../firmware/debugger/debugger_core.c ****     write_csr(tselect, 1);
 343:./../../firmware/debugger/debugger_core.c ****     address = read_csr(mepc);
 344:./../../firmware/debugger/debugger_core.c ****     dbg_state_g.pc = address;
 345:./../../firmware/debugger/debugger_core.c ****     static uint8_t debugger_started = 0;
 346:./../../firmware/debugger/debugger_core.c ****     if(dbg_state_g.state == DBG_BREAK){
 347:./../../firmware/debugger/debugger_core.c ****         dbg_temporary_disable_breakpoint(0);
 348:./../../firmware/debugger/debugger_core.c ****         dbg_state_g.state = DBG_RUNNING;
 349:./../../firmware/debugger/debugger_core.c ****     }
 350:./../../firmware/debugger/debugger_core.c ****     switch (dbg_state_g.state) {
 351:./../../firmware/debugger/debugger_core.c ****         case DBG_RUNNING:
 352:./../../firmware/debugger/debugger_core.c ****             dbg_state_g.state = DBG_STALL;
 353:./../../firmware/debugger/debugger_core.c ****             for (int i = 0; i < DBG_BREAKPOINTS_AVAILABLE; i++) {
GAS LISTING C:\Users\marwz\AppData\Local\Temp\ccDVLJoD.s 			page 31


 354:./../../firmware/debugger/debugger_core.c ****                 dbg_store_breakpoint(i, &dbg_state_g); 
 355:./../../firmware/debugger/debugger_core.c ****             }
 356:./../../firmware/debugger/debugger_core.c ****             break;
 357:./../../firmware/debugger/debugger_core.c ****         case DBG_CONTINUE:
 358:./../../firmware/debugger/debugger_core.c ****             dbg_restore_breakpoints(&dbg_state_g);
 359:./../../firmware/debugger/debugger_core.c ****             dbg_state_g.state = DBG_RUNNING;
 360:./../../firmware/debugger/debugger_core.c ****             dbg_restore_irq_state(&dbg_state_g);
 361:./../../firmware/debugger/debugger_core.c ****             return 0;
 362:./../../firmware/debugger/debugger_core.c ****         case DBG_STEP:
 363:./../../firmware/debugger/debugger_core.c ****             dbg_state_g.state = DBG_STALL;
 364:./../../firmware/debugger/debugger_core.c ****             //Do nothing
 365:./../../firmware/debugger/debugger_core.c ****             break;
 366:./../../firmware/debugger/debugger_core.c ****         case DBG_STALL:
 367:./../../firmware/debugger/debugger_core.c ****         case DBG_BREAK:
 368:./../../firmware/debugger/debugger_core.c ****             //Should never get here
 369:./../../firmware/debugger/debugger_core.c ****             //Does nothing for now, but may send an error code insted
 370:./../../firmware/debugger/debugger_core.c ****             break;
 371:./../../firmware/debugger/debugger_core.c ****     }
 372:./../../firmware/debugger/debugger_core.c **** 
 373:./../../firmware/debugger/debugger_core.c ****     for (int i = 0; i < DBG_BREAKPOINTS_AVAILABLE; i++) {
 374:./../../firmware/debugger/debugger_core.c ****         dbg_temporary_disable_breakpoint(i);
 375:./../../firmware/debugger/debugger_core.c ****     }
 376:./../../firmware/debugger/debugger_core.c **** 
 377:./../../firmware/debugger/debugger_core.c ****     dbg_delay_1ms(1);
 378:./../../firmware/debugger/debugger_core.c **** 
 379:./../../firmware/debugger/debugger_core.c ****     uint8_t read_buffer[512] = {0};
 380:./../../firmware/debugger/debugger_core.c **** 
 381:./../../firmware/debugger/debugger_core.c ****     dbg_reply("S05");
 382:./../../firmware/debugger/debugger_core.c ****     dbg_yield_to_irqs();
 383:./../../firmware/debugger/debugger_core.c ****     dbg_delay_1ms(1);
 384:./../../firmware/debugger/debugger_core.c **** 
 385:./../../firmware/debugger/debugger_core.c ****     next_instruction = predict_next_instruction(address, regs);
 386:./../../firmware/debugger/debugger_core.c ****     if(instruction_executed_before(*((uint32_t*)address))) write_csr(mepc, next_instruction);
 387:./../../firmware/debugger/debugger_core.c ****     address = next_instruction;
 388:./../../firmware/debugger/debugger_core.c **** 
 389:./../../firmware/debugger/debugger_core.c ****     
 390:./../../firmware/debugger/debugger_core.c ****     while (1) {
 391:./../../firmware/debugger/debugger_core.c ****         if (dbg_check_messages(read_buffer)) {
 392:./../../firmware/debugger/debugger_core.c ****             dbg_message_decoder(&dbg_state_g, read_buffer);
 393:./../../firmware/debugger/debugger_core.c ****             if ((dbg_state_g.state == DBG_STEP) || (dbg_state_g.state == DBG_CONTINUE)) {
 394:./../../firmware/debugger/debugger_core.c ****                 dbg_set_temporary_breakpoint(address, 1);
 395:./../../firmware/debugger/debugger_core.c ****                 dbg_yield_to_irqs();
 396:./../../firmware/debugger/debugger_core.c ****                 break;
 397:./../../firmware/debugger/debugger_core.c ****             }
 398:./../../firmware/debugger/debugger_core.c ****         }
 399:./../../firmware/debugger/debugger_core.c ****         dbg_yield_to_irqs();
 400:./../../firmware/debugger/debugger_core.c ****     }
 401:./../../firmware/debugger/debugger_core.c ****     dbg_restore_irq_state(&dbg_state_g);
 402:./../../firmware/debugger/debugger_core.c **** }
 403:./../../firmware/debugger/debugger_core.c **** 
 404:./../../firmware/debugger/debugger_core.c **** #define DEBUG_TIMING_AFTER  (1U << 18)
 405:./../../firmware/debugger/debugger_core.c **** #define DEBUG_ENABLE_IN_M   (1U << 6)
 406:./../../firmware/debugger/debugger_core.c **** #define DEBUG_ENABLE_IN_H   (1U << 5)
 407:./../../firmware/debugger/debugger_core.c **** #define DEBUG_ENABLE_IN_S   (1U << 4)
 408:./../../firmware/debugger/debugger_core.c **** #define DEBUG_ENABLE_IN_U   (1U << 3)
 409:./../../firmware/debugger/debugger_core.c **** #define DEBUG_ENABLE_IN_ALL (0xFU << 3)
 410:./../../firmware/debugger/debugger_core.c **** #define DEBUG_BREAK_EXEC    (1U << 2)
GAS LISTING C:\Users\marwz\AppData\Local\Temp\ccDVLJoD.s 			page 32


 411:./../../firmware/debugger/debugger_core.c **** #define DEBUG_BREAK_STORE   (1U << 1)
 412:./../../firmware/debugger/debugger_core.c **** #define DEBUG_BREAK_LOAD    (1U << 0)
 413:./../../firmware/debugger/debugger_core.c **** #define DEBUG_BREAK_ALL     (7U << 0)
 414:./../../firmware/debugger/debugger_core.c **** 
 415:./../../firmware/debugger/debugger_core.c **** void dbg_add_breakpoint(uintptr_t addr, dbg_state_t *dbg_state)
 416:./../../firmware/debugger/debugger_core.c **** {
 1106              		.loc 1 416 1 is_stmt 1
 1107              		.cfi_startproc
 1108              	.LVL135:
 417:./../../firmware/debugger/debugger_core.c ****     for (int i = 0; i < DBG_BREAKPOINTS_AVAILABLE; i++) {
 1109              		.loc 1 417 5
 1110              	.LBB31:
 1111              		.loc 1 417 10
 1112 0000 13874509 		addi	a4,a1,148
 1113              		.loc 1 417 14 is_stmt 0
 1114 0004 8147     		li	a5,0
 1115              		.loc 1 417 5
 1116 0006 9146     		li	a3,4
 1117              	.LVL136:
 1118              	.L92:
 418:./../../firmware/debugger/debugger_core.c ****         if (!dbg_state->brk[i].used) {
 1119              		.loc 1 418 9 is_stmt 1
 1120              		.loc 1 418 12 is_stmt 0
 1121 0008 1043     		lw	a2,0(a4)
 1122 000a 19EE     		bne	a2,zero,.L90
 419:./../../firmware/debugger/debugger_core.c ****             dbg_set_breakpoint(i, addr, dbg_state);
 1123              		.loc 1 419 13 is_stmt 1
 1124              	.LVL137:
 1125              	.LBB32:
 1126              	.LBB33:
 420:./../../firmware/debugger/debugger_core.c ****             return;
 421:./../../firmware/debugger/debugger_core.c ****         }
 422:./../../firmware/debugger/debugger_core.c ****     }
 423:./../../firmware/debugger/debugger_core.c **** }
 424:./../../firmware/debugger/debugger_core.c **** 
 425:./../../firmware/debugger/debugger_core.c **** void dbg_set_breakpoint(uint32_t breakpoint_index, uintptr_t addr, dbg_state_t *dbg_state)
 426:./../../firmware/debugger/debugger_core.c **** {
 427:./../../firmware/debugger/debugger_core.c ****     uint32_t config_break = DEBUG_BREAK_EXEC | DEBUG_ENABLE_IN_ALL | DEBUG_TIMING_AFTER;
 1127              		.loc 1 427 5
 428:./../../firmware/debugger/debugger_core.c ****     dbg_state->brk[breakpoint_index].tdata[0] = config_break;
 1128              		.loc 1 428 5
 1129 000c 9207     		slli	a5,a5,4
 1130              	.LVL138:
 1131              		.loc 1 428 47 is_stmt 0
 1132 000e 37070400 		li	a4,262144
 1133 0012 AE97     		add	a5,a1,a5
 1134 0014 1307C707 		addi	a4,a4,124
 1135 0018 23A4E708 		sw	a4,136(a5)
 429:./../../firmware/debugger/debugger_core.c ****     dbg_state->brk[breakpoint_index].tdata[1] = addr;
 1136              		.loc 1 429 5 is_stmt 1
 430:./../../firmware/debugger/debugger_core.c ****     dbg_state->brk[breakpoint_index].used = 1;
 1137              		.loc 1 430 43 is_stmt 0
 1138 001c 0547     		li	a4,1
 429:./../../firmware/debugger/debugger_core.c ****     dbg_state->brk[breakpoint_index].tdata[1] = addr;
 1139              		.loc 1 429 47
 1140 001e 23A6A708 		sw	a0,140(a5)
 1141              		.loc 1 430 5 is_stmt 1
GAS LISTING C:\Users\marwz\AppData\Local\Temp\ccDVLJoD.s 			page 33


 1142              		.loc 1 430 43 is_stmt 0
 1143 0022 23AAE708 		sw	a4,148(a5)
 1144              	.LVL139:
 1145              	.LBE33:
 1146              	.LBE32:
 420:./../../firmware/debugger/debugger_core.c ****         }
 1147              		.loc 1 420 13 is_stmt 1
 1148 0026 8280     		ret
 1149              	.LVL140:
 1150              	.L90:
 417:./../../firmware/debugger/debugger_core.c ****         if (!dbg_state->brk[i].used) {
 1151              		.loc 1 417 53 is_stmt 0 discriminator 2
 1152 0028 8507     		addi	a5,a5,1
 1153              	.LVL141:
 1154 002a 4107     		addi	a4,a4,16
 417:./../../firmware/debugger/debugger_core.c ****         if (!dbg_state->brk[i].used) {
 1155              		.loc 1 417 5 discriminator 2
 1156 002c E39ED7FC 		bne	a5,a3,.L92
 1157              	.LBE31:
 423:./../../firmware/debugger/debugger_core.c **** 
 1158              		.loc 1 423 1
 1159 0030 8280     		ret
 1160              		.cfi_endproc
 1161              	.LFE13:
 1163              		.section	.text.dbg_set_breakpoint,"ax",@progbits
 1164              		.align	1
 1165              		.globl	dbg_set_breakpoint
 1167              	dbg_set_breakpoint:
 1168              	.LFB14:
 426:./../../firmware/debugger/debugger_core.c ****     uint32_t config_break = DEBUG_BREAK_EXEC | DEBUG_ENABLE_IN_ALL | DEBUG_TIMING_AFTER;
 1169              		.loc 1 426 1 is_stmt 1
 1170              		.cfi_startproc
 1171              	.LVL142:
 427:./../../firmware/debugger/debugger_core.c ****     dbg_state->brk[breakpoint_index].tdata[0] = config_break;
 1172              		.loc 1 427 5
 428:./../../firmware/debugger/debugger_core.c ****     dbg_state->brk[breakpoint_index].tdata[1] = addr;
 1173              		.loc 1 428 5
 1174 0000 1205     		slli	a0,a0,4
 1175              	.LVL143:
 428:./../../firmware/debugger/debugger_core.c ****     dbg_state->brk[breakpoint_index].tdata[1] = addr;
 1176              		.loc 1 428 47 is_stmt 0
 1177 0002 B7070400 		li	a5,262144
 1178 0006 2A96     		add	a2,a2,a0
 1179              	.LVL144:
 1180 0008 9387C707 		addi	a5,a5,124
 1181 000c 2324F608 		sw	a5,136(a2)
 429:./../../firmware/debugger/debugger_core.c ****     dbg_state->brk[breakpoint_index].used = 1;
 1182              		.loc 1 429 5 is_stmt 1
 1183              		.loc 1 430 43 is_stmt 0
 1184 0010 8547     		li	a5,1
 429:./../../firmware/debugger/debugger_core.c ****     dbg_state->brk[breakpoint_index].used = 1;
 1185              		.loc 1 429 47
 1186 0012 2326B608 		sw	a1,140(a2)
 1187              		.loc 1 430 5 is_stmt 1
 1188              		.loc 1 430 43 is_stmt 0
 1189 0016 232AF608 		sw	a5,148(a2)
 431:./../../firmware/debugger/debugger_core.c **** }
GAS LISTING C:\Users\marwz\AppData\Local\Temp\ccDVLJoD.s 			page 34


 1190              		.loc 1 431 1
 1191 001a 8280     		ret
 1192              		.cfi_endproc
 1193              	.LFE14:
 1195              		.section	.text.dbg_remove_breakpoint,"ax",@progbits
 1196              		.align	1
 1197              		.globl	dbg_remove_breakpoint
 1199              	dbg_remove_breakpoint:
 1200              	.LFB15:
 432:./../../firmware/debugger/debugger_core.c **** 
 433:./../../firmware/debugger/debugger_core.c **** void dbg_remove_breakpoint(uintptr_t addr, dbg_state_t *dbg_state)
 434:./../../firmware/debugger/debugger_core.c **** {
 1201              		.loc 1 434 1 is_stmt 1
 1202              		.cfi_startproc
 1203              	.LVL145:
 435:./../../firmware/debugger/debugger_core.c ****     uint32_t config_break = DEBUG_BREAK_EXEC | DEBUG_TIMING_AFTER;
 1204              		.loc 1 435 5
 436:./../../firmware/debugger/debugger_core.c ****     for (int i = 0; i < DBG_BREAKPOINTS_AVAILABLE; i++) {
 1205              		.loc 1 436 5
 1206              	.LBB34:
 1207              		.loc 1 436 10
 437:./../../firmware/debugger/debugger_core.c ****         if (dbg_state->brk[i].tdata[1] == addr) {
 438:./../../firmware/debugger/debugger_core.c ****             dbg_state->brk[i].tdata[0] = config_break;
 1208              		.loc 1 438 40 is_stmt 0
 1209 0000 37070400 		li	a4,262144
 1210 0004 93878508 		addi	a5,a1,136
 1211 0008 1107     		addi	a4,a4,4
 1212 000a 9385850C 		addi	a1,a1,200
 1213              	.LVL146:
 1214              	.L97:
 437:./../../firmware/debugger/debugger_core.c ****         if (dbg_state->brk[i].tdata[1] == addr) {
 1215              		.loc 1 437 9 is_stmt 1
 437:./../../firmware/debugger/debugger_core.c ****         if (dbg_state->brk[i].tdata[1] == addr) {
 1216              		.loc 1 437 12 is_stmt 0
 1217 000e D443     		lw	a3,4(a5)
 1218 0010 6395A600 		bne	a3,a0,.L96
 1219              		.loc 1 438 13 is_stmt 1
 1220              		.loc 1 438 40 is_stmt 0
 1221 0014 98C3     		sw	a4,0(a5)
 439:./../../firmware/debugger/debugger_core.c ****             dbg_state->brk[i].used = 0;
 1222              		.loc 1 439 13 is_stmt 1
 1223              		.loc 1 439 36 is_stmt 0
 1224 0016 23A60700 		sw	zero,12(a5)
 1225              	.L96:
 1226 001a C107     		addi	a5,a5,16
 436:./../../firmware/debugger/debugger_core.c ****     for (int i = 0; i < DBG_BREAKPOINTS_AVAILABLE; i++) {
 1227              		.loc 1 436 5 discriminator 2
 1228 001c E399B7FE 		bne	a5,a1,.L97
 1229              	.LBE34:
 440:./../../firmware/debugger/debugger_core.c ****         }
 441:./../../firmware/debugger/debugger_core.c ****     }
 442:./../../firmware/debugger/debugger_core.c **** }
 1230              		.loc 1 442 1
 1231 0020 8280     		ret
 1232              		.cfi_endproc
 1233              	.LFE15:
 1235              		.section	.text.dbg_set_temporary_breakpoint,"ax",@progbits
GAS LISTING C:\Users\marwz\AppData\Local\Temp\ccDVLJoD.s 			page 35


 1236              		.align	1
 1237              		.globl	dbg_set_temporary_breakpoint
 1239              	dbg_set_temporary_breakpoint:
 1240              	.LFB16:
 443:./../../firmware/debugger/debugger_core.c **** 
 444:./../../firmware/debugger/debugger_core.c **** void dbg_set_temporary_breakpoint(uintptr_t addr, uint32_t breakpoint_index)
 445:./../../firmware/debugger/debugger_core.c **** {
 1241              		.loc 1 445 1 is_stmt 1
 1242              		.cfi_startproc
 1243              	.LVL147:
 446:./../../firmware/debugger/debugger_core.c ****     write_csr(tselect, breakpoint_index);
 1244              		.loc 1 446 5
 1245              		.loc 1 446 5
 1246              	 #APP
 1247              	# 446 "./../../firmware/debugger/debugger_core.c" 1
 447              	    uint32_t config_break = DEBUG_BREAK_EXEC | DEBUG_ENABLE_IN_ALL | DEBUG_TIMING_AFTER;
 1248              		csrw tselect, a1
 1249              	# 0 "" 2
 1250              		.loc 1 447 5
 1251              	.LVL148:
 448:./../../firmware/debugger/debugger_core.c ****     write_csr(tdata1, config_break);
 1252              		.loc 1 448 5
 1253              		.loc 1 448 5
 1254              	 #NO_APP
 1255 0004 B7070400 		li	a5,262144
 1256 0008 9387C707 		addi	a5,a5,124
 1257              	 #APP
 1258              	# 448 "./../../firmware/debugger/debugger_core.c" 1
 449              	    write_csr(tdata2, addr);
 1259              		csrw tdata1, a5
 1260              	# 0 "" 2
 1261              		.loc 1 449 5
 1262              		.loc 1 449 5
 1263              	# 449 "./../../firmware/debugger/debugger_core.c" 1
 450              	}
 1264              		csrw tdata2, a0
 1265              	# 0 "" 2
 1266              		.loc 1 450 1 is_stmt 0
 1267              	 #NO_APP
 1268 0014 8280     		ret
 1269              		.cfi_endproc
 1270              	.LFE16:
 1272              		.section	.text.dbg_init,"ax",@progbits
 1273              		.align	1
 1274              		.globl	dbg_init
 1276              	dbg_init:
 1277              	.LFB8:
 128:./../../firmware/debugger/debugger_core.c ****     uint32_t trap_entry_ptr = (uint32_t)dbg_trap_entry;
 1278              		.loc 1 128 1 is_stmt 1
 1279              		.cfi_startproc
 129:./../../firmware/debugger/debugger_core.c ****     trap_entry_ptr |= 3;
 1280              		.loc 1 129 5
 129:./../../firmware/debugger/debugger_core.c ****     trap_entry_ptr |= 3;
 1281              		.loc 1 129 14 is_stmt 0
 1282 0000 B7070000 		lui	a5,%hi(dbg_trap_entry)
 128:./../../firmware/debugger/debugger_core.c ****     uint32_t trap_entry_ptr = (uint32_t)dbg_trap_entry;
 1283              		.loc 1 128 1
GAS LISTING C:\Users\marwz\AppData\Local\Temp\ccDVLJoD.s 			page 36


 1284 0004 4111     		addi	sp,sp,-16
 1285              	.LCFI8:
 1286              		.cfi_def_cfa_offset 16
 129:./../../firmware/debugger/debugger_core.c ****     trap_entry_ptr |= 3;
 1287              		.loc 1 129 14
 1288 0006 93870700 		addi	a5,a5,%lo(dbg_trap_entry)
 1289              	.LVL149:
 130:./../../firmware/debugger/debugger_core.c ****     write_csr(mtvec, trap_entry_ptr);
 1290              		.loc 1 130 5 is_stmt 1
 131:./../../firmware/debugger/debugger_core.c ****     write_csr(mscratch, _dbg_sp);
 1291              		.loc 1 131 5
 131:./../../firmware/debugger/debugger_core.c ****     write_csr(mscratch, _dbg_sp);
 1292              		.loc 1 131 5
 128:./../../firmware/debugger/debugger_core.c ****     uint32_t trap_entry_ptr = (uint32_t)dbg_trap_entry;
 1293              		.loc 1 128 1 is_stmt 0
 1294 000a 06C6     		sw	ra,12(sp)
 1295              		.cfi_offset 1, -4
 130:./../../firmware/debugger/debugger_core.c ****     write_csr(mtvec, trap_entry_ptr);
 1296              		.loc 1 130 20
 1297 000c 93E73700 		ori	a5,a5,3
 1298              	.LVL150:
 131:./../../firmware/debugger/debugger_core.c ****     write_csr(mscratch, _dbg_sp);
 1299              		.loc 1 131 5
 1300              	 #APP
 1301              	# 131 "./../../firmware/debugger/debugger_core.c" 1
 132:./../../firmware/debugger/debugger_core.c ****     rcu_periph_clock_enable(RCU_GPIOA);
 1302              		csrw mtvec, a5
 1303              	# 0 "" 2
 1304              		.loc 1 132 5 is_stmt 1
 132:./../../firmware/debugger/debugger_core.c ****     rcu_periph_clock_enable(RCU_GPIOA);
 1305              		.loc 1 132 5
 1306              	 #NO_APP
 1307 0014 B7070000 		lui	a5,%hi(_dbg_sp)
 1308              	.LVL151:
 1309 0018 83A70700 		lw	a5,%lo(_dbg_sp)(a5)
 1310              	 #APP
 1311              	# 132 "./../../firmware/debugger/debugger_core.c" 1
 133:./../../firmware/debugger/debugger_core.c ****     rcu_periph_clock_enable(RCU_AF);
 1312              		csrw mscratch, a5
 1313              	# 0 "" 2
 1314              		.loc 1 133 5
 1315              	 #NO_APP
 1316 0020 13052060 		li	a0,1538
 1317 0024 97000000 		call	rcu_periph_clock_enable
 1317      E7800000 
 1318              	.LVL152:
 134:./../../firmware/debugger/debugger_core.c ****     gpio_init(GPIOA, GPIO_MODE_AF_PP, GPIO_OSPEED_50MHZ, GPIO_PIN_11 | GPIO_PIN_12);
 1319              		.loc 1 134 5
 1320 002c 13050060 		li	a0,1536
 1321 0030 97000000 		call	rcu_periph_clock_enable
 1321      E7800000 
 1322              	.LVL153:
 135:./../../firmware/debugger/debugger_core.c ****     debug_port_init();
 1323              		.loc 1 135 5
 1324 0038 8966     		li	a3,8192
 1325 003a 37150140 		li	a0,1073811456
 1326 003e 93860680 		addi	a3,a3,-2048
GAS LISTING C:\Users\marwz\AppData\Local\Temp\ccDVLJoD.s 			page 37


 1327 0042 0D46     		li	a2,3
 1328 0044 E145     		li	a1,24
 1329 0046 13050580 		addi	a0,a0,-2048
 1330 004a 97000000 		call	gpio_init
 1330      E7800000 
 1331              	.LVL154:
 136:./../../firmware/debugger/debugger_core.c ****     //dbg_delay_1ms(3000);
 1332              		.loc 1 136 5
 1333 0052 97000000 		call	debug_port_init
 1333      E7800000 
 1334              	.LVL155:
 139:./../../firmware/debugger/debugger_core.c ****     dbg_set_temporary_breakpoint((uintptr_t) dummy_breakpoint, 1);
 1335              		.loc 1 139 5
 140:./../../firmware/debugger/debugger_core.c ****     dbg_dummy();
 1336              		.loc 1 140 5
 1337 005a 37050000 		lui	a0,%hi(dbg_dummy)
 1338 005e 8545     		li	a1,1
 1339 0060 13050500 		addi	a0,a0,%lo(dbg_dummy)
 1340 0064 97000000 		call	dbg_set_temporary_breakpoint
 1340      E7800000 
 1341              	.LVL156:
 141:./../../firmware/debugger/debugger_core.c **** }
 1342              		.loc 1 141 5
 142:./../../firmware/debugger/debugger_core.c **** 
 1343              		.loc 1 142 1 is_stmt 0
 1344 006c B240     		lw	ra,12(sp)
 1345              		.cfi_restore 1
 1346 006e 4101     		addi	sp,sp,16
 1347              	.LCFI9:
 1348              		.cfi_def_cfa_offset 0
 141:./../../firmware/debugger/debugger_core.c **** }
 1349              		.loc 1 141 5
 1350 0070 17030000 		tail	dbg_dummy
 1350      67000300 
 1351              	.LVL157:
 1352              		.cfi_endproc
 1353              	.LFE8:
 1355              		.section	.text.dbg_temporary_disable_breakpoint,"ax",@progbits
 1356              		.align	1
 1357              		.globl	dbg_temporary_disable_breakpoint
 1359              	dbg_temporary_disable_breakpoint:
 1360              	.LFB17:
 451:./../../firmware/debugger/debugger_core.c **** 
 452:./../../firmware/debugger/debugger_core.c **** void dbg_temporary_disable_breakpoint(uint32_t breakpoint_index)
 453:./../../firmware/debugger/debugger_core.c **** {
 1361              		.loc 1 453 1 is_stmt 1
 1362              		.cfi_startproc
 1363              	.LVL158:
 454:./../../firmware/debugger/debugger_core.c ****     write_csr(tselect, breakpoint_index);
 1364              		.loc 1 454 5
 1365              		.loc 1 454 5
 1366              	 #APP
 1367              	# 454 "./../../firmware/debugger/debugger_core.c" 1
 455              	    uint32_t config_break = DEBUG_BREAK_EXEC | DEBUG_TIMING_AFTER;
 1368              		csrw tselect, a0
 1369              	# 0 "" 2
 1370              		.loc 1 455 5
GAS LISTING C:\Users\marwz\AppData\Local\Temp\ccDVLJoD.s 			page 38


 1371              	.LVL159:
 456:./../../firmware/debugger/debugger_core.c ****     write_csr(tdata1, config_break);
 1372              		.loc 1 456 5
 1373              		.loc 1 456 5
 1374              	 #NO_APP
 1375 0004 B7070400 		li	a5,262144
 1376 0008 9107     		addi	a5,a5,4
 1377              	 #APP
 1378              	# 456 "./../../firmware/debugger/debugger_core.c" 1
 457              	}
 1379              		csrw tdata1, a5
 1380              	# 0 "" 2
 1381              		.loc 1 457 1 is_stmt 0
 1382              	 #NO_APP
 1383 000e 8280     		ret
 1384              		.cfi_endproc
 1385              	.LFE17:
 1387              		.section	.text.dbg_store_breakpoint,"ax",@progbits
 1388              		.align	1
 1389              		.globl	dbg_store_breakpoint
 1391              	dbg_store_breakpoint:
 1392              	.LFB18:
 458:./../../firmware/debugger/debugger_core.c **** 
 459:./../../firmware/debugger/debugger_core.c **** void dbg_store_breakpoint(uint32_t breakpoint_index, dbg_state_t *dbg_state)
 460:./../../firmware/debugger/debugger_core.c **** {
 1393              		.loc 1 460 1 is_stmt 1
 1394              		.cfi_startproc
 1395              	.LVL160:
 461:./../../firmware/debugger/debugger_core.c ****     uint32_t tselect = 0;
 1396              		.loc 1 461 5
 462:./../../firmware/debugger/debugger_core.c ****     write_csr(tselect, breakpoint_index);
 1397              		.loc 1 462 5
 1398              		.loc 1 462 5
 1399              	 #APP
 1400              	# 462 "./../../firmware/debugger/debugger_core.c" 1
 463              	    tselect = read_csr(tselect);
 1401              		csrw tselect, a0
 1402              	# 0 "" 2
 1403              		.loc 1 463 5
 1404              	 #NO_APP
 1405              	.LBB42:
 1406              		.loc 1 463 15
 1407              		.loc 1 463 15
 1408              	 #APP
 1409              	# 463 "./../../firmware/debugger/debugger_core.c" 1
 464              	
 1410              		csrr a5, tselect
 1411              	# 0 "" 2
 1412              	.LVL161:
 463:./../../firmware/debugger/debugger_core.c **** 
 1413              		.loc 1 463 15
 1414              	 #NO_APP
 1415              	.LBE42:
 465:./../../firmware/debugger/debugger_core.c ****     if (tselect != breakpoint_index) return;
 1416              		.loc 1 465 5
 1417              		.loc 1 465 8 is_stmt 0
 1418 0008 6313F502 		bne	a0,a5,.L103
GAS LISTING C:\Users\marwz\AppData\Local\Temp\ccDVLJoD.s 			page 39


 1419              	.LVL162:
 1420              	.LBB43:
 1421              	.LBB44:
 466:./../../firmware/debugger/debugger_core.c **** 
 467:./../../firmware/debugger/debugger_core.c ****     dbg_state->brk[breakpoint_index].tdata[0] = read_csr(tdata1);
 1422              		.loc 1 467 5 is_stmt 1
 1423              	.LBB45:
 1424              		.loc 1 467 49
 1425              		.loc 1 467 49
 1426              	 #APP
 1427              	# 467 "./../../firmware/debugger/debugger_core.c" 1
 468              	    dbg_state->brk[breakpoint_index].tdata[1] = read_csr(tdata2);
 1428              		csrr a4, tdata1
 1429              	# 0 "" 2
 1430              	.LVL163:
 467:./../../firmware/debugger/debugger_core.c ****     dbg_state->brk[breakpoint_index].tdata[0] = read_csr(tdata1);
 1431              		.loc 1 467 49
 1432              	 #NO_APP
 1433              	.LBE45:
 467:./../../firmware/debugger/debugger_core.c ****     dbg_state->brk[breakpoint_index].tdata[0] = read_csr(tdata1);
 1434              		.loc 1 467 47 is_stmt 0
 1435 0010 93078500 		addi	a5,a0,8
 1436              	.LVL164:
 1437 0014 9207     		slli	a5,a5,4
 1438 0016 AE97     		add	a5,a1,a5
 1439 0018 98C7     		sw	a4,8(a5)
 1440              		.loc 1 468 5 is_stmt 1
 1441              	.LBB46:
 1442              		.loc 1 468 49
 1443              		.loc 1 468 49
 1444              	 #APP
 1445              	# 468 "./../../firmware/debugger/debugger_core.c" 1
 469              	    dbg_state->brk[breakpoint_index].tdata[2] = read_csr(tdata3);
 1446              		csrr a5, tdata2
 1447              	# 0 "" 2
 1448              	.LVL165:
 468:./../../firmware/debugger/debugger_core.c ****     dbg_state->brk[breakpoint_index].tdata[2] = read_csr(tdata3);
 1449              		.loc 1 468 49
 1450              	 #NO_APP
 1451              	.LBE46:
 468:./../../firmware/debugger/debugger_core.c ****     dbg_state->brk[breakpoint_index].tdata[2] = read_csr(tdata3);
 1452              		.loc 1 468 47 is_stmt 0
 1453 001e 1205     		slli	a0,a0,4
 1454              	.LVL166:
 1455 0020 2E95     		add	a0,a1,a0
 1456 0022 2326F508 		sw	a5,140(a0)
 1457              		.loc 1 469 5 is_stmt 1
 1458              	.LBB47:
 1459              		.loc 1 469 49
 1460              		.loc 1 469 49
 1461              	 #APP
 1462              	# 469 "./../../firmware/debugger/debugger_core.c" 1
 470              	}
 1463              		csrr a5, tdata3
 1464              	# 0 "" 2
 1465              	.LVL167:
 469:./../../firmware/debugger/debugger_core.c **** }
GAS LISTING C:\Users\marwz\AppData\Local\Temp\ccDVLJoD.s 			page 40


 1466              		.loc 1 469 49
 1467              	 #NO_APP
 1468              	.LBE47:
 469:./../../firmware/debugger/debugger_core.c **** }
 1469              		.loc 1 469 47 is_stmt 0
 1470 002a 2328F508 		sw	a5,144(a0)
 1471              	.LVL168:
 1472              	.L103:
 1473              	.LBE44:
 1474              	.LBE43:
 1475              		.loc 1 470 1
 1476 002e 8280     		ret
 1477              		.cfi_endproc
 1478              	.LFE18:
 1480              		.section	.text.dbg_restore_breakpoints,"ax",@progbits
 1481              		.align	1
 1482              		.globl	dbg_restore_breakpoints
 1484              	dbg_restore_breakpoints:
 1485              	.LFB19:
 471:./../../firmware/debugger/debugger_core.c **** 
 472:./../../firmware/debugger/debugger_core.c **** void dbg_restore_breakpoints(dbg_state_t *dbg_state)
 473:./../../firmware/debugger/debugger_core.c **** {
 1486              		.loc 1 473 1 is_stmt 1
 1487              		.cfi_startproc
 1488              	.LVL169:
 474:./../../firmware/debugger/debugger_core.c ****     for (int i = 0; i < DBG_BREAKPOINTS_AVAILABLE; i++) {
 1489              		.loc 1 474 5
 1490              	.LBB48:
 1491              		.loc 1 474 10
 1492 0000 13058508 		addi	a0,a0,136
 1493              	.LVL170:
 1494              		.loc 1 474 14 is_stmt 0
 1495 0004 8147     		li	a5,0
 1496              		.loc 1 474 5
 1497 0006 1147     		li	a4,4
 1498              	.LVL171:
 1499              	.L106:
 475:./../../firmware/debugger/debugger_core.c ****         write_csr(tselect, i);
 1500              		.loc 1 475 9 is_stmt 1
 1501              		.loc 1 475 9
 1502              	 #APP
 1503              	# 475 "./../../firmware/debugger/debugger_core.c" 1
 476              	        write_csr(tdata1, dbg_state->brk[i].tdata[0]);
 1504              		csrw tselect, a5
 1505              	# 0 "" 2
 1506              		.loc 1 476 9
 1507              		.loc 1 476 9
 1508              	 #NO_APP
 1509 000c 1441     		lw	a3,0(a0)
 1510              	 #APP
 1511              	# 476 "./../../firmware/debugger/debugger_core.c" 1
 477              	        write_csr(tdata2, dbg_state->brk[i].tdata[1]);
 1512              		csrw tdata1, a3
 1513              	# 0 "" 2
 1514              		.loc 1 477 9
 1515              		.loc 1 477 9
 1516              	 #NO_APP
GAS LISTING C:\Users\marwz\AppData\Local\Temp\ccDVLJoD.s 			page 41


 1517 0012 5441     		lw	a3,4(a0)
 1518              	 #APP
 1519              	# 477 "./../../firmware/debugger/debugger_core.c" 1
 478              	        //write_csr(0x7a3, dbg_state->brk[i].tdata[2]);
 474:./../../firmware/debugger/debugger_core.c ****     for (int i = 0; i < DBG_BREAKPOINTS_AVAILABLE; i++) {
 1520              		csrw tdata2, a3
 1521              	# 0 "" 2
 1522              		.loc 1 474 53 is_stmt 0
 1523              	 #NO_APP
 1524 0018 8507     		addi	a5,a5,1
 1525              	.LVL172:
 1526 001a 4105     		addi	a0,a0,16
 474:./../../firmware/debugger/debugger_core.c ****     for (int i = 0; i < DBG_BREAKPOINTS_AVAILABLE; i++) {
 1527              		.loc 1 474 5
 1528 001c E396E7FE 		bne	a5,a4,.L106
 1529              	.LBE48:
 479:./../../firmware/debugger/debugger_core.c ****     }
 480:./../../firmware/debugger/debugger_core.c **** }
 1530              		.loc 1 480 1
 1531 0020 8280     		ret
 1532              		.cfi_endproc
 1533              	.LFE19:
 1535              		.section	.text.dbg_checksum,"ax",@progbits
 1536              		.align	1
 1537              		.globl	dbg_checksum
 1539              	dbg_checksum:
 1540              	.LFB20:
 481:./../../firmware/debugger/debugger_core.c **** 
 482:./../../firmware/debugger/debugger_core.c **** #define DBG_MESSAGE_BUFFER_SIZE 512
 483:./../../firmware/debugger/debugger_core.c **** 
 484:./../../firmware/debugger/debugger_core.c **** typedef struct {
 485:./../../firmware/debugger/debugger_core.c ****     uint8_t buffer[DBG_MESSAGE_BUFFER_SIZE];
 486:./../../firmware/debugger/debugger_core.c ****     uint32_t index;
 487:./../../firmware/debugger/debugger_core.c ****     uint8_t state;
 488:./../../firmware/debugger/debugger_core.c **** } dbg_message_containter_t;
 489:./../../firmware/debugger/debugger_core.c **** 
 490:./../../firmware/debugger/debugger_core.c **** uint8_t dbg_checksum(const uint8_t *buffer, uint32_t length)
 491:./../../firmware/debugger/debugger_core.c **** {
 1541              		.loc 1 491 1 is_stmt 1
 1542              		.cfi_startproc
 1543              	.LVL173:
 492:./../../firmware/debugger/debugger_core.c ****     uint32_t checksum = 0;
 1544              		.loc 1 492 5
 493:./../../firmware/debugger/debugger_core.c ****     for (int i = 0; i < length; i++) {
 1545              		.loc 1 493 5
 1546              	.LBB49:
 1547              		.loc 1 493 10
 1548              		.loc 1 493 14 is_stmt 0
 1549 0000 8147     		li	a5,0
 1550              	.LBE49:
 492:./../../firmware/debugger/debugger_core.c ****     uint32_t checksum = 0;
 1551              		.loc 1 492 14
 1552 0002 0147     		li	a4,0
 1553              	.LVL174:
 1554              	.L109:
 1555              	.LBB50:
 1556              		.loc 1 493 5 discriminator 1
GAS LISTING C:\Users\marwz\AppData\Local\Temp\ccDVLJoD.s 			page 42


 1557 0004 6395B700 		bne	a5,a1,.L110
 1558              	.LBE50:
 494:./../../firmware/debugger/debugger_core.c ****         checksum += buffer[i];
 495:./../../firmware/debugger/debugger_core.c ****     }
 496:./../../firmware/debugger/debugger_core.c ****     checksum %= 256;
 1559              		.loc 1 496 5 is_stmt 1
 1560              	.LVL175:
 497:./../../firmware/debugger/debugger_core.c ****     return (uint8_t) checksum;
 1561              		.loc 1 497 5
 498:./../../firmware/debugger/debugger_core.c **** }
 1562              		.loc 1 498 1 is_stmt 0
 1563 0008 1375F70F 		andi	a0,a4,0xff
 1564              	.LVL176:
 1565 000c 8280     		ret
 1566              	.LVL177:
 1567              	.L110:
 1568              	.LBB51:
 494:./../../firmware/debugger/debugger_core.c ****         checksum += buffer[i];
 1569              		.loc 1 494 9 is_stmt 1 discriminator 3
 494:./../../firmware/debugger/debugger_core.c ****         checksum += buffer[i];
 1570              		.loc 1 494 27 is_stmt 0 discriminator 3
 1571 000e B306F500 		add	a3,a0,a5
 1572 0012 83C60600 		lbu	a3,0(a3)
 493:./../../firmware/debugger/debugger_core.c ****         checksum += buffer[i];
 1573              		.loc 1 493 34 discriminator 3
 1574 0016 8507     		addi	a5,a5,1
 1575              	.LVL178:
 494:./../../firmware/debugger/debugger_core.c ****     }
 1576              		.loc 1 494 18 discriminator 3
 1577 0018 3697     		add	a4,a4,a3
 1578              	.LVL179:
 1579 001a EDB7     		j	.L109
 1580              	.LBE51:
 1581              		.cfi_endproc
 1582              	.LFE20:
 1584              		.section	.text.dbg_reply,"ax",@progbits
 1585              		.align	1
 1586              		.globl	dbg_reply
 1588              	dbg_reply:
 1589              	.LFB21:
 499:./../../firmware/debugger/debugger_core.c **** 
 500:./../../firmware/debugger/debugger_core.c **** void dbg_reply(const char *buffer)
 501:./../../firmware/debugger/debugger_core.c **** {
 1590              		.loc 1 501 1 is_stmt 1
 1591              		.cfi_startproc
 1592              	.LVL180:
 502:./../../firmware/debugger/debugger_core.c ****    
 503:./../../firmware/debugger/debugger_core.c ****     uint32_t msg_size = 0;
 1593              		.loc 1 503 5
 504:./../../firmware/debugger/debugger_core.c ****     for(; (msg_size < 1024) && buffer[msg_size]; msg_size++);
 1594              		.loc 1 504 5
 501:./../../firmware/debugger/debugger_core.c ****    
 1595              		.loc 1 501 1 is_stmt 0
 1596 0000 130101DF 		addi	sp,sp,-528
 1597              	.LCFI10:
 1598              		.cfi_def_cfa_offset 528
 1599 0004 23248120 		sw	s0,520(sp)
GAS LISTING C:\Users\marwz\AppData\Local\Temp\ccDVLJoD.s 			page 43


 1600 0008 23261120 		sw	ra,524(sp)
 1601 000c 23229120 		sw	s1,516(sp)
 1602              		.cfi_offset 8, -8
 1603              		.cfi_offset 1, -4
 1604              		.cfi_offset 9, -12
 501:./../../firmware/debugger/debugger_core.c ****    
 1605              		.loc 1 501 1
 1606 0010 2A84     		mv	s0,a0
 503:./../../firmware/debugger/debugger_core.c ****     for(; (msg_size < 1024) && buffer[msg_size]; msg_size++);
 1607              		.loc 1 503 14
 1608 0012 8145     		li	a1,0
 1609              		.loc 1 504 5
 1610 0014 13070040 		li	a4,1024
 1611              	.LVL181:
 1612              	.L112:
 1613              		.loc 1 504 38 discriminator 2
 1614 0018 B307B400 		add	a5,s0,a1
 1615              		.loc 1 504 29 discriminator 2
 1616 001c 83C70700 		lbu	a5,0(a5)
 1617 0020 81C7     		beq	a5,zero,.L113
 1618              		.loc 1 504 61 is_stmt 1 discriminator 3
 1619              		.loc 1 504 58 is_stmt 0 discriminator 3
 1620 0022 8505     		addi	a1,a1,1
 1621              	.LVL182:
 1622              		.loc 1 504 5 discriminator 3
 1623 0024 E39AE5FE 		bne	a1,a4,.L112
 1624              	.L113:
 505:./../../firmware/debugger/debugger_core.c ****     uint8_t checksum = dbg_checksum(buffer, msg_size);
 1625              		.loc 1 505 5 is_stmt 1
 1626              		.loc 1 505 24 is_stmt 0
 1627 0028 2285     		mv	a0,s0
 1628              	.LVL183:
 1629 002a 97000000 		call	dbg_checksum
 1629      E7800000 
 1630              	.LVL184:
 506:./../../firmware/debugger/debugger_core.c ****     uint8_t dbg_msg_buffer[512] = {0};
 1631              		.loc 1 506 13
 1632 0032 8A86     		mv	a3,sp
 1633 0034 8145     		li	a1,0
 505:./../../firmware/debugger/debugger_core.c ****     uint8_t checksum = dbg_checksum(buffer, msg_size);
 1634              		.loc 1 505 24
 1635 0036 AA84     		mv	s1,a0
 1636              	.LVL185:
 1637              		.loc 1 506 5 is_stmt 1
 1638              		.loc 1 506 13 is_stmt 0
 1639 0038 13060020 		li	a2,512
 1640 003c 3685     		mv	a0,a3
 1641 003e 97000000 		call	memset
 1641      E7800000 
 1642              	.LVL186:
 507:./../../firmware/debugger/debugger_core.c ****     uint8_t* dbg_msg_ptr = dbg_msg_buffer;
 508:./../../firmware/debugger/debugger_core.c ****     *dbg_msg_ptr++ = '$';
 1643              		.loc 1 508 20
 1644 0046 93074002 		li	a5,36
 506:./../../firmware/debugger/debugger_core.c ****     uint8_t dbg_msg_buffer[512] = {0};
 1645              		.loc 1 506 13
 1646 004a AA86     		mv	a3,a0
GAS LISTING C:\Users\marwz\AppData\Local\Temp\ccDVLJoD.s 			page 44


 507:./../../firmware/debugger/debugger_core.c ****     uint8_t* dbg_msg_ptr = dbg_msg_buffer;
 1647              		.loc 1 507 5 is_stmt 1
 1648              	.LVL187:
 1649              		.loc 1 508 5
 1650              		.loc 1 508 20 is_stmt 0
 1651 004c 2300F100 		sb	a5,0(sp)
 509:./../../firmware/debugger/debugger_core.c ****     while(*buffer && (dbg_msg_ptr < (dbg_msg_buffer + sizeof(dbg_msg_buffer) - 4))) *dbg_msg_ptr++ 
 1652              		.loc 1 509 5 is_stmt 1
 1653 0050 1307B41F 		addi	a4,s0,507
 508:./../../firmware/debugger/debugger_core.c ****     while(*buffer && (dbg_msg_ptr < (dbg_msg_buffer + sizeof(dbg_msg_buffer) - 4))) *dbg_msg_ptr++ 
 1654              		.loc 1 508 17 is_stmt 0
 1655 0054 93051100 		addi	a1,sp,1
 1656              	.LVL188:
 1657              	.L115:
 1658              		.loc 1 509 11 discriminator 1
 1659 0058 83470400 		lbu	a5,0(s0)
 1660              		.loc 1 509 10 discriminator 1
 1661 005c BDE3     		bne	a5,zero,.L116
 1662              	.L118:
 510:./../../firmware/debugger/debugger_core.c ****     *dbg_msg_ptr++ = '#';
 1663              		.loc 1 510 5 is_stmt 1
 1664              	.LVL189:
 1665              		.loc 1 510 20 is_stmt 0
 1666 005e 93073002 		li	a5,35
 1667 0062 2380F500 		sb	a5,0(a1)
 511:./../../firmware/debugger/debugger_core.c ****     *dbg_msg_ptr++ = dbg_hex_lookup[checksum >> 4];
 1668              		.loc 1 511 5 is_stmt 1
 1669              	.LVL190:
 1670              		.loc 1 511 46 is_stmt 0
 1671 0066 13D74400 		srli	a4,s1,4
 1672              		.loc 1 511 36
 1673 006a B7070000 		lui	a5,%hi(.LANCHOR1)
 1674 006e 93870700 		addi	a5,a5,%lo(.LANCHOR1)
 512:./../../firmware/debugger/debugger_core.c ****     *dbg_msg_ptr++ = dbg_hex_lookup[checksum & 0xF];
 1675              		.loc 1 512 46
 1676 0072 BD88     		andi	s1,s1,15
 1677              	.LVL191:
 511:./../../firmware/debugger/debugger_core.c ****     *dbg_msg_ptr++ = dbg_hex_lookup[checksum >> 4];
 1678              		.loc 1 511 46
 1679 0074 1377F70F 		andi	a4,a4,0xff
 511:./../../firmware/debugger/debugger_core.c ****     *dbg_msg_ptr++ = dbg_hex_lookup[checksum >> 4];
 1680              		.loc 1 511 36
 1681 0078 3E97     		add	a4,a5,a4
 1682              		.loc 1 512 36
 1683 007a A697     		add	a5,a5,s1
 511:./../../firmware/debugger/debugger_core.c ****     *dbg_msg_ptr++ = dbg_hex_lookup[checksum >> 4];
 1684              		.loc 1 511 20
 1685 007c 03470700 		lbu	a4,0(a4)
 1686              		.loc 1 512 20
 1687 0080 83C70700 		lbu	a5,0(a5)
 513:./../../firmware/debugger/debugger_core.c ****     *dbg_msg_ptr = '\0';
 1688              		.loc 1 513 18
 1689 0084 A3810500 		sb	zero,3(a1)
 511:./../../firmware/debugger/debugger_core.c ****     *dbg_msg_ptr++ = dbg_hex_lookup[checksum >> 4];
 1690              		.loc 1 511 20
 1691 0088 A380E500 		sb	a4,1(a1)
 512:./../../firmware/debugger/debugger_core.c ****     *dbg_msg_ptr++ = dbg_hex_lookup[checksum & 0xF];
GAS LISTING C:\Users\marwz\AppData\Local\Temp\ccDVLJoD.s 			page 45


 1692              		.loc 1 512 5 is_stmt 1
 1693              	.LVL192:
 512:./../../firmware/debugger/debugger_core.c ****     *dbg_msg_ptr++ = dbg_hex_lookup[checksum & 0xF];
 1694              		.loc 1 512 20 is_stmt 0
 1695 008c 2381F500 		sb	a5,2(a1)
 1696              		.loc 1 513 5 is_stmt 1
 514:./../../firmware/debugger/debugger_core.c ****     debug_port_print(dbg_msg_buffer, (uint32_t) (dbg_msg_ptr - dbg_msg_buffer));
 1697              		.loc 1 514 5
 512:./../../firmware/debugger/debugger_core.c ****     *dbg_msg_ptr++ = dbg_hex_lookup[checksum & 0xF];
 1698              		.loc 1 512 17 is_stmt 0
 1699 0090 8D05     		addi	a1,a1,3
 1700              	.LVL193:
 1701              		.loc 1 514 5
 1702 0092 3685     		mv	a0,a3
 1703 0094 958D     		sub	a1,a1,a3
 1704              	.LVL194:
 1705 0096 97000000 		call	debug_port_print
 1705      E7800000 
 1706              	.LVL195:
 515:./../../firmware/debugger/debugger_core.c ****     dbg_yield_to_irqs();
 1707              		.loc 1 515 5 is_stmt 1
 1708 009e 97000000 		call	dbg_yield_to_irqs
 1708      E7800000 
 1709              	.LVL196:
 516:./../../firmware/debugger/debugger_core.c ****     //fflush(0);
 517:./../../firmware/debugger/debugger_core.c ****     dbg_delay_1ms(1);
 1710              		.loc 1 517 5
 1711 00a6 0545     		li	a0,1
 1712 00a8 97000000 		call	dbg_delay_1ms
 1712      E7800000 
 1713              	.LVL197:
 518:./../../firmware/debugger/debugger_core.c **** 
 519:./../../firmware/debugger/debugger_core.c **** }
 1714              		.loc 1 519 1 is_stmt 0
 1715 00b0 8320C120 		lw	ra,524(sp)
 1716              		.cfi_remember_state
 1717              		.cfi_restore 1
 1718 00b4 03248120 		lw	s0,520(sp)
 1719              		.cfi_restore 8
 1720              	.LVL198:
 1721 00b8 83244120 		lw	s1,516(sp)
 1722              		.cfi_restore 9
 1723 00bc 13010121 		addi	sp,sp,528
 1724              	.LCFI11:
 1725              		.cfi_def_cfa_offset 0
 1726 00c0 8280     		jr	ra
 1727              	.LVL199:
 1728              	.L116:
 1729              	.LCFI12:
 1730              		.cfi_restore_state
 509:./../../firmware/debugger/debugger_core.c ****     *dbg_msg_ptr++ = '#';
 1731              		.loc 1 509 19 discriminator 2
 1732 00c2 E30EE4F8 		beq	s0,a4,.L118
 509:./../../firmware/debugger/debugger_core.c ****     *dbg_msg_ptr++ = '#';
 1733              		.loc 1 509 85 is_stmt 1 discriminator 3
 509:./../../firmware/debugger/debugger_core.c ****     *dbg_msg_ptr++ = '#';
 1734              		.loc 1 509 97 is_stmt 0 discriminator 3
GAS LISTING C:\Users\marwz\AppData\Local\Temp\ccDVLJoD.s 			page 46


 1735 00c6 8505     		addi	a1,a1,1
 1736              	.LVL200:
 509:./../../firmware/debugger/debugger_core.c ****     *dbg_msg_ptr++ = '#';
 1737              		.loc 1 509 109 discriminator 3
 1738 00c8 0504     		addi	s0,s0,1
 1739              	.LVL201:
 509:./../../firmware/debugger/debugger_core.c ****     *dbg_msg_ptr++ = '#';
 1740              		.loc 1 509 100 discriminator 3
 1741 00ca A38FF5FE 		sb	a5,-1(a1)
 1742 00ce 69B7     		j	.L115
 1743              		.cfi_endproc
 1744              	.LFE21:
 1746              		.section	.text.dbg_match,"ax",@progbits
 1747              		.align	1
 1748              		.globl	dbg_match
 1750              	dbg_match:
 1751              	.LFB22:
 520:./../../firmware/debugger/debugger_core.c **** 
 521:./../../firmware/debugger/debugger_core.c **** uint8_t dbg_match(uint8_t *comp, const uint8_t *match_to)
 522:./../../firmware/debugger/debugger_core.c **** {
 1752              		.loc 1 522 1 is_stmt 1
 1753              		.cfi_startproc
 1754              	.LVL202:
 523:./../../firmware/debugger/debugger_core.c ****     uint32_t match_size = 0;
 1755              		.loc 1 523 5
 524:./../../firmware/debugger/debugger_core.c ****     for(; (match_size < 1024) && match_to[match_size]; match_size++);
 1756              		.loc 1 524 5
 523:./../../firmware/debugger/debugger_core.c ****     uint32_t match_size = 0;
 1757              		.loc 1 523 14 is_stmt 0
 1758 0000 8147     		li	a5,0
 1759              		.loc 1 524 5
 1760 0002 93060040 		li	a3,1024
 1761              	.LVL203:
 1762              	.L122:
 1763              		.loc 1 524 42 discriminator 2
 1764 0006 3387F500 		add	a4,a1,a5
 1765              		.loc 1 524 31 discriminator 2
 1766 000a 03470700 		lbu	a4,0(a4)
 1767 000e 01C7     		beq	a4,zero,.L123
 1768              		.loc 1 524 69 is_stmt 1 discriminator 3
 1769              		.loc 1 524 66 is_stmt 0 discriminator 3
 1770 0010 8507     		addi	a5,a5,1
 1771              	.LVL204:
 1772              		.loc 1 524 5 discriminator 3
 1773 0012 E39AD7FE 		bne	a5,a3,.L122
 1774              	.L123:
 523:./../../firmware/debugger/debugger_core.c ****     uint32_t match_size = 0;
 1775              		.loc 1 523 14 discriminator 1
 1776 0016 0147     		li	a4,0
 1777              	.L125:
 1778              	.LVL205:
 1779              	.LBB52:
 525:./../../firmware/debugger/debugger_core.c ****     for (int i = 0; i < match_size; i++) {
 1780              		.loc 1 525 5 discriminator 1
 1781 0018 6314F700 		bne	a4,a5,.L127
 1782              	.LBE52:
 526:./../../firmware/debugger/debugger_core.c ****         if(comp[i] != match_to[i]) return 0;
GAS LISTING C:\Users\marwz\AppData\Local\Temp\ccDVLJoD.s 			page 47


 527:./../../firmware/debugger/debugger_core.c ****     }
 528:./../../firmware/debugger/debugger_core.c ****     return 1;
 1783              		.loc 1 528 12
 1784 001c 0545     		li	a0,1
 1785              	.LVL206:
 1786              	.LBB53:
 1787 001e 8280     		ret
 1788              	.LVL207:
 1789              	.L127:
 526:./../../firmware/debugger/debugger_core.c ****         if(comp[i] != match_to[i]) return 0;
 1790              		.loc 1 526 9 is_stmt 1
 526:./../../firmware/debugger/debugger_core.c ****         if(comp[i] != match_to[i]) return 0;
 1791              		.loc 1 526 16 is_stmt 0
 1792 0020 3306E500 		add	a2,a0,a4
 526:./../../firmware/debugger/debugger_core.c ****         if(comp[i] != match_to[i]) return 0;
 1793              		.loc 1 526 20
 1794 0024 B386E500 		add	a3,a1,a4
 526:./../../firmware/debugger/debugger_core.c ****         if(comp[i] != match_to[i]) return 0;
 1795              		.loc 1 526 11
 1796 0028 03460600 		lbu	a2,0(a2)
 1797 002c 83C60600 		lbu	a3,0(a3)
 1798 0030 6314D600 		bne	a2,a3,.L128
 525:./../../firmware/debugger/debugger_core.c ****     for (int i = 0; i < match_size; i++) {
 1799              		.loc 1 525 38 discriminator 2
 1800 0034 0507     		addi	a4,a4,1
 1801              	.LVL208:
 1802 0036 CDB7     		j	.L125
 1803              	.L128:
 526:./../../firmware/debugger/debugger_core.c ****         if(comp[i] != match_to[i]) return 0;
 1804              		.loc 1 526 43
 1805 0038 0145     		li	a0,0
 1806              	.LVL209:
 1807              	.LBE53:
 529:./../../firmware/debugger/debugger_core.c **** }
 1808              		.loc 1 529 1
 1809 003a 8280     		ret
 1810              		.cfi_endproc
 1811              	.LFE22:
 1813              		.section	.text.dbg_check_messages,"ax",@progbits
 1814              		.align	1
 1815              		.globl	dbg_check_messages
 1817              	dbg_check_messages:
 1818              	.LFB23:
 530:./../../firmware/debugger/debugger_core.c **** 
 531:./../../firmware/debugger/debugger_core.c **** enum dbg_msg_state {
 532:./../../firmware/debugger/debugger_core.c ****     DBG_MSG_WAITING,
 533:./../../firmware/debugger/debugger_core.c ****     DBG_MSG_RECEIVING,
 534:./../../firmware/debugger/debugger_core.c ****     DBG_MSG_CHKSUM1,
 535:./../../firmware/debugger/debugger_core.c ****     DBG_MSG_CHKSUM2
 536:./../../firmware/debugger/debugger_core.c **** };
 537:./../../firmware/debugger/debugger_core.c **** 
 538:./../../firmware/debugger/debugger_core.c **** int32_t dbg_check_messages(uint8_t *message_buffer)
 539:./../../firmware/debugger/debugger_core.c **** {
 1819              		.loc 1 539 1 is_stmt 1
 1820              		.cfi_startproc
 1821              	.LVL210:
 540:./../../firmware/debugger/debugger_core.c ****     static dbg_message_containter_t buf = {.index = 0, .state = DBG_MSG_WAITING};
GAS LISTING C:\Users\marwz\AppData\Local\Temp\ccDVLJoD.s 			page 48


 1822              		.loc 1 540 5
 541:./../../firmware/debugger/debugger_core.c ****     uint8_t temp_buffer[512] = {0};
 1823              		.loc 1 541 5
 539:./../../firmware/debugger/debugger_core.c ****     static dbg_message_containter_t buf = {.index = 0, .state = DBG_MSG_WAITING};
 1824              		.loc 1 539 1 is_stmt 0
 1825 0000 130101DD 		addi	sp,sp,-560
 1826              	.LCFI13:
 1827              		.cfi_def_cfa_offset 560
 1828 0004 232E3121 		sw	s3,540(sp)
 1829              		.loc 1 541 13
 1830 0008 13060020 		li	a2,512
 1831 000c 8145     		li	a1,0
 1832              		.cfi_offset 19, -20
 539:./../../firmware/debugger/debugger_core.c ****     static dbg_message_containter_t buf = {.index = 0, .state = DBG_MSG_WAITING};
 1833              		.loc 1 539 1
 1834 000e AA89     		mv	s3,a0
 1835              		.loc 1 541 13
 1836 0010 0A85     		mv	a0,sp
 1837              	.LVL211:
 539:./../../firmware/debugger/debugger_core.c ****     static dbg_message_containter_t buf = {.index = 0, .state = DBG_MSG_WAITING};
 1838              		.loc 1 539 1
 1839 0012 23261122 		sw	ra,556(sp)
 1840 0016 23229122 		sw	s1,548(sp)
 1841 001a 23248122 		sw	s0,552(sp)
 1842 001e 23202123 		sw	s2,544(sp)
 1843 0022 232C4121 		sw	s4,536(sp)
 1844 0026 232A5121 		sw	s5,532(sp)
 1845 002a 23286121 		sw	s6,528(sp)
 1846 002e 23267121 		sw	s7,524(sp)
 1847 0032 23248121 		sw	s8,520(sp)
 1848 0036 23229121 		sw	s9,516(sp)
 1849              		.cfi_offset 1, -4
 1850              		.cfi_offset 9, -12
 1851              		.cfi_offset 8, -8
 1852              		.cfi_offset 18, -16
 1853              		.cfi_offset 20, -24
 1854              		.cfi_offset 21, -28
 1855              		.cfi_offset 22, -32
 1856              		.cfi_offset 23, -36
 1857              		.cfi_offset 24, -40
 1858              		.cfi_offset 25, -44
 1859              		.loc 1 541 13
 1860 003a 97000000 		call	memset
 1860      E7800000 
 1861              	.LVL212:
 542:./../../firmware/debugger/debugger_core.c ****     uint32_t read_bytes = debug_port_read(temp_buffer, 512);
 1862              		.loc 1 542 5 is_stmt 1
 1863              		.loc 1 542 27 is_stmt 0
 1864 0042 93050020 		li	a1,512
 1865 0046 0A85     		mv	a0,sp
 1866 0048 97000000 		call	debug_port_read
 1866      E7800000 
 1867              	.LVL213:
 543:./../../firmware/debugger/debugger_core.c ****     uint32_t return_size = 0;
 1868              		.loc 1 543 5 is_stmt 1
 544:./../../firmware/debugger/debugger_core.c ****     if (read_bytes) {
 1869              		.loc 1 544 5
GAS LISTING C:\Users\marwz\AppData\Local\Temp\ccDVLJoD.s 			page 49


 543:./../../firmware/debugger/debugger_core.c ****     uint32_t return_size = 0;
 1870              		.loc 1 543 14 is_stmt 0
 1871 0050 8144     		li	s1,0
 1872              		.loc 1 544 8
 1873 0052 2DC5     		beq	a0,zero,.L130
 1874 0054 37040000 		lui	s0,%hi(.LANCHOR2)
 1875 0058 2A8A     		mv	s4,a0
 1876              	.LBB54:
 545:./../../firmware/debugger/debugger_core.c ****         for (int i = 0; i < read_bytes; i++) {
 1877              		.loc 1 545 18
 1878 005a 0149     		li	s2,0
 1879              	.LBE54:
 543:./../../firmware/debugger/debugger_core.c ****     uint32_t return_size = 0;
 1880              		.loc 1 543 14
 1881 005c 8144     		li	s1,0
 1882              	.LBB58:
 546:./../../firmware/debugger/debugger_core.c ****             if (temp_buffer[i] == '$') {
 1883              		.loc 1 546 16
 1884 005e 930B4002 		li	s7,36
 1885 0062 13040400 		addi	s0,s0,%lo(.LANCHOR2)
 547:./../../firmware/debugger/debugger_core.c ****                 buf.state = DBG_MSG_RECEIVING;
 548:./../../firmware/debugger/debugger_core.c ****                 buf.index = 0;
 549:./../../firmware/debugger/debugger_core.c ****             }
 550:./../../firmware/debugger/debugger_core.c ****             switch (buf.state) {
 551:./../../firmware/debugger/debugger_core.c ****                 case DBG_MSG_RECEIVING:
 552:./../../firmware/debugger/debugger_core.c ****                     buf.buffer[buf.index++] = temp_buffer[i];
 553:./../../firmware/debugger/debugger_core.c ****                     if (temp_buffer[i] == '#') {
 1886              		.loc 1 553 24
 1887 0066 130C3002 		li	s8,35
 554:./../../firmware/debugger/debugger_core.c ****                         buf.state = DBG_MSG_CHKSUM1;
 1888              		.loc 1 554 35
 1889 006a 894A     		li	s5,2
 555:./../../firmware/debugger/debugger_core.c ****                     }
 556:./../../firmware/debugger/debugger_core.c ****                     break;
 557:./../../firmware/debugger/debugger_core.c **** 
 558:./../../firmware/debugger/debugger_core.c ****                 case DBG_MSG_CHKSUM1:
 559:./../../firmware/debugger/debugger_core.c ****                     buf.buffer[buf.index++] = temp_buffer[i];
 560:./../../firmware/debugger/debugger_core.c ****                     buf.state = DBG_MSG_CHKSUM2;
 1890              		.loc 1 560 31
 1891 006c 0D4B     		li	s6,3
 561:./../../firmware/debugger/debugger_core.c ****                     break;
 562:./../../firmware/debugger/debugger_core.c **** 
 563:./../../firmware/debugger/debugger_core.c ****                 case DBG_MSG_CHKSUM2:
 564:./../../firmware/debugger/debugger_core.c ****                     buf.buffer[buf.index++] = temp_buffer[i];
 565:./../../firmware/debugger/debugger_core.c ****                     buf.state = DBG_MSG_WAITING;
 566:./../../firmware/debugger/debugger_core.c ****                     
 567:./../../firmware/debugger/debugger_core.c ****                     for (int i = 0; i < buf.index; i++) {
 568:./../../firmware/debugger/debugger_core.c ****                         message_buffer[i] = buf.buffer[i];
 569:./../../firmware/debugger/debugger_core.c ****                     }
 570:./../../firmware/debugger/debugger_core.c ****                     message_buffer[buf.index] = '\0';
 571:./../../firmware/debugger/debugger_core.c ****                     return_size = buf.index;
 572:./../../firmware/debugger/debugger_core.c ****                     buf.index = 0;
 573:./../../firmware/debugger/debugger_core.c ****                     debug_port_print("+", 1);
 1892              		.loc 1 573 21
 1893 006e B70C0000 		lui	s9,%hi(.LC0)
 1894              	.LVL214:
 1895              	.L138:
GAS LISTING C:\Users\marwz\AppData\Local\Temp\ccDVLJoD.s 			page 50


 546:./../../firmware/debugger/debugger_core.c ****                 buf.state = DBG_MSG_RECEIVING;
 1896              		.loc 1 546 13 is_stmt 1
 546:./../../firmware/debugger/debugger_core.c ****                 buf.state = DBG_MSG_RECEIVING;
 1897              		.loc 1 546 28 is_stmt 0
 1898 0072 B3072101 		add	a5,sp,s2
 1899 0076 83C70700 		lbu	a5,0(a5)
 546:./../../firmware/debugger/debugger_core.c ****                 buf.state = DBG_MSG_RECEIVING;
 1900              		.loc 1 546 16
 1901 007a 63957703 		bne	a5,s7,.L131
 547:./../../firmware/debugger/debugger_core.c ****                 buf.index = 0;
 1902              		.loc 1 547 17 is_stmt 1
 547:./../../firmware/debugger/debugger_core.c ****                 buf.index = 0;
 1903              		.loc 1 547 27 is_stmt 0
 1904 007e 0547     		li	a4,1
 1905 0080 2302E420 		sb	a4,516(s0)
 548:./../../firmware/debugger/debugger_core.c ****             }
 1906              		.loc 1 548 17 is_stmt 1
 548:./../../firmware/debugger/debugger_core.c ****             }
 1907              		.loc 1 548 27 is_stmt 0
 1908 0084 23200420 		sw	zero,512(s0)
 550:./../../firmware/debugger/debugger_core.c ****                 case DBG_MSG_RECEIVING:
 1909              		.loc 1 550 13 is_stmt 1
 1910              	.L132:
 552:./../../firmware/debugger/debugger_core.c ****                     if (temp_buffer[i] == '#') {
 1911              		.loc 1 552 21
 552:./../../firmware/debugger/debugger_core.c ****                     if (temp_buffer[i] == '#') {
 1912              		.loc 1 552 35 is_stmt 0
 1913 0088 03270420 		lw	a4,512(s0)
 552:./../../firmware/debugger/debugger_core.c ****                     if (temp_buffer[i] == '#') {
 1914              		.loc 1 552 41
 1915 008c 93061700 		addi	a3,a4,1
 552:./../../firmware/debugger/debugger_core.c ****                     if (temp_buffer[i] == '#') {
 1916              		.loc 1 552 45
 1917 0090 2297     		add	a4,s0,a4
 552:./../../firmware/debugger/debugger_core.c ****                     if (temp_buffer[i] == '#') {
 1918              		.loc 1 552 41
 1919 0092 2320D420 		sw	a3,512(s0)
 552:./../../firmware/debugger/debugger_core.c ****                     if (temp_buffer[i] == '#') {
 1920              		.loc 1 552 45
 1921 0096 2300F700 		sb	a5,0(a4)
 553:./../../firmware/debugger/debugger_core.c ****                         buf.state = DBG_MSG_CHKSUM1;
 1922              		.loc 1 553 21 is_stmt 1
 553:./../../firmware/debugger/debugger_core.c ****                         buf.state = DBG_MSG_CHKSUM1;
 1923              		.loc 1 553 24 is_stmt 0
 1924 009a 639E8701 		bne	a5,s8,.L135
 554:./../../firmware/debugger/debugger_core.c ****                     }
 1925              		.loc 1 554 25 is_stmt 1
 554:./../../firmware/debugger/debugger_core.c ****                     }
 1926              		.loc 1 554 35 is_stmt 0
 1927 009e 23025421 		sb	s5,516(s0)
 1928 00a2 11A8     		j	.L135
 1929              	.L131:
 550:./../../firmware/debugger/debugger_core.c ****                 case DBG_MSG_RECEIVING:
 1930              		.loc 1 550 13 is_stmt 1
 550:./../../firmware/debugger/debugger_core.c ****                 case DBG_MSG_RECEIVING:
 1931              		.loc 1 550 24 is_stmt 0
 1932 00a4 03474420 		lbu	a4,516(s0)
GAS LISTING C:\Users\marwz\AppData\Local\Temp\ccDVLJoD.s 			page 51


 550:./../../firmware/debugger/debugger_core.c ****                 case DBG_MSG_RECEIVING:
 1933              		.loc 1 550 13
 1934 00a8 63045705 		beq	a4,s5,.L133
 1935 00ac 630E6705 		beq	a4,s6,.L134
 1936 00b0 8546     		li	a3,1
 1937 00b2 E30BD7FC 		beq	a4,a3,.L132
 1938              	.L135:
 545:./../../firmware/debugger/debugger_core.c ****             if (temp_buffer[i] == '$') {
 1939              		.loc 1 545 42 discriminator 2
 1940 00b6 0509     		addi	s2,s2,1
 1941              	.LVL215:
 545:./../../firmware/debugger/debugger_core.c ****             if (temp_buffer[i] == '$') {
 1942              		.loc 1 545 9 discriminator 2
 1943 00b8 E31D2AFB 		bne	s4,s2,.L138
 1944              	.LVL216:
 1945              	.L130:
 1946              	.LBE58:
 574:./../../firmware/debugger/debugger_core.c ****                     dbg_yield_to_irqs();
 575:./../../firmware/debugger/debugger_core.c ****                     break;
 576:./../../firmware/debugger/debugger_core.c ****             }
 577:./../../firmware/debugger/debugger_core.c ****         }
 578:./../../firmware/debugger/debugger_core.c ****     }
 579:./../../firmware/debugger/debugger_core.c ****     return return_size;
 1947              		.loc 1 579 5 is_stmt 1
 580:./../../firmware/debugger/debugger_core.c **** }
 1948              		.loc 1 580 1 is_stmt 0
 1949 00bc 8320C122 		lw	ra,556(sp)
 1950              		.cfi_remember_state
 1951              		.cfi_restore 1
 1952 00c0 03248122 		lw	s0,552(sp)
 1953              		.cfi_restore 8
 1954 00c4 2685     		mv	a0,s1
 1955 00c6 03290122 		lw	s2,544(sp)
 1956              		.cfi_restore 18
 1957 00ca 83244122 		lw	s1,548(sp)
 1958              		.cfi_restore 9
 1959              	.LVL217:
 1960 00ce 8329C121 		lw	s3,540(sp)
 1961              		.cfi_restore 19
 1962              	.LVL218:
 1963 00d2 032A8121 		lw	s4,536(sp)
 1964              		.cfi_restore 20
 1965 00d6 832A4121 		lw	s5,532(sp)
 1966              		.cfi_restore 21
 1967 00da 032B0121 		lw	s6,528(sp)
 1968              		.cfi_restore 22
 1969 00de 832BC120 		lw	s7,524(sp)
 1970              		.cfi_restore 23
 1971 00e2 032C8120 		lw	s8,520(sp)
 1972              		.cfi_restore 24
 1973 00e6 832C4120 		lw	s9,516(sp)
 1974              		.cfi_restore 25
 1975 00ea 13010123 		addi	sp,sp,560
 1976              	.LCFI14:
 1977              		.cfi_def_cfa_offset 0
 1978 00ee 8280     		jr	ra
 1979              	.LVL219:
GAS LISTING C:\Users\marwz\AppData\Local\Temp\ccDVLJoD.s 			page 52


 1980              	.L133:
 1981              	.LCFI15:
 1982              		.cfi_restore_state
 1983              	.LBB59:
 559:./../../firmware/debugger/debugger_core.c ****                     buf.state = DBG_MSG_CHKSUM2;
 1984              		.loc 1 559 21 is_stmt 1
 559:./../../firmware/debugger/debugger_core.c ****                     buf.state = DBG_MSG_CHKSUM2;
 1985              		.loc 1 559 35 is_stmt 0
 1986 00f0 03270420 		lw	a4,512(s0)
 560:./../../firmware/debugger/debugger_core.c ****                     break;
 1987              		.loc 1 560 31
 1988 00f4 23026421 		sb	s6,516(s0)
 559:./../../firmware/debugger/debugger_core.c ****                     buf.state = DBG_MSG_CHKSUM2;
 1989              		.loc 1 559 41
 1990 00f8 93061700 		addi	a3,a4,1
 559:./../../firmware/debugger/debugger_core.c ****                     buf.state = DBG_MSG_CHKSUM2;
 1991              		.loc 1 559 45
 1992 00fc 2297     		add	a4,s0,a4
 559:./../../firmware/debugger/debugger_core.c ****                     buf.state = DBG_MSG_CHKSUM2;
 1993              		.loc 1 559 41
 1994 00fe 2320D420 		sw	a3,512(s0)
 559:./../../firmware/debugger/debugger_core.c ****                     buf.state = DBG_MSG_CHKSUM2;
 1995              		.loc 1 559 45
 1996 0102 2300F700 		sb	a5,0(a4)
 560:./../../firmware/debugger/debugger_core.c ****                     break;
 1997              		.loc 1 560 21 is_stmt 1
 561:./../../firmware/debugger/debugger_core.c **** 
 1998              		.loc 1 561 21
 1999 0106 45BF     		j	.L135
 2000              	.L134:
 564:./../../firmware/debugger/debugger_core.c ****                     buf.state = DBG_MSG_WAITING;
 2001              		.loc 1 564 21
 564:./../../firmware/debugger/debugger_core.c ****                     buf.state = DBG_MSG_WAITING;
 2002              		.loc 1 564 35 is_stmt 0
 2003 0108 03270420 		lw	a4,512(s0)
 565:./../../firmware/debugger/debugger_core.c ****                     
 2004              		.loc 1 565 31
 2005 010c 23020420 		sb	zero,516(s0)
 564:./../../firmware/debugger/debugger_core.c ****                     buf.state = DBG_MSG_WAITING;
 2006              		.loc 1 564 41
 2007 0110 93041700 		addi	s1,a4,1
 2008              	.LVL220:
 564:./../../firmware/debugger/debugger_core.c ****                     buf.state = DBG_MSG_WAITING;
 2009              		.loc 1 564 45
 2010 0114 2297     		add	a4,s0,a4
 2011 0116 2300F700 		sb	a5,0(a4)
 565:./../../firmware/debugger/debugger_core.c ****                     
 2012              		.loc 1 565 21 is_stmt 1
 567:./../../firmware/debugger/debugger_core.c ****                         message_buffer[i] = buf.buffer[i];
 2013              		.loc 1 567 21
 2014              	.LBB55:
 567:./../../firmware/debugger/debugger_core.c ****                         message_buffer[i] = buf.buffer[i];
 2015              		.loc 1 567 26
 2016              	.LVL221:
 2017              	.LBE55:
 564:./../../firmware/debugger/debugger_core.c ****                     buf.state = DBG_MSG_WAITING;
 2018              		.loc 1 564 41 is_stmt 0
GAS LISTING C:\Users\marwz\AppData\Local\Temp\ccDVLJoD.s 			page 53


 2019 011a 23209420 		sw	s1,512(s0)
 2020              	.LBB56:
 567:./../../firmware/debugger/debugger_core.c ****                         message_buffer[i] = buf.buffer[i];
 2021              		.loc 1 567 30
 2022 011e 8147     		li	a5,0
 2023              	.LVL222:
 2024              	.L136:
 567:./../../firmware/debugger/debugger_core.c ****                         message_buffer[i] = buf.buffer[i];
 2025              		.loc 1 567 21 discriminator 1
 2026 0120 63E49702 		bgtu	s1,a5,.L137
 2027              	.LBE56:
 570:./../../firmware/debugger/debugger_core.c ****                     return_size = buf.index;
 2028              		.loc 1 570 21 is_stmt 1
 570:./../../firmware/debugger/debugger_core.c ****                     return_size = buf.index;
 2029              		.loc 1 570 47 is_stmt 0
 2030 0124 B3879900 		add	a5,s3,s1
 2031              	.LVL223:
 2032 0128 23800700 		sb	zero,0(a5)
 571:./../../firmware/debugger/debugger_core.c ****                     buf.index = 0;
 2033              		.loc 1 571 21 is_stmt 1
 2034              	.LVL224:
 572:./../../firmware/debugger/debugger_core.c ****                     debug_port_print("+", 1);
 2035              		.loc 1 572 21
 573:./../../firmware/debugger/debugger_core.c ****                     dbg_yield_to_irqs();
 2036              		.loc 1 573 21 is_stmt 0
 2037 012c 8545     		li	a1,1
 2038 012e 13850C00 		addi	a0,s9,%lo(.LC0)
 572:./../../firmware/debugger/debugger_core.c ****                     debug_port_print("+", 1);
 2039              		.loc 1 572 31
 2040 0132 23200420 		sw	zero,512(s0)
 573:./../../firmware/debugger/debugger_core.c ****                     dbg_yield_to_irqs();
 2041              		.loc 1 573 21 is_stmt 1
 2042 0136 97000000 		call	debug_port_print
 2042      E7800000 
 2043              	.LVL225:
 574:./../../firmware/debugger/debugger_core.c ****                     break;
 2044              		.loc 1 574 21
 2045 013e 97000000 		call	dbg_yield_to_irqs
 2045      E7800000 
 2046              	.LVL226:
 575:./../../firmware/debugger/debugger_core.c ****             }
 2047              		.loc 1 575 21
 2048 0146 85BF     		j	.L135
 2049              	.LVL227:
 2050              	.L137:
 2051              	.LBB57:
 568:./../../firmware/debugger/debugger_core.c ****                     }
 2052              		.loc 1 568 25 discriminator 3
 568:./../../firmware/debugger/debugger_core.c ****                     }
 2053              		.loc 1 568 55 is_stmt 0 discriminator 3
 2054 0148 3307F400 		add	a4,s0,a5
 2055 014c 83460700 		lbu	a3,0(a4)
 568:./../../firmware/debugger/debugger_core.c ****                     }
 2056              		.loc 1 568 43 discriminator 3
 2057 0150 3387F900 		add	a4,s3,a5
 567:./../../firmware/debugger/debugger_core.c ****                         message_buffer[i] = buf.buffer[i];
 2058              		.loc 1 567 53 discriminator 3
GAS LISTING C:\Users\marwz\AppData\Local\Temp\ccDVLJoD.s 			page 54


 2059 0154 8507     		addi	a5,a5,1
 2060              	.LVL228:
 568:./../../firmware/debugger/debugger_core.c ****                     }
 2061              		.loc 1 568 43 discriminator 3
 2062 0156 2300D700 		sb	a3,0(a4)
 2063 015a D9B7     		j	.L136
 2064              	.LBE57:
 2065              	.LBE59:
 2066              		.cfi_endproc
 2067              	.LFE23:
 2069              		.section	.text.dbg_parse_hex,"ax",@progbits
 2070              		.align	1
 2071              		.globl	dbg_parse_hex
 2073              	dbg_parse_hex:
 2074              	.LFB24:
 581:./../../firmware/debugger/debugger_core.c **** 
 582:./../../firmware/debugger/debugger_core.c **** uint8_t* dbg_parse_hex(char *str, uint32_t max_size, uint32_t *result)
 583:./../../firmware/debugger/debugger_core.c **** {
 2075              		.loc 1 583 1 is_stmt 1
 2076              		.cfi_startproc
 2077              	.LVL229:
 584:./../../firmware/debugger/debugger_core.c ****     uint32_t index = 0;
 2078              		.loc 1 584 5
 585:./../../firmware/debugger/debugger_core.c ****     *result = 0;
 2079              		.loc 1 585 5
 2080              		.loc 1 585 13 is_stmt 0
 2081 0000 23200600 		sw	zero,0(a2)
 586:./../../firmware/debugger/debugger_core.c ****     while (((str[index] >= '0') && (str[index] <= '9')) ||  
 2082              		.loc 1 586 5 is_stmt 1
 2083              		.loc 1 586 11 is_stmt 0
 2084 0004 2548     		li	a6,9
 2085              		.loc 1 586 57
 2086 0006 9546     		li	a3,5
 587:./../../firmware/debugger/debugger_core.c ****           ((str[index] >= 'a') && (str[index] <= 'f')) ||  
 588:./../../firmware/debugger/debugger_core.c ****           ((str[index] >= 'A') && (str[index] <= 'F')) &&
 2087              		.loc 1 588 56
 2088 0008 AA95     		add	a1,a0,a1
 2089              	.LVL230:
 2090              	.L143:
 586:./../../firmware/debugger/debugger_core.c ****     while (((str[index] >= '0') && (str[index] <= '9')) ||  
 2091              		.loc 1 586 17
 2092 000a 03470500 		lbu	a4,0(a0)
 586:./../../firmware/debugger/debugger_core.c ****     while (((str[index] >= '0') && (str[index] <= '9')) ||  
 2093              		.loc 1 586 33
 2094 000e 930707FD 		addi	a5,a4,-48
 586:./../../firmware/debugger/debugger_core.c ****     while (((str[index] >= '0') && (str[index] <= '9')) ||  
 2095              		.loc 1 586 11
 2096 0012 93F7F70F 		andi	a5,a5,0xff
 2097 0016 6371F802 		bleu	a5,a6,.L145
 587:./../../firmware/debugger/debugger_core.c ****           ((str[index] >= 'a') && (str[index] <= 'f')) ||  
 2098              		.loc 1 587 32 discriminator 1
 2099 001a 9307F7F9 		addi	a5,a4,-97
 586:./../../firmware/debugger/debugger_core.c ****     while (((str[index] >= '0') && (str[index] <= '9')) ||  
 2100              		.loc 1 586 57 discriminator 1
 2101 001e 93F7F70F 		andi	a5,a5,0xff
 2102 0022 63F8F602 		bleu	a5,a3,.L146
 2103              		.loc 1 588 32
GAS LISTING C:\Users\marwz\AppData\Local\Temp\ccDVLJoD.s 			page 55


 2104 0026 9307F7FB 		addi	a5,a4,-65
 587:./../../firmware/debugger/debugger_core.c ****           ((str[index] >= 'a') && (str[index] <= 'f')) ||  
 2105              		.loc 1 587 56
 2106 002a 93F7F70F 		andi	a5,a5,0xff
 2107 002e 63E4F600 		bgtu	a5,a3,.L142
 2108              		.loc 1 588 56
 2109 0032 631BB500 		bne	a0,a1,.L148
 2110              	.L142:
 589:./../../firmware/debugger/debugger_core.c ****            (max_size > 0)) {
 590:./../../firmware/debugger/debugger_core.c ****                
 591:./../../firmware/debugger/debugger_core.c ****         if (str[index] <= '9') *result = (*result * 16) + (str[index] - '0');
 592:./../../firmware/debugger/debugger_core.c ****         else if (str[index] <= 'F') *result = (*result * 16) + (str[index] - 'A' + 10);
 593:./../../firmware/debugger/debugger_core.c ****         else if (str[index] <= 'f') *result = (*result * 16) + (str[index] - 'a' + 10);
 594:./../../firmware/debugger/debugger_core.c ****         index++;
 595:./../../firmware/debugger/debugger_core.c ****         max_size--;
 596:./../../firmware/debugger/debugger_core.c ****     }
 597:./../../firmware/debugger/debugger_core.c ****     return &str[index];
 598:./../../firmware/debugger/debugger_core.c **** }
 2111              		.loc 1 598 1
 2112 0036 8280     		ret
 2113              	.L145:
 591:./../../firmware/debugger/debugger_core.c ****         else if (str[index] <= 'F') *result = (*result * 16) + (str[index] - 'A' + 10);
 2114              		.loc 1 591 32 is_stmt 1 discriminator 1
 591:./../../firmware/debugger/debugger_core.c ****         else if (str[index] <= 'F') *result = (*result * 16) + (str[index] - 'A' + 10);
 2115              		.loc 1 591 51 is_stmt 0 discriminator 1
 2116 0038 1C42     		lw	a5,0(a2)
 2117 003a 9207     		slli	a5,a5,4
 591:./../../firmware/debugger/debugger_core.c ****         else if (str[index] <= 'F') *result = (*result * 16) + (str[index] - 'A' + 10);
 2118              		.loc 1 591 57 discriminator 1
 2119 003c 938707FD 		addi	a5,a5,-48
 2120              	.L150:
 593:./../../firmware/debugger/debugger_core.c ****         index++;
 2121              		.loc 1 593 62 discriminator 1
 2122 0040 BA97     		add	a5,a5,a4
 593:./../../firmware/debugger/debugger_core.c ****         index++;
 2123              		.loc 1 593 45 discriminator 1
 2124 0042 1CC2     		sw	a5,0(a2)
 594:./../../firmware/debugger/debugger_core.c ****         max_size--;
 2125              		.loc 1 594 9 is_stmt 1 discriminator 1
 2126              	.LVL231:
 595:./../../firmware/debugger/debugger_core.c ****     }
 2127              		.loc 1 595 9 discriminator 1
 2128 0044 0505     		addi	a0,a0,1
 2129              	.LVL232:
 2130 0046 D1B7     		j	.L143
 2131              	.LVL233:
 2132              	.L148:
 592:./../../firmware/debugger/debugger_core.c ****         else if (str[index] <= 'f') *result = (*result * 16) + (str[index] - 'a' + 10);
 2133              		.loc 1 592 37 discriminator 1
 592:./../../firmware/debugger/debugger_core.c ****         else if (str[index] <= 'f') *result = (*result * 16) + (str[index] - 'a' + 10);
 2134              		.loc 1 592 56 is_stmt 0 discriminator 1
 2135 0048 1C42     		lw	a5,0(a2)
 2136 004a 9207     		slli	a5,a5,4
 592:./../../firmware/debugger/debugger_core.c ****         else if (str[index] <= 'f') *result = (*result * 16) + (str[index] - 'a' + 10);
 2137              		.loc 1 592 62 discriminator 1
 2138 004c 938797FC 		addi	a5,a5,-55
 2139 0050 C5BF     		j	.L150
GAS LISTING C:\Users\marwz\AppData\Local\Temp\ccDVLJoD.s 			page 56


 2140              	.L146:
 591:./../../firmware/debugger/debugger_core.c ****         else if (str[index] <= 'F') *result = (*result * 16) + (str[index] - 'A' + 10);
 2141              		.loc 1 591 9 is_stmt 1 discriminator 1
 592:./../../firmware/debugger/debugger_core.c ****         else if (str[index] <= 'f') *result = (*result * 16) + (str[index] - 'a' + 10);
 2142              		.loc 1 592 14 discriminator 1
 593:./../../firmware/debugger/debugger_core.c ****         index++;
 2143              		.loc 1 593 14 discriminator 1
 593:./../../firmware/debugger/debugger_core.c ****         index++;
 2144              		.loc 1 593 37 discriminator 1
 593:./../../firmware/debugger/debugger_core.c ****         index++;
 2145              		.loc 1 593 56 is_stmt 0 discriminator 1
 2146 0052 1C42     		lw	a5,0(a2)
 2147 0054 9207     		slli	a5,a5,4
 593:./../../firmware/debugger/debugger_core.c ****         index++;
 2148              		.loc 1 593 62 discriminator 1
 2149 0056 938797FA 		addi	a5,a5,-87
 2150 005a DDB7     		j	.L150
 2151              		.cfi_endproc
 2152              	.LFE24:
 2154              		.section	.text.dbg_message_decoder,"ax",@progbits
 2155              		.align	1
 2156              		.globl	dbg_message_decoder
 2158              	dbg_message_decoder:
 2159              	.LFB25:
 599:./../../firmware/debugger/debugger_core.c **** 
 600:./../../firmware/debugger/debugger_core.c **** void dbg_message_decoder(dbg_state_t *state, uint8_t *message)
 601:./../../firmware/debugger/debugger_core.c **** {
 2160              		.loc 1 601 1 is_stmt 1
 2161              		.cfi_startproc
 2162              	.LVL234:
 602:./../../firmware/debugger/debugger_core.c ****     uint32_t addr;
 2163              		.loc 1 602 5
 603:./../../firmware/debugger/debugger_core.c ****     uint32_t length; 
 2164              		.loc 1 603 5
 604:./../../firmware/debugger/debugger_core.c ****     uint8_t buffer[512];
 2165              		.loc 1 604 5
 605:./../../firmware/debugger/debugger_core.c ****     uint8_t *next_hex;
 2166              		.loc 1 605 5
 606:./../../firmware/debugger/debugger_core.c ****     switch (message[1]) {
 2167              		.loc 1 606 5
 601:./../../firmware/debugger/debugger_core.c ****     uint32_t addr;
 2168              		.loc 1 601 1 is_stmt 0
 2169 0000 130101DE 		addi	sp,sp,-544
 2170              	.LCFI16:
 2171              		.cfi_def_cfa_offset 544
 2172 0004 232C8120 		sw	s0,536(sp)
 2173 0008 232E1120 		sw	ra,540(sp)
 2174              		.cfi_offset 8, -8
 2175              		.cfi_offset 1, -4
 2176              		.loc 1 606 20
 2177 000c 83C71500 		lbu	a5,1(a1)
 2178              		.loc 1 606 5
 2179 0010 13077006 		li	a4,103
 601:./../../firmware/debugger/debugger_core.c ****     uint32_t addr;
 2180              		.loc 1 601 1
 2181 0014 2A84     		mv	s0,a0
 2182              		.loc 1 606 5
GAS LISTING C:\Users\marwz\AppData\Local\Temp\ccDVLJoD.s 			page 57


 2183 0016 6386E718 		beq	a5,a4,.L152
 2184 001a 2E85     		mv	a0,a1
 2185              	.LVL235:
 2186 001c 636DF702 		bgtu	a5,a4,.L153
 2187 0020 13078004 		li	a4,72
 2188 0024 638AE736 		beq	a5,a4,.L205
 2189 0028 636DF700 		bgtu	a5,a4,.L155
 2190 002c 1307F003 		li	a4,63
 2191 0030 6382E734 		beq	a5,a4,.L156
 2192              	.LVL236:
 2193              	.L151:
 607:./../../firmware/debugger/debugger_core.c ****     case 'q':
 608:./../../firmware/debugger/debugger_core.c ****         //These packets are used by GDB to understand the capabilities of the remote host.
 609:./../../firmware/debugger/debugger_core.c ****         if (dbg_match(&message[2], "Supported"))     dbg_reply("PacketSize=109;hwbreak+");
 610:./../../firmware/debugger/debugger_core.c ****         if (dbg_match(&message[2], "Offsets"))       dbg_reply("Text=0;Data=0;Bss=0;");
 611:./../../firmware/debugger/debugger_core.c ****         if (dbg_match(&message[2], "Symbol"))        dbg_reply("OK");
 612:./../../firmware/debugger/debugger_core.c ****         if (dbg_match(&message[2], "C"))             dbg_reply("");
 613:./../../firmware/debugger/debugger_core.c ****         if (dbg_match(&message[2], "TStatus"))       dbg_reply("");
 614:./../../firmware/debugger/debugger_core.c ****         if (dbg_match(&message[2], "fThreadInfo"))   dbg_reply("1el");
 615:./../../firmware/debugger/debugger_core.c ****         if (dbg_match(&message[2], "Attached"))      dbg_reply("0");
 616:./../../firmware/debugger/debugger_core.c ****         break;
 617:./../../firmware/debugger/debugger_core.c ****     case 'H':
 618:./../../firmware/debugger/debugger_core.c ****         //Thread related, does not apply here
 619:./../../firmware/debugger/debugger_core.c ****         dbg_reply("OK"); 
 620:./../../firmware/debugger/debugger_core.c ****         break;
 621:./../../firmware/debugger/debugger_core.c ****     case 'g':
 622:./../../firmware/debugger/debugger_core.c ****         //Read general registers
 623:./../../firmware/debugger/debugger_core.c ****         for (int i = 0; i < 32; i++) {
 624:./../../firmware/debugger/debugger_core.c ****             buffer[i * 8] =       dbg_hex_lookup[(state->regs.x[i] >> 4)  & 0xF];
 625:./../../firmware/debugger/debugger_core.c ****             buffer[(i * 8) + 1] =   dbg_hex_lookup[(state->regs.x[i] >> 0)  & 0xF];
 626:./../../firmware/debugger/debugger_core.c ****             buffer[(i * 8) + 2] =   dbg_hex_lookup[(state->regs.x[i] >> 12) & 0xF];
 627:./../../firmware/debugger/debugger_core.c ****             buffer[(i * 8) + 3] =   dbg_hex_lookup[(state->regs.x[i] >> 8)  & 0xF];
 628:./../../firmware/debugger/debugger_core.c ****             buffer[(i * 8) + 4] =   dbg_hex_lookup[(state->regs.x[i] >> 20) & 0xF];
 629:./../../firmware/debugger/debugger_core.c ****             buffer[(i * 8) + 5] =   dbg_hex_lookup[(state->regs.x[i] >> 16) & 0xF];
 630:./../../firmware/debugger/debugger_core.c ****             buffer[(i * 8) + 6] =   dbg_hex_lookup[(state->regs.x[i] >> 28) & 0xF];
 631:./../../firmware/debugger/debugger_core.c ****             buffer[(i * 8) + 7] =   dbg_hex_lookup[(state->regs.x[i] >> 24) & 0xF];
 632:./../../firmware/debugger/debugger_core.c ****         }
 633:./../../firmware/debugger/debugger_core.c ****         //Program counter also sent with the registers
 634:./../../firmware/debugger/debugger_core.c ****         buffer[32 * 8] =       dbg_hex_lookup[(state->pc >> 4)  & 0xF];
 635:./../../firmware/debugger/debugger_core.c ****         buffer[(32 * 8) + 1] =   dbg_hex_lookup[(state->pc >> 0)  & 0xF];
 636:./../../firmware/debugger/debugger_core.c ****         buffer[(32 * 8) + 2] =   dbg_hex_lookup[(state->pc >> 12) & 0xF];
 637:./../../firmware/debugger/debugger_core.c ****         buffer[(32 * 8) + 3] =   dbg_hex_lookup[(state->pc >> 8)  & 0xF];
 638:./../../firmware/debugger/debugger_core.c ****         buffer[(32 * 8) + 4] =   dbg_hex_lookup[(state->pc >> 20) & 0xF];
 639:./../../firmware/debugger/debugger_core.c ****         buffer[(32 * 8) + 5] =   dbg_hex_lookup[(state->pc >> 16) & 0xF];
 640:./../../firmware/debugger/debugger_core.c ****         buffer[(32 * 8) + 6] =   dbg_hex_lookup[(state->pc >> 28) & 0xF];
 641:./../../firmware/debugger/debugger_core.c ****         buffer[(32 * 8) + 7] =   dbg_hex_lookup[(state->pc >> 24) & 0xF];
 642:./../../firmware/debugger/debugger_core.c ****         buffer[8 * 33] = '\0';
 643:./../../firmware/debugger/debugger_core.c ****         dbg_reply(buffer);
 644:./../../firmware/debugger/debugger_core.c ****         break;
 645:./../../firmware/debugger/debugger_core.c ****     case 'G':
 646:./../../firmware/debugger/debugger_core.c ****         //todo, this should be pretty easy to implement??
 647:./../../firmware/debugger/debugger_core.c ****         //Write general registers same encoding as above
 648:./../../firmware/debugger/debugger_core.c ****         break;
 649:./../../firmware/debugger/debugger_core.c ****     case 'X':
 650:./../../firmware/debugger/debugger_core.c ****         //Write binary data
 651:./../../firmware/debugger/debugger_core.c ****         //Not supported for now, requires escaping $, # and / in the message parser
 652:./../../firmware/debugger/debugger_core.c ****         //Easier to implement for ram
GAS LISTING C:\Users\marwz\AppData\Local\Temp\ccDVLJoD.s 			page 58


 653:./../../firmware/debugger/debugger_core.c ****         break;
 654:./../../firmware/debugger/debugger_core.c ****     case 'm':
 655:./../../firmware/debugger/debugger_core.c ****         //encoding: m[addr],[length]
 656:./../../firmware/debugger/debugger_core.c ****         //Read from addr length bytes
 657:./../../firmware/debugger/debugger_core.c ****         //Can be less than requested
 658:./../../firmware/debugger/debugger_core.c ****         next_hex = dbg_parse_hex(&message[2], 8, &addr);
 659:./../../firmware/debugger/debugger_core.c ****         dbg_parse_hex(&next_hex[1], 8, &length);
 660:./../../firmware/debugger/debugger_core.c ****         for (int i = 0; i < length; i++) {
 661:./../../firmware/debugger/debugger_core.c ****             buffer[i * 2] =       dbg_hex_lookup[*(uint8_t*)(addr + i) >> 4];
 662:./../../firmware/debugger/debugger_core.c ****             buffer[(i * 2) + 1] =   dbg_hex_lookup[*(uint8_t*)(addr + i) & 0xF];
 663:./../../firmware/debugger/debugger_core.c ****         }
 664:./../../firmware/debugger/debugger_core.c ****         buffer[length * 2] = '\0';
 665:./../../firmware/debugger/debugger_core.c ****         dbg_reply(buffer);
 666:./../../firmware/debugger/debugger_core.c ****         break;
 667:./../../firmware/debugger/debugger_core.c ****     case 'v':
 668:./../../firmware/debugger/debugger_core.c ****         //Multiletter command
 669:./../../firmware/debugger/debugger_core.c ****         if (dbg_match(&message[2], "MustReplyEmpty")) dbg_reply(""); //Are you there?
 670:./../../firmware/debugger/debugger_core.c ****         if (dbg_match(&message[2], "Cont?")) dbg_reply(""); //Multiprocess continue supported?
 671:./../../firmware/debugger/debugger_core.c ****         break;
 672:./../../firmware/debugger/debugger_core.c ****     case 's':
 673:./../../firmware/debugger/debugger_core.c ****         //Step signal
 674:./../../firmware/debugger/debugger_core.c ****         state->state = DBG_STEP;
 675:./../../firmware/debugger/debugger_core.c ****         break;
 676:./../../firmware/debugger/debugger_core.c ****     case 'c':
 677:./../../firmware/debugger/debugger_core.c ****         //Continue signal
 678:./../../firmware/debugger/debugger_core.c ****         state->state = DBG_CONTINUE;
 679:./../../firmware/debugger/debugger_core.c ****         break;
 680:./../../firmware/debugger/debugger_core.c ****     case '?':
 681:./../../firmware/debugger/debugger_core.c ****         //Why did we stop?
 682:./../../firmware/debugger/debugger_core.c ****         dbg_reply("S05"); //stopped because trap
 683:./../../firmware/debugger/debugger_core.c ****         break;
 684:./../../firmware/debugger/debugger_core.c ****     case 'Z':
 685:./../../firmware/debugger/debugger_core.c ****         //Write breakpoint
 686:./../../firmware/debugger/debugger_core.c ****         dbg_parse_hex(&message[4], 8, &addr);
 687:./../../firmware/debugger/debugger_core.c ****         dbg_add_breakpoint(addr, state);
 688:./../../firmware/debugger/debugger_core.c ****         dbg_reply("OK");
 689:./../../firmware/debugger/debugger_core.c ****         break;
 690:./../../firmware/debugger/debugger_core.c ****     case 'z':
 691:./../../firmware/debugger/debugger_core.c ****         //Remove breakpoint
 692:./../../firmware/debugger/debugger_core.c ****         dbg_parse_hex(&message[4], 8, &addr);
 693:./../../firmware/debugger/debugger_core.c ****         dbg_remove_breakpoint(addr, state);
 694:./../../firmware/debugger/debugger_core.c ****         dbg_reply("OK");
 695:./../../firmware/debugger/debugger_core.c ****         break;
 696:./../../firmware/debugger/debugger_core.c ****     default:
 697:./../../firmware/debugger/debugger_core.c ****         break;
 698:./../../firmware/debugger/debugger_core.c ****     }
 699:./../../firmware/debugger/debugger_core.c **** }
 2194              		.loc 1 699 1
 2195 0034 8320C121 		lw	ra,540(sp)
 2196              		.cfi_remember_state
 2197              		.cfi_restore 1
 2198 0038 03248121 		lw	s0,536(sp)
 2199              		.cfi_restore 8
 2200 003c 13010122 		addi	sp,sp,544
 2201              	.LCFI17:
 2202              		.cfi_def_cfa_offset 0
 2203 0040 8280     		jr	ra
GAS LISTING C:\Users\marwz\AppData\Local\Temp\ccDVLJoD.s 			page 59


 2204              	.LVL237:
 2205              	.L155:
 2206              	.LCFI18:
 2207              		.cfi_restore_state
 606:./../../firmware/debugger/debugger_core.c ****     case 'q':
 2208              		.loc 1 606 5
 2209 0042 1307A005 		li	a4,90
 2210 0046 638CE732 		beq	a5,a4,.L158
 2211 004a 13073006 		li	a4,99
 2212 004e E393E7FE 		bne	a5,a4,.L151
 678:./../../firmware/debugger/debugger_core.c ****         break;
 2213              		.loc 1 678 9 is_stmt 1
 678:./../../firmware/debugger/debugger_core.c ****         break;
 2214              		.loc 1 678 22 is_stmt 0
 2215 0052 9147     		li	a5,4
 2216 0054 31AE     		j	.L206
 2217              	.L153:
 606:./../../firmware/debugger/debugger_core.c ****     case 'q':
 2218              		.loc 1 606 5
 2219 0056 13073007 		li	a4,115
 2220 005a 638AE730 		beq	a5,a4,.L160
 2221 005e 636CF710 		bgtu	a5,a4,.L161
 2222 0062 1307D006 		li	a4,109
 2223 0066 638CE724 		beq	a5,a4,.L162
 2224 006a 13071007 		li	a4,113
 2225 006e E393E7FC 		bne	a5,a4,.L151
 609:./../../firmware/debugger/debugger_core.c ****         if (dbg_match(&message[2], "Offsets"))       dbg_reply("Text=0;Data=0;Bss=0;");
 2226              		.loc 1 609 9 is_stmt 1
 609:./../../firmware/debugger/debugger_core.c ****         if (dbg_match(&message[2], "Offsets"))       dbg_reply("Text=0;Data=0;Bss=0;");
 2227              		.loc 1 609 13 is_stmt 0
 2228 0072 13842500 		addi	s0,a1,2
 2229              	.LVL238:
 2230 0076 B7050000 		lui	a1,%hi(.LC1)
 2231 007a 93850500 		addi	a1,a1,%lo(.LC1)
 2232 007e 2285     		mv	a0,s0
 2233              	.LVL239:
 2234 0080 97000000 		call	dbg_match
 2234      E7800000 
 2235              	.LVL240:
 609:./../../firmware/debugger/debugger_core.c ****         if (dbg_match(&message[2], "Offsets"))       dbg_reply("Text=0;Data=0;Bss=0;");
 2236              		.loc 1 609 12
 2237 0088 09C9     		beq	a0,zero,.L166
 609:./../../firmware/debugger/debugger_core.c ****         if (dbg_match(&message[2], "Offsets"))       dbg_reply("Text=0;Data=0;Bss=0;");
 2238              		.loc 1 609 54 is_stmt 1 discriminator 1
 2239 008a 37050000 		lui	a0,%hi(.LC2)
 2240 008e 13050500 		addi	a0,a0,%lo(.LC2)
 2241 0092 97000000 		call	dbg_reply
 2241      E7800000 
 2242              	.LVL241:
 2243              	.L166:
 610:./../../firmware/debugger/debugger_core.c ****         if (dbg_match(&message[2], "Symbol"))        dbg_reply("OK");
 2244              		.loc 1 610 9
 610:./../../firmware/debugger/debugger_core.c ****         if (dbg_match(&message[2], "Symbol"))        dbg_reply("OK");
 2245              		.loc 1 610 13 is_stmt 0
 2246 009a B7050000 		lui	a1,%hi(.LC3)
 2247 009e 93850500 		addi	a1,a1,%lo(.LC3)
 2248 00a2 2285     		mv	a0,s0
GAS LISTING C:\Users\marwz\AppData\Local\Temp\ccDVLJoD.s 			page 60


 2249 00a4 97000000 		call	dbg_match
 2249      E7800000 
 2250              	.LVL242:
 610:./../../firmware/debugger/debugger_core.c ****         if (dbg_match(&message[2], "Symbol"))        dbg_reply("OK");
 2251              		.loc 1 610 12
 2252 00ac 09C9     		beq	a0,zero,.L167
 610:./../../firmware/debugger/debugger_core.c ****         if (dbg_match(&message[2], "Symbol"))        dbg_reply("OK");
 2253              		.loc 1 610 54 is_stmt 1 discriminator 1
 2254 00ae 37050000 		lui	a0,%hi(.LC4)
 2255 00b2 13050500 		addi	a0,a0,%lo(.LC4)
 2256 00b6 97000000 		call	dbg_reply
 2256      E7800000 
 2257              	.LVL243:
 2258              	.L167:
 611:./../../firmware/debugger/debugger_core.c ****         if (dbg_match(&message[2], "C"))             dbg_reply("");
 2259              		.loc 1 611 9
 611:./../../firmware/debugger/debugger_core.c ****         if (dbg_match(&message[2], "C"))             dbg_reply("");
 2260              		.loc 1 611 13 is_stmt 0
 2261 00be B7050000 		lui	a1,%hi(.LC5)
 2262 00c2 93850500 		addi	a1,a1,%lo(.LC5)
 2263 00c6 2285     		mv	a0,s0
 2264 00c8 97000000 		call	dbg_match
 2264      E7800000 
 2265              	.LVL244:
 611:./../../firmware/debugger/debugger_core.c ****         if (dbg_match(&message[2], "C"))             dbg_reply("");
 2266              		.loc 1 611 12
 2267 00d0 09C9     		beq	a0,zero,.L168
 611:./../../firmware/debugger/debugger_core.c ****         if (dbg_match(&message[2], "C"))             dbg_reply("");
 2268              		.loc 1 611 54 is_stmt 1 discriminator 1
 2269 00d2 37050000 		lui	a0,%hi(.LC6)
 2270 00d6 13050500 		addi	a0,a0,%lo(.LC6)
 2271 00da 97000000 		call	dbg_reply
 2271      E7800000 
 2272              	.LVL245:
 2273              	.L168:
 612:./../../firmware/debugger/debugger_core.c ****         if (dbg_match(&message[2], "TStatus"))       dbg_reply("");
 2274              		.loc 1 612 9
 612:./../../firmware/debugger/debugger_core.c ****         if (dbg_match(&message[2], "TStatus"))       dbg_reply("");
 2275              		.loc 1 612 13 is_stmt 0
 2276 00e2 B7050000 		lui	a1,%hi(.LC7)
 2277 00e6 93850500 		addi	a1,a1,%lo(.LC7)
 2278 00ea 2285     		mv	a0,s0
 2279 00ec 97000000 		call	dbg_match
 2279      E7800000 
 2280              	.LVL246:
 612:./../../firmware/debugger/debugger_core.c ****         if (dbg_match(&message[2], "TStatus"))       dbg_reply("");
 2281              		.loc 1 612 12
 2282 00f4 09C9     		beq	a0,zero,.L169
 612:./../../firmware/debugger/debugger_core.c ****         if (dbg_match(&message[2], "TStatus"))       dbg_reply("");
 2283              		.loc 1 612 54 is_stmt 1 discriminator 1
 2284 00f6 37050000 		lui	a0,%hi(.LC8)
 2285 00fa 13050500 		addi	a0,a0,%lo(.LC8)
 2286 00fe 97000000 		call	dbg_reply
 2286      E7800000 
 2287              	.LVL247:
 2288              	.L169:
 613:./../../firmware/debugger/debugger_core.c ****         if (dbg_match(&message[2], "fThreadInfo"))   dbg_reply("1el");
GAS LISTING C:\Users\marwz\AppData\Local\Temp\ccDVLJoD.s 			page 61


 2289              		.loc 1 613 9
 613:./../../firmware/debugger/debugger_core.c ****         if (dbg_match(&message[2], "fThreadInfo"))   dbg_reply("1el");
 2290              		.loc 1 613 13 is_stmt 0
 2291 0106 B7050000 		lui	a1,%hi(.LC9)
 2292 010a 93850500 		addi	a1,a1,%lo(.LC9)
 2293 010e 2285     		mv	a0,s0
 2294 0110 97000000 		call	dbg_match
 2294      E7800000 
 2295              	.LVL248:
 613:./../../firmware/debugger/debugger_core.c ****         if (dbg_match(&message[2], "fThreadInfo"))   dbg_reply("1el");
 2296              		.loc 1 613 12
 2297 0118 09C9     		beq	a0,zero,.L170
 613:./../../firmware/debugger/debugger_core.c ****         if (dbg_match(&message[2], "fThreadInfo"))   dbg_reply("1el");
 2298              		.loc 1 613 54 is_stmt 1 discriminator 1
 2299 011a 37050000 		lui	a0,%hi(.LC8)
 2300 011e 13050500 		addi	a0,a0,%lo(.LC8)
 2301 0122 97000000 		call	dbg_reply
 2301      E7800000 
 2302              	.LVL249:
 2303              	.L170:
 614:./../../firmware/debugger/debugger_core.c ****         if (dbg_match(&message[2], "Attached"))      dbg_reply("0");
 2304              		.loc 1 614 9
 614:./../../firmware/debugger/debugger_core.c ****         if (dbg_match(&message[2], "Attached"))      dbg_reply("0");
 2305              		.loc 1 614 13 is_stmt 0
 2306 012a B7050000 		lui	a1,%hi(.LC10)
 2307 012e 93850500 		addi	a1,a1,%lo(.LC10)
 2308 0132 2285     		mv	a0,s0
 2309 0134 97000000 		call	dbg_match
 2309      E7800000 
 2310              	.LVL250:
 614:./../../firmware/debugger/debugger_core.c ****         if (dbg_match(&message[2], "Attached"))      dbg_reply("0");
 2311              		.loc 1 614 12
 2312 013c 09C9     		beq	a0,zero,.L171
 614:./../../firmware/debugger/debugger_core.c ****         if (dbg_match(&message[2], "Attached"))      dbg_reply("0");
 2313              		.loc 1 614 54 is_stmt 1 discriminator 1
 2314 013e 37050000 		lui	a0,%hi(.LC11)
 2315 0142 13050500 		addi	a0,a0,%lo(.LC11)
 2316 0146 97000000 		call	dbg_reply
 2316      E7800000 
 2317              	.LVL251:
 2318              	.L171:
 615:./../../firmware/debugger/debugger_core.c ****         break;
 2319              		.loc 1 615 9
 615:./../../firmware/debugger/debugger_core.c ****         break;
 2320              		.loc 1 615 13 is_stmt 0
 2321 014e B7050000 		lui	a1,%hi(.LC12)
 2322 0152 93850500 		addi	a1,a1,%lo(.LC12)
 2323 0156 2285     		mv	a0,s0
 2324 0158 97000000 		call	dbg_match
 2324      E7800000 
 2325              	.LVL252:
 615:./../../firmware/debugger/debugger_core.c ****         break;
 2326              		.loc 1 615 12
 2327 0160 E30A05EC 		beq	a0,zero,.L151
 615:./../../firmware/debugger/debugger_core.c ****         break;
 2328              		.loc 1 615 54 is_stmt 1 discriminator 1
 2329 0164 37050000 		lui	a0,%hi(.LC13)
GAS LISTING C:\Users\marwz\AppData\Local\Temp\ccDVLJoD.s 			page 62


 2330 0168 13050500 		addi	a0,a0,%lo(.LC13)
 2331              	.LVL253:
 2332              	.L204:
 694:./../../firmware/debugger/debugger_core.c ****         break;
 2333              		.loc 1 694 9 is_stmt 0
 2334 016c 97000000 		call	dbg_reply
 2334      E7800000 
 2335              	.LVL254:
 695:./../../firmware/debugger/debugger_core.c ****     default:
 2336              		.loc 1 695 9 is_stmt 1
 2337              		.loc 1 699 1 is_stmt 0
 2338 0174 C1B5     		j	.L151
 2339              	.LVL255:
 2340              	.L161:
 606:./../../firmware/debugger/debugger_core.c ****     case 'q':
 2341              		.loc 1 606 5
 2342 0176 13076007 		li	a4,118
 2343 017a 6386E71A 		beq	a5,a4,.L164
 2344 017e 1307A007 		li	a4,122
 2345 0182 E399E7EA 		bne	a5,a4,.L151
 692:./../../firmware/debugger/debugger_core.c ****         dbg_remove_breakpoint(addr, state);
 2346              		.loc 1 692 9 is_stmt 1
 2347 0186 3000     		addi	a2,sp,8
 2348 0188 A145     		li	a1,8
 2349 018a 1105     		addi	a0,a0,4
 2350              	.LVL256:
 2351 018c 97000000 		call	dbg_parse_hex
 2351      E7800000 
 2352              	.LVL257:
 693:./../../firmware/debugger/debugger_core.c ****         dbg_reply("OK");
 2353              		.loc 1 693 9
 2354 0194 2245     		lw	a0,8(sp)
 2355 0196 A285     		mv	a1,s0
 2356 0198 97000000 		call	dbg_remove_breakpoint
 2356      E7800000 
 2357              	.LVL258:
 2358 01a0 E5AA     		j	.L205
 2359              	.LVL259:
 2360              	.L152:
 2361 01a2 1408     		addi	a3,sp,16
 2362              	.LBB60:
 624:./../../firmware/debugger/debugger_core.c ****             buffer[(i * 8) + 1] =   dbg_hex_lookup[(state->regs.x[i] >> 0)  & 0xF];
 2363              		.loc 1 624 49 is_stmt 0
 2364 01a4 B7070000 		lui	a5,%hi(.LANCHOR1)
 2365 01a8 93054500 		addi	a1,a0,4
 2366              	.LVL260:
 2367 01ac 13084508 		addi	a6,a0,132
 2368 01b0 93870700 		addi	a5,a5,%lo(.LANCHOR1)
 2369 01b4 3685     		mv	a0,a3
 2370              	.L173:
 624:./../../firmware/debugger/debugger_core.c ****             buffer[(i * 8) + 1] =   dbg_hex_lookup[(state->regs.x[i] >> 0)  & 0xF];
 2371              		.loc 1 624 13 is_stmt 1 discriminator 3
 624:./../../firmware/debugger/debugger_core.c ****             buffer[(i * 8) + 1] =   dbg_hex_lookup[(state->regs.x[i] >> 0)  & 0xF];
 2372              		.loc 1 624 64 is_stmt 0 discriminator 3
 2373 01b6 9841     		lw	a4,0(a1)
 2374 01b8 9105     		addi	a1,a1,4
 2375 01ba A106     		addi	a3,a3,8
GAS LISTING C:\Users\marwz\AppData\Local\Temp\ccDVLJoD.s 			page 63


 624:./../../firmware/debugger/debugger_core.c ****             buffer[(i * 8) + 1] =   dbg_hex_lookup[(state->regs.x[i] >> 0)  & 0xF];
 2376              		.loc 1 624 68 discriminator 3
 2377 01bc 13564740 		srai	a2,a4,4
 624:./../../firmware/debugger/debugger_core.c ****             buffer[(i * 8) + 1] =   dbg_hex_lookup[(state->regs.x[i] >> 0)  & 0xF];
 2378              		.loc 1 624 75 discriminator 3
 2379 01c0 3D8A     		andi	a2,a2,15
 624:./../../firmware/debugger/debugger_core.c ****             buffer[(i * 8) + 1] =   dbg_hex_lookup[(state->regs.x[i] >> 0)  & 0xF];
 2380              		.loc 1 624 49 discriminator 3
 2381 01c2 3E96     		add	a2,a5,a2
 624:./../../firmware/debugger/debugger_core.c ****             buffer[(i * 8) + 1] =   dbg_hex_lookup[(state->regs.x[i] >> 0)  & 0xF];
 2382              		.loc 1 624 27 discriminator 3
 2383 01c4 03460600 		lbu	a2,0(a2)
 2384 01c8 238CC6FE 		sb	a2,-8(a3)
 625:./../../firmware/debugger/debugger_core.c ****             buffer[(i * 8) + 2] =   dbg_hex_lookup[(state->regs.x[i] >> 12) & 0xF];
 2385              		.loc 1 625 13 is_stmt 1 discriminator 3
 625:./../../firmware/debugger/debugger_core.c ****             buffer[(i * 8) + 2] =   dbg_hex_lookup[(state->regs.x[i] >> 12) & 0xF];
 2386              		.loc 1 625 77 is_stmt 0 discriminator 3
 2387 01cc 1376F700 		andi	a2,a4,15
 625:./../../firmware/debugger/debugger_core.c ****             buffer[(i * 8) + 2] =   dbg_hex_lookup[(state->regs.x[i] >> 12) & 0xF];
 2388              		.loc 1 625 51 discriminator 3
 2389 01d0 3E96     		add	a2,a5,a2
 625:./../../firmware/debugger/debugger_core.c ****             buffer[(i * 8) + 2] =   dbg_hex_lookup[(state->regs.x[i] >> 12) & 0xF];
 2390              		.loc 1 625 33 discriminator 3
 2391 01d2 03460600 		lbu	a2,0(a2)
 2392 01d6 A38CC6FE 		sb	a2,-7(a3)
 626:./../../firmware/debugger/debugger_core.c ****             buffer[(i * 8) + 3] =   dbg_hex_lookup[(state->regs.x[i] >> 8)  & 0xF];
 2393              		.loc 1 626 13 is_stmt 1 discriminator 3
 626:./../../firmware/debugger/debugger_core.c ****             buffer[(i * 8) + 3] =   dbg_hex_lookup[(state->regs.x[i] >> 8)  & 0xF];
 2394              		.loc 1 626 70 is_stmt 0 discriminator 3
 2395 01da 1356C740 		srai	a2,a4,12
 626:./../../firmware/debugger/debugger_core.c ****             buffer[(i * 8) + 3] =   dbg_hex_lookup[(state->regs.x[i] >> 8)  & 0xF];
 2396              		.loc 1 626 77 discriminator 3
 2397 01de 3D8A     		andi	a2,a2,15
 626:./../../firmware/debugger/debugger_core.c ****             buffer[(i * 8) + 3] =   dbg_hex_lookup[(state->regs.x[i] >> 8)  & 0xF];
 2398              		.loc 1 626 51 discriminator 3
 2399 01e0 3E96     		add	a2,a5,a2
 626:./../../firmware/debugger/debugger_core.c ****             buffer[(i * 8) + 3] =   dbg_hex_lookup[(state->regs.x[i] >> 8)  & 0xF];
 2400              		.loc 1 626 33 discriminator 3
 2401 01e2 03460600 		lbu	a2,0(a2)
 2402 01e6 238DC6FE 		sb	a2,-6(a3)
 627:./../../firmware/debugger/debugger_core.c ****             buffer[(i * 8) + 4] =   dbg_hex_lookup[(state->regs.x[i] >> 20) & 0xF];
 2403              		.loc 1 627 13 is_stmt 1 discriminator 3
 627:./../../firmware/debugger/debugger_core.c ****             buffer[(i * 8) + 4] =   dbg_hex_lookup[(state->regs.x[i] >> 20) & 0xF];
 2404              		.loc 1 627 70 is_stmt 0 discriminator 3
 2405 01ea 13568740 		srai	a2,a4,8
 627:./../../firmware/debugger/debugger_core.c ****             buffer[(i * 8) + 4] =   dbg_hex_lookup[(state->regs.x[i] >> 20) & 0xF];
 2406              		.loc 1 627 77 discriminator 3
 2407 01ee 3D8A     		andi	a2,a2,15
 627:./../../firmware/debugger/debugger_core.c ****             buffer[(i * 8) + 4] =   dbg_hex_lookup[(state->regs.x[i] >> 20) & 0xF];
 2408              		.loc 1 627 51 discriminator 3
 2409 01f0 3E96     		add	a2,a5,a2
 627:./../../firmware/debugger/debugger_core.c ****             buffer[(i * 8) + 4] =   dbg_hex_lookup[(state->regs.x[i] >> 20) & 0xF];
 2410              		.loc 1 627 33 discriminator 3
 2411 01f2 03460600 		lbu	a2,0(a2)
 2412 01f6 A38DC6FE 		sb	a2,-5(a3)
 628:./../../firmware/debugger/debugger_core.c ****             buffer[(i * 8) + 5] =   dbg_hex_lookup[(state->regs.x[i] >> 16) & 0xF];
 2413              		.loc 1 628 13 is_stmt 1 discriminator 3
GAS LISTING C:\Users\marwz\AppData\Local\Temp\ccDVLJoD.s 			page 64


 628:./../../firmware/debugger/debugger_core.c ****             buffer[(i * 8) + 5] =   dbg_hex_lookup[(state->regs.x[i] >> 16) & 0xF];
 2414              		.loc 1 628 70 is_stmt 0 discriminator 3
 2415 01fa 13564741 		srai	a2,a4,20
 628:./../../firmware/debugger/debugger_core.c ****             buffer[(i * 8) + 5] =   dbg_hex_lookup[(state->regs.x[i] >> 16) & 0xF];
 2416              		.loc 1 628 77 discriminator 3
 2417 01fe 3D8A     		andi	a2,a2,15
 628:./../../firmware/debugger/debugger_core.c ****             buffer[(i * 8) + 5] =   dbg_hex_lookup[(state->regs.x[i] >> 16) & 0xF];
 2418              		.loc 1 628 51 discriminator 3
 2419 0200 3E96     		add	a2,a5,a2
 628:./../../firmware/debugger/debugger_core.c ****             buffer[(i * 8) + 5] =   dbg_hex_lookup[(state->regs.x[i] >> 16) & 0xF];
 2420              		.loc 1 628 33 discriminator 3
 2421 0202 03460600 		lbu	a2,0(a2)
 2422 0206 238EC6FE 		sb	a2,-4(a3)
 629:./../../firmware/debugger/debugger_core.c ****             buffer[(i * 8) + 6] =   dbg_hex_lookup[(state->regs.x[i] >> 28) & 0xF];
 2423              		.loc 1 629 13 is_stmt 1 discriminator 3
 629:./../../firmware/debugger/debugger_core.c ****             buffer[(i * 8) + 6] =   dbg_hex_lookup[(state->regs.x[i] >> 28) & 0xF];
 2424              		.loc 1 629 70 is_stmt 0 discriminator 3
 2425 020a 13560741 		srai	a2,a4,16
 629:./../../firmware/debugger/debugger_core.c ****             buffer[(i * 8) + 6] =   dbg_hex_lookup[(state->regs.x[i] >> 28) & 0xF];
 2426              		.loc 1 629 77 discriminator 3
 2427 020e 3D8A     		andi	a2,a2,15
 629:./../../firmware/debugger/debugger_core.c ****             buffer[(i * 8) + 6] =   dbg_hex_lookup[(state->regs.x[i] >> 28) & 0xF];
 2428              		.loc 1 629 51 discriminator 3
 2429 0210 3E96     		add	a2,a5,a2
 629:./../../firmware/debugger/debugger_core.c ****             buffer[(i * 8) + 6] =   dbg_hex_lookup[(state->regs.x[i] >> 28) & 0xF];
 2430              		.loc 1 629 33 discriminator 3
 2431 0212 03460600 		lbu	a2,0(a2)
 2432 0216 A38EC6FE 		sb	a2,-3(a3)
 630:./../../firmware/debugger/debugger_core.c ****             buffer[(i * 8) + 7] =   dbg_hex_lookup[(state->regs.x[i] >> 24) & 0xF];
 2433              		.loc 1 630 13 is_stmt 1 discriminator 3
 630:./../../firmware/debugger/debugger_core.c ****             buffer[(i * 8) + 7] =   dbg_hex_lookup[(state->regs.x[i] >> 24) & 0xF];
 2434              		.loc 1 630 77 is_stmt 0 discriminator 3
 2435 021a 1356C701 		srli	a2,a4,28
 631:./../../firmware/debugger/debugger_core.c ****         }
 2436              		.loc 1 631 70 discriminator 3
 2437 021e 6187     		srai	a4,a4,24
 631:./../../firmware/debugger/debugger_core.c ****         }
 2438              		.loc 1 631 77 discriminator 3
 2439 0220 3D8B     		andi	a4,a4,15
 630:./../../firmware/debugger/debugger_core.c ****             buffer[(i * 8) + 7] =   dbg_hex_lookup[(state->regs.x[i] >> 24) & 0xF];
 2440              		.loc 1 630 51 discriminator 3
 2441 0222 3E96     		add	a2,a5,a2
 631:./../../firmware/debugger/debugger_core.c ****         }
 2442              		.loc 1 631 51 discriminator 3
 2443 0224 3E97     		add	a4,a5,a4
 630:./../../firmware/debugger/debugger_core.c ****             buffer[(i * 8) + 7] =   dbg_hex_lookup[(state->regs.x[i] >> 24) & 0xF];
 2444              		.loc 1 630 33 discriminator 3
 2445 0226 03460600 		lbu	a2,0(a2)
 631:./../../firmware/debugger/debugger_core.c ****         }
 2446              		.loc 1 631 33 discriminator 3
 2447 022a 03470700 		lbu	a4,0(a4)
 630:./../../firmware/debugger/debugger_core.c ****             buffer[(i * 8) + 7] =   dbg_hex_lookup[(state->regs.x[i] >> 24) & 0xF];
 2448              		.loc 1 630 33 discriminator 3
 2449 022e 238FC6FE 		sb	a2,-2(a3)
 631:./../../firmware/debugger/debugger_core.c ****         }
 2450              		.loc 1 631 13 is_stmt 1 discriminator 3
 631:./../../firmware/debugger/debugger_core.c ****         }
GAS LISTING C:\Users\marwz\AppData\Local\Temp\ccDVLJoD.s 			page 65


 2451              		.loc 1 631 33 is_stmt 0 discriminator 3
 2452 0232 A38FE6FE 		sb	a4,-1(a3)
 2453              	.LVL261:
 623:./../../firmware/debugger/debugger_core.c ****             buffer[i * 8] =       dbg_hex_lookup[(state->regs.x[i] >> 4)  & 0xF];
 2454              		.loc 1 623 9 discriminator 3
 2455 0236 E310B8F8 		bne	a6,a1,.L173
 2456              	.LBE60:
 634:./../../firmware/debugger/debugger_core.c ****         buffer[(32 * 8) + 1] =   dbg_hex_lookup[(state->pc >> 0)  & 0xF];
 2457              		.loc 1 634 9 is_stmt 1
 634:./../../firmware/debugger/debugger_core.c ****         buffer[(32 * 8) + 1] =   dbg_hex_lookup[(state->pc >> 0)  & 0xF];
 2458              		.loc 1 634 53 is_stmt 0
 2459 023a 03274408 		lw	a4,132(s0)
 642:./../../firmware/debugger/debugger_core.c ****         dbg_reply(buffer);
 2460              		.loc 1 642 24
 2461 023e 230C0110 		sb	zero,280(sp)
 634:./../../firmware/debugger/debugger_core.c ****         buffer[(32 * 8) + 1] =   dbg_hex_lookup[(state->pc >> 0)  & 0xF];
 2462              		.loc 1 634 58
 2463 0242 93564700 		srli	a3,a4,4
 634:./../../firmware/debugger/debugger_core.c ****         buffer[(32 * 8) + 1] =   dbg_hex_lookup[(state->pc >> 0)  & 0xF];
 2464              		.loc 1 634 65
 2465 0246 BD8A     		andi	a3,a3,15
 634:./../../firmware/debugger/debugger_core.c ****         buffer[(32 * 8) + 1] =   dbg_hex_lookup[(state->pc >> 0)  & 0xF];
 2466              		.loc 1 634 46
 2467 0248 BE96     		add	a3,a5,a3
 634:./../../firmware/debugger/debugger_core.c ****         buffer[(32 * 8) + 1] =   dbg_hex_lookup[(state->pc >> 0)  & 0xF];
 2468              		.loc 1 634 24
 2469 024a 83C60600 		lbu	a3,0(a3)
 2470 024e 2308D110 		sb	a3,272(sp)
 635:./../../firmware/debugger/debugger_core.c ****         buffer[(32 * 8) + 2] =   dbg_hex_lookup[(state->pc >> 12) & 0xF];
 2471              		.loc 1 635 9 is_stmt 1
 635:./../../firmware/debugger/debugger_core.c ****         buffer[(32 * 8) + 2] =   dbg_hex_lookup[(state->pc >> 12) & 0xF];
 2472              		.loc 1 635 67 is_stmt 0
 2473 0252 9376F700 		andi	a3,a4,15
 635:./../../firmware/debugger/debugger_core.c ****         buffer[(32 * 8) + 2] =   dbg_hex_lookup[(state->pc >> 12) & 0xF];
 2474              		.loc 1 635 48
 2475 0256 BE96     		add	a3,a5,a3
 635:./../../firmware/debugger/debugger_core.c ****         buffer[(32 * 8) + 2] =   dbg_hex_lookup[(state->pc >> 12) & 0xF];
 2476              		.loc 1 635 30
 2477 0258 83C60600 		lbu	a3,0(a3)
 2478 025c A308D110 		sb	a3,273(sp)
 636:./../../firmware/debugger/debugger_core.c ****         buffer[(32 * 8) + 3] =   dbg_hex_lookup[(state->pc >> 8)  & 0xF];
 2479              		.loc 1 636 9 is_stmt 1
 636:./../../firmware/debugger/debugger_core.c ****         buffer[(32 * 8) + 3] =   dbg_hex_lookup[(state->pc >> 8)  & 0xF];
 2480              		.loc 1 636 60 is_stmt 0
 2481 0260 9356C700 		srli	a3,a4,12
 636:./../../firmware/debugger/debugger_core.c ****         buffer[(32 * 8) + 3] =   dbg_hex_lookup[(state->pc >> 8)  & 0xF];
 2482              		.loc 1 636 67
 2483 0264 BD8A     		andi	a3,a3,15
 636:./../../firmware/debugger/debugger_core.c ****         buffer[(32 * 8) + 3] =   dbg_hex_lookup[(state->pc >> 8)  & 0xF];
 2484              		.loc 1 636 48
 2485 0266 BE96     		add	a3,a5,a3
 636:./../../firmware/debugger/debugger_core.c ****         buffer[(32 * 8) + 3] =   dbg_hex_lookup[(state->pc >> 8)  & 0xF];
 2486              		.loc 1 636 30
 2487 0268 83C60600 		lbu	a3,0(a3)
 2488 026c 2309D110 		sb	a3,274(sp)
 637:./../../firmware/debugger/debugger_core.c ****         buffer[(32 * 8) + 4] =   dbg_hex_lookup[(state->pc >> 20) & 0xF];
 2489              		.loc 1 637 9 is_stmt 1
GAS LISTING C:\Users\marwz\AppData\Local\Temp\ccDVLJoD.s 			page 66


 637:./../../firmware/debugger/debugger_core.c ****         buffer[(32 * 8) + 4] =   dbg_hex_lookup[(state->pc >> 20) & 0xF];
 2490              		.loc 1 637 60 is_stmt 0
 2491 0270 93568700 		srli	a3,a4,8
 637:./../../firmware/debugger/debugger_core.c ****         buffer[(32 * 8) + 4] =   dbg_hex_lookup[(state->pc >> 20) & 0xF];
 2492              		.loc 1 637 67
 2493 0274 BD8A     		andi	a3,a3,15
 637:./../../firmware/debugger/debugger_core.c ****         buffer[(32 * 8) + 4] =   dbg_hex_lookup[(state->pc >> 20) & 0xF];
 2494              		.loc 1 637 48
 2495 0276 BE96     		add	a3,a5,a3
 637:./../../firmware/debugger/debugger_core.c ****         buffer[(32 * 8) + 4] =   dbg_hex_lookup[(state->pc >> 20) & 0xF];
 2496              		.loc 1 637 30
 2497 0278 83C60600 		lbu	a3,0(a3)
 2498 027c A309D110 		sb	a3,275(sp)
 638:./../../firmware/debugger/debugger_core.c ****         buffer[(32 * 8) + 5] =   dbg_hex_lookup[(state->pc >> 16) & 0xF];
 2499              		.loc 1 638 9 is_stmt 1
 638:./../../firmware/debugger/debugger_core.c ****         buffer[(32 * 8) + 5] =   dbg_hex_lookup[(state->pc >> 16) & 0xF];
 2500              		.loc 1 638 60 is_stmt 0
 2501 0280 93564701 		srli	a3,a4,20
 638:./../../firmware/debugger/debugger_core.c ****         buffer[(32 * 8) + 5] =   dbg_hex_lookup[(state->pc >> 16) & 0xF];
 2502              		.loc 1 638 67
 2503 0284 BD8A     		andi	a3,a3,15
 638:./../../firmware/debugger/debugger_core.c ****         buffer[(32 * 8) + 5] =   dbg_hex_lookup[(state->pc >> 16) & 0xF];
 2504              		.loc 1 638 48
 2505 0286 BE96     		add	a3,a5,a3
 638:./../../firmware/debugger/debugger_core.c ****         buffer[(32 * 8) + 5] =   dbg_hex_lookup[(state->pc >> 16) & 0xF];
 2506              		.loc 1 638 30
 2507 0288 83C60600 		lbu	a3,0(a3)
 2508 028c 230AD110 		sb	a3,276(sp)
 639:./../../firmware/debugger/debugger_core.c ****         buffer[(32 * 8) + 6] =   dbg_hex_lookup[(state->pc >> 28) & 0xF];
 2509              		.loc 1 639 9 is_stmt 1
 639:./../../firmware/debugger/debugger_core.c ****         buffer[(32 * 8) + 6] =   dbg_hex_lookup[(state->pc >> 28) & 0xF];
 2510              		.loc 1 639 60 is_stmt 0
 2511 0290 93560701 		srli	a3,a4,16
 639:./../../firmware/debugger/debugger_core.c ****         buffer[(32 * 8) + 6] =   dbg_hex_lookup[(state->pc >> 28) & 0xF];
 2512              		.loc 1 639 67
 2513 0294 BD8A     		andi	a3,a3,15
 639:./../../firmware/debugger/debugger_core.c ****         buffer[(32 * 8) + 6] =   dbg_hex_lookup[(state->pc >> 28) & 0xF];
 2514              		.loc 1 639 48
 2515 0296 BE96     		add	a3,a5,a3
 639:./../../firmware/debugger/debugger_core.c ****         buffer[(32 * 8) + 6] =   dbg_hex_lookup[(state->pc >> 28) & 0xF];
 2516              		.loc 1 639 30
 2517 0298 83C60600 		lbu	a3,0(a3)
 2518 029c A30AD110 		sb	a3,277(sp)
 640:./../../firmware/debugger/debugger_core.c ****         buffer[(32 * 8) + 7] =   dbg_hex_lookup[(state->pc >> 24) & 0xF];
 2519              		.loc 1 640 9 is_stmt 1
 640:./../../firmware/debugger/debugger_core.c ****         buffer[(32 * 8) + 7] =   dbg_hex_lookup[(state->pc >> 24) & 0xF];
 2520              		.loc 1 640 60 is_stmt 0
 2521 02a0 9356C701 		srli	a3,a4,28
 641:./../../firmware/debugger/debugger_core.c ****         buffer[8 * 33] = '\0';
 2522              		.loc 1 641 60
 2523 02a4 6183     		srli	a4,a4,24
 641:./../../firmware/debugger/debugger_core.c ****         buffer[8 * 33] = '\0';
 2524              		.loc 1 641 67
 2525 02a6 3D8B     		andi	a4,a4,15
 640:./../../firmware/debugger/debugger_core.c ****         buffer[(32 * 8) + 7] =   dbg_hex_lookup[(state->pc >> 24) & 0xF];
 2526              		.loc 1 640 48
 2527 02a8 BE96     		add	a3,a5,a3
GAS LISTING C:\Users\marwz\AppData\Local\Temp\ccDVLJoD.s 			page 67


 641:./../../firmware/debugger/debugger_core.c ****         buffer[8 * 33] = '\0';
 2528              		.loc 1 641 48
 2529 02aa BA97     		add	a5,a5,a4
 640:./../../firmware/debugger/debugger_core.c ****         buffer[(32 * 8) + 7] =   dbg_hex_lookup[(state->pc >> 24) & 0xF];
 2530              		.loc 1 640 30
 2531 02ac 83C60600 		lbu	a3,0(a3)
 641:./../../firmware/debugger/debugger_core.c ****         buffer[8 * 33] = '\0';
 2532              		.loc 1 641 30
 2533 02b0 83C70700 		lbu	a5,0(a5)
 640:./../../firmware/debugger/debugger_core.c ****         buffer[(32 * 8) + 7] =   dbg_hex_lookup[(state->pc >> 24) & 0xF];
 2534              		.loc 1 640 30
 2535 02b4 230BD110 		sb	a3,278(sp)
 641:./../../firmware/debugger/debugger_core.c ****         buffer[8 * 33] = '\0';
 2536              		.loc 1 641 9 is_stmt 1
 641:./../../firmware/debugger/debugger_core.c ****         buffer[8 * 33] = '\0';
 2537              		.loc 1 641 30 is_stmt 0
 2538 02b8 A30BF110 		sb	a5,279(sp)
 642:./../../firmware/debugger/debugger_core.c ****         dbg_reply(buffer);
 2539              		.loc 1 642 9 is_stmt 1
 643:./../../firmware/debugger/debugger_core.c ****         break;
 2540              		.loc 1 643 9
 2541 02bc 45BD     		j	.L204
 2542              	.LVL262:
 2543              	.L162:
 658:./../../firmware/debugger/debugger_core.c ****         dbg_parse_hex(&next_hex[1], 8, &length);
 2544              		.loc 1 658 9
 658:./../../firmware/debugger/debugger_core.c ****         dbg_parse_hex(&next_hex[1], 8, &length);
 2545              		.loc 1 658 20 is_stmt 0
 2546 02be 3000     		addi	a2,sp,8
 2547 02c0 A145     		li	a1,8
 2548 02c2 0905     		addi	a0,a0,2
 2549              	.LVL263:
 2550 02c4 97000000 		call	dbg_parse_hex
 2550      E7800000 
 2551              	.LVL264:
 659:./../../firmware/debugger/debugger_core.c ****         for (int i = 0; i < length; i++) {
 2552              		.loc 1 659 9 is_stmt 1
 2553 02cc 7000     		addi	a2,sp,12
 2554 02ce A145     		li	a1,8
 2555 02d0 0505     		addi	a0,a0,1
 2556              	.LVL265:
 2557 02d2 97000000 		call	dbg_parse_hex
 2557      E7800000 
 2558              	.LVL266:
 660:./../../firmware/debugger/debugger_core.c ****             buffer[i * 2] =       dbg_hex_lookup[*(uint8_t*)(addr + i) >> 4];
 2559              		.loc 1 660 9
 2560              	.LBB61:
 660:./../../firmware/debugger/debugger_core.c ****             buffer[i * 2] =       dbg_hex_lookup[*(uint8_t*)(addr + i) >> 4];
 2561              		.loc 1 660 14
 660:./../../firmware/debugger/debugger_core.c ****             buffer[i * 2] =       dbg_hex_lookup[*(uint8_t*)(addr + i) >> 4];
 2562              		.loc 1 660 27 is_stmt 0
 2563 02da 3248     		lw	a6,12(sp)
 661:./../../firmware/debugger/debugger_core.c ****             buffer[(i * 2) + 1] =   dbg_hex_lookup[*(uint8_t*)(addr + i) & 0xF];
 2564              		.loc 1 661 67
 2565 02dc A248     		lw	a7,8(sp)
 2566 02de 1808     		addi	a4,sp,16
 661:./../../firmware/debugger/debugger_core.c ****             buffer[(i * 2) + 1] =   dbg_hex_lookup[*(uint8_t*)(addr + i) & 0xF];
GAS LISTING C:\Users\marwz\AppData\Local\Temp\ccDVLJoD.s 			page 68


 2567              		.loc 1 661 49
 2568 02e0 37060000 		lui	a2,%hi(.LANCHOR1)
 660:./../../firmware/debugger/debugger_core.c ****             buffer[i * 2] =       dbg_hex_lookup[*(uint8_t*)(addr + i) >> 4];
 2569              		.loc 1 660 18
 2570 02e4 8147     		li	a5,0
 2571 02e6 3A85     		mv	a0,a4
 661:./../../firmware/debugger/debugger_core.c ****             buffer[(i * 2) + 1] =   dbg_hex_lookup[*(uint8_t*)(addr + i) & 0xF];
 2572              		.loc 1 661 49
 2573 02e8 13060600 		addi	a2,a2,%lo(.LANCHOR1)
 2574              	.LVL267:
 2575              	.L174:
 660:./../../firmware/debugger/debugger_core.c ****             buffer[i * 2] =       dbg_hex_lookup[*(uint8_t*)(addr + i) >> 4];
 2576              		.loc 1 660 9 discriminator 1
 2577 02ec 63980701 		bne	a5,a6,.L175
 2578              	.LBE61:
 664:./../../firmware/debugger/debugger_core.c ****         dbg_reply(buffer);
 2579              		.loc 1 664 9 is_stmt 1
 664:./../../firmware/debugger/debugger_core.c ****         dbg_reply(buffer);
 2580              		.loc 1 664 28 is_stmt 0
 2581 02f0 8607     		slli	a5,a5,1
 2582              	.LVL268:
 2583 02f2 180C     		addi	a4,sp,528
 2584 02f4 BA97     		add	a5,a4,a5
 2585 02f6 238007E0 		sb	zero,-512(a5)
 665:./../../firmware/debugger/debugger_core.c ****         break;
 2586              		.loc 1 665 9 is_stmt 1
 2587 02fa 8DBD     		j	.L204
 2588              	.LVL269:
 2589              	.L175:
 2590              	.LBB62:
 661:./../../firmware/debugger/debugger_core.c ****             buffer[(i * 2) + 1] =   dbg_hex_lookup[*(uint8_t*)(addr + i) & 0xF];
 2591              		.loc 1 661 13 discriminator 3
 2592 02fc B3851701 		add	a1,a5,a7
 661:./../../firmware/debugger/debugger_core.c ****             buffer[(i * 2) + 1] =   dbg_hex_lookup[*(uint8_t*)(addr + i) & 0xF];
 2593              		.loc 1 661 72 is_stmt 0 discriminator 3
 2594 0300 83C60500 		lbu	a3,0(a1)
 660:./../../firmware/debugger/debugger_core.c ****             buffer[i * 2] =       dbg_hex_lookup[*(uint8_t*)(addr + i) >> 4];
 2595              		.loc 1 660 38 discriminator 3
 2596 0304 8507     		addi	a5,a5,1
 2597              	.LVL270:
 2598 0306 0907     		addi	a4,a4,2
 661:./../../firmware/debugger/debugger_core.c ****             buffer[(i * 2) + 1] =   dbg_hex_lookup[*(uint8_t*)(addr + i) & 0xF];
 2599              		.loc 1 661 72 discriminator 3
 2600 0308 9182     		srli	a3,a3,4
 661:./../../firmware/debugger/debugger_core.c ****             buffer[(i * 2) + 1] =   dbg_hex_lookup[*(uint8_t*)(addr + i) & 0xF];
 2601              		.loc 1 661 49 discriminator 3
 2602 030a B296     		add	a3,a2,a3
 661:./../../firmware/debugger/debugger_core.c ****             buffer[(i * 2) + 1] =   dbg_hex_lookup[*(uint8_t*)(addr + i) & 0xF];
 2603              		.loc 1 661 27 discriminator 3
 2604 030c 83C60600 		lbu	a3,0(a3)
 2605 0310 230FD7FE 		sb	a3,-2(a4)
 662:./../../firmware/debugger/debugger_core.c ****         }
 2606              		.loc 1 662 13 is_stmt 1 discriminator 3
 2607              	.LVL271:
 662:./../../firmware/debugger/debugger_core.c ****         }
 2608              		.loc 1 662 74 is_stmt 0 discriminator 3
 2609 0314 83C60500 		lbu	a3,0(a1)
GAS LISTING C:\Users\marwz\AppData\Local\Temp\ccDVLJoD.s 			page 69


 2610 0318 BD8A     		andi	a3,a3,15
 662:./../../firmware/debugger/debugger_core.c ****         }
 2611              		.loc 1 662 51 discriminator 3
 2612 031a B296     		add	a3,a2,a3
 662:./../../firmware/debugger/debugger_core.c ****         }
 2613              		.loc 1 662 33 discriminator 3
 2614 031c 83C60600 		lbu	a3,0(a3)
 2615 0320 A30FD7FE 		sb	a3,-1(a4)
 2616 0324 E1B7     		j	.L174
 2617              	.LVL272:
 2618              	.L164:
 2619              	.LBE62:
 669:./../../firmware/debugger/debugger_core.c ****         if (dbg_match(&message[2], "Cont?")) dbg_reply(""); //Multiprocess continue supported?
 2620              		.loc 1 669 9 is_stmt 1
 669:./../../firmware/debugger/debugger_core.c ****         if (dbg_match(&message[2], "Cont?")) dbg_reply(""); //Multiprocess continue supported?
 2621              		.loc 1 669 13 is_stmt 0
 2622 0326 13842500 		addi	s0,a1,2
 2623              	.LVL273:
 2624 032a B7050000 		lui	a1,%hi(.LC14)
 2625 032e 93850500 		addi	a1,a1,%lo(.LC14)
 2626 0332 2285     		mv	a0,s0
 2627              	.LVL274:
 2628 0334 97000000 		call	dbg_match
 2628      E7800000 
 2629              	.LVL275:
 669:./../../firmware/debugger/debugger_core.c ****         if (dbg_match(&message[2], "Cont?")) dbg_reply(""); //Multiprocess continue supported?
 2630              		.loc 1 669 12
 2631 033c 09C9     		beq	a0,zero,.L176
 669:./../../firmware/debugger/debugger_core.c ****         if (dbg_match(&message[2], "Cont?")) dbg_reply(""); //Multiprocess continue supported?
 2632              		.loc 1 669 55 is_stmt 1 discriminator 1
 2633 033e 37050000 		lui	a0,%hi(.LC8)
 2634 0342 13050500 		addi	a0,a0,%lo(.LC8)
 2635 0346 97000000 		call	dbg_reply
 2635      E7800000 
 2636              	.LVL276:
 2637              	.L176:
 670:./../../firmware/debugger/debugger_core.c ****         break;
 2638              		.loc 1 670 9
 670:./../../firmware/debugger/debugger_core.c ****         break;
 2639              		.loc 1 670 13 is_stmt 0
 2640 034e B7050000 		lui	a1,%hi(.LC15)
 2641 0352 93850500 		addi	a1,a1,%lo(.LC15)
 2642 0356 2285     		mv	a0,s0
 2643 0358 97000000 		call	dbg_match
 2643      E7800000 
 2644              	.LVL277:
 670:./../../firmware/debugger/debugger_core.c ****         break;
 2645              		.loc 1 670 12
 2646 0360 E30A05CC 		beq	a0,zero,.L151
 670:./../../firmware/debugger/debugger_core.c ****         break;
 2647              		.loc 1 670 46 is_stmt 1 discriminator 1
 2648 0364 37050000 		lui	a0,%hi(.LC8)
 2649 0368 13050500 		addi	a0,a0,%lo(.LC8)
 2650 036c 01B5     		j	.L204
 2651              	.LVL278:
 2652              	.L160:
 674:./../../firmware/debugger/debugger_core.c ****         break;
GAS LISTING C:\Users\marwz\AppData\Local\Temp\ccDVLJoD.s 			page 70


 2653              		.loc 1 674 9
 674:./../../firmware/debugger/debugger_core.c ****         break;
 2654              		.loc 1 674 22 is_stmt 0
 2655 036e 8D47     		li	a5,3
 2656              	.L206:
 678:./../../firmware/debugger/debugger_core.c ****         break;
 2657              		.loc 1 678 22
 2658 0370 1CC0     		sw	a5,0(s0)
 679:./../../firmware/debugger/debugger_core.c ****     case '?':
 2659              		.loc 1 679 9 is_stmt 1
 2660 0372 C9B1     		j	.L151
 2661              	.L156:
 682:./../../firmware/debugger/debugger_core.c ****         break;
 2662              		.loc 1 682 9
 2663 0374 37050000 		lui	a0,%hi(.LC16)
 2664              	.LVL279:
 2665 0378 13050500 		addi	a0,a0,%lo(.LC16)
 2666 037c C5BB     		j	.L204
 2667              	.LVL280:
 2668              	.L158:
 686:./../../firmware/debugger/debugger_core.c ****         dbg_add_breakpoint(addr, state);
 2669              		.loc 1 686 9
 2670 037e A145     		li	a1,8
 2671 0380 3000     		addi	a2,sp,8
 2672 0382 1105     		addi	a0,a0,4
 2673              	.LVL281:
 2674 0384 97000000 		call	dbg_parse_hex
 2674      E7800000 
 2675              	.LVL282:
 687:./../../firmware/debugger/debugger_core.c ****         dbg_reply("OK");
 2676              		.loc 1 687 9
 2677 038c 2245     		lw	a0,8(sp)
 2678 038e A285     		mv	a1,s0
 2679 0390 97000000 		call	dbg_add_breakpoint
 2679      E7800000 
 2680              	.LVL283:
 688:./../../firmware/debugger/debugger_core.c ****         break;
 2681              		.loc 1 688 9
 2682              	.L205:
 694:./../../firmware/debugger/debugger_core.c ****         break;
 2683              		.loc 1 694 9
 2684 0398 37050000 		lui	a0,%hi(.LC6)
 2685 039c 13050500 		addi	a0,a0,%lo(.LC6)
 2686 03a0 F1B3     		j	.L204
 2687              		.cfi_endproc
 2688              	.LFE25:
 2690              		.section	.text.handle_trap,"ax",@progbits
 2691              		.align	1
 2692              		.globl	handle_trap
 2694              	handle_trap:
 2695              	.LFB12:
 336:./../../firmware/debugger/debugger_core.c ****     volatile registerfile_t regs = build_register_state_sp(sp);
 2696              		.loc 1 336 1
 2697              		.cfi_startproc
 2698              	.LVL284:
 337:./../../firmware/debugger/debugger_core.c ****     dbg_store_irq_state(&dbg_state_g);
 2699              		.loc 1 337 5
GAS LISTING C:\Users\marwz\AppData\Local\Temp\ccDVLJoD.s 			page 71


 336:./../../firmware/debugger/debugger_core.c ****     volatile registerfile_t regs = build_register_state_sp(sp);
 2700              		.loc 1 336 1 is_stmt 0
 2701 0000 130101CD 		addi	sp,sp,-816
 2702              	.LCFI19:
 2703              		.cfi_def_cfa_offset 816
 337:./../../firmware/debugger/debugger_core.c ****     dbg_store_irq_state(&dbg_state_g);
 2704              		.loc 1 337 36
 2705 0004 0809     		addi	a0,sp,144
 2706              	.LVL285:
 336:./../../firmware/debugger/debugger_core.c ****     volatile registerfile_t regs = build_register_state_sp(sp);
 2707              		.loc 1 336 1
 2708 0006 23261132 		sw	ra,812(sp)
 2709 000a 23248132 		sw	s0,808(sp)
 2710 000e 23202133 		sw	s2,800(sp)
 2711              		.cfi_offset 1, -4
 2712              		.cfi_offset 8, -8
 2713              		.cfi_offset 18, -16
 338:./../../firmware/debugger/debugger_core.c ****     dbg_state_g.regs = regs;
 2714              		.loc 1 338 5
 2715 0012 37040000 		lui	s0,%hi(.LANCHOR0)
 336:./../../firmware/debugger/debugger_core.c ****     volatile registerfile_t regs = build_register_state_sp(sp);
 2716              		.loc 1 336 1
 2717 0016 23229132 		sw	s1,804(sp)
 2718 001a 232E3131 		sw	s3,796(sp)
 2719              		.cfi_offset 9, -12
 2720              		.cfi_offset 19, -20
 337:./../../firmware/debugger/debugger_core.c ****     dbg_store_irq_state(&dbg_state_g);
 2721              		.loc 1 337 36
 2722 001e 97000000 		call	build_register_state_sp
 2722      E7800000 
 2723              	.LVL286:
 338:./../../firmware/debugger/debugger_core.c ****     dbg_state_g.regs = regs;
 2724              		.loc 1 338 5 is_stmt 1
 2725 0026 13050400 		addi	a0,s0,%lo(.LANCHOR0)
 2726 002a 97000000 		call	dbg_store_irq_state
 2726      E7800000 
 2727              	.LVL287:
 339:./../../firmware/debugger/debugger_core.c ****     volatile uintptr_t address = 0;
 2728              		.loc 1 339 5
 338:./../../firmware/debugger/debugger_core.c ****     dbg_state_g.regs = regs;
 2729              		.loc 1 338 5 is_stmt 0
 2730 0032 13090400 		addi	s2,s0,%lo(.LANCHOR0)
 339:./../../firmware/debugger/debugger_core.c ****     volatile uintptr_t address = 0;
 2731              		.loc 1 339 22
 2732 0036 13060008 		li	a2,128
 2733 003a 0C09     		addi	a1,sp,144
 2734 003c 13054900 		addi	a0,s2,4
 2735 0040 97000000 		call	memcpy
 2735      E7800000 
 2736              	.LVL288:
 340:./../../firmware/debugger/debugger_core.c ****     uint32_t next_instruction = 0;
 2737              		.loc 1 340 5 is_stmt 1
 340:./../../firmware/debugger/debugger_core.c ****     uint32_t next_instruction = 0;
 2738              		.loc 1 340 24 is_stmt 0
 2739 0048 02C7     		sw	zero,140(sp)
 341:./../../firmware/debugger/debugger_core.c ****     write_csr(tselect, 1);
 2740              		.loc 1 341 5 is_stmt 1
GAS LISTING C:\Users\marwz\AppData\Local\Temp\ccDVLJoD.s 			page 72


 2741              	.LVL289:
 342:./../../firmware/debugger/debugger_core.c ****     address = read_csr(mepc);
 2742              		.loc 1 342 5
 342:./../../firmware/debugger/debugger_core.c ****     address = read_csr(mepc);
 2743              		.loc 1 342 5
 2744              	 #APP
 2745              	# 342 "./../../firmware/debugger/debugger_core.c" 1
 343:./../../firmware/debugger/debugger_core.c ****     dbg_state_g.pc = address;
 2746              		csrw tselect, 1
 2747              	# 0 "" 2
 2748              		.loc 1 343 5
 2749              	 #NO_APP
 2750              	.LBB63:
 343:./../../firmware/debugger/debugger_core.c ****     dbg_state_g.pc = address;
 2751              		.loc 1 343 15
 343:./../../firmware/debugger/debugger_core.c ****     dbg_state_g.pc = address;
 2752              		.loc 1 343 15
 2753              	 #APP
 2754              	# 343 "./../../firmware/debugger/debugger_core.c" 1
 2755              		csrr a5, mepc
 2756              	# 0 "" 2
 2757              	.LVL290:
 343:./../../firmware/debugger/debugger_core.c ****     dbg_state_g.pc = address;
 2758              		.loc 1 343 15
 2759              	 #NO_APP
 2760              	.LBE63:
 343:./../../firmware/debugger/debugger_core.c ****     dbg_state_g.pc = address;
 2761              		.loc 1 343 13 is_stmt 0
 2762 0052 3EC7     		sw	a5,140(sp)
 344:./../../firmware/debugger/debugger_core.c ****     static uint8_t debugger_started = 0;
 2763              		.loc 1 344 5 is_stmt 1
 344:./../../firmware/debugger/debugger_core.c ****     static uint8_t debugger_started = 0;
 2764              		.loc 1 344 20 is_stmt 0
 2765 0054 BA47     		lw	a5,140(sp)
 2766              	.LVL291:
 2767 0056 A284     		mv	s1,s0
 2768 0058 93090400 		addi	s3,s0,%lo(.LANCHOR0)
 2769 005c 2322F908 		sw	a5,132(s2)
 345:./../../firmware/debugger/debugger_core.c ****     if(dbg_state_g.state == DBG_BREAK){
 2770              		.loc 1 345 5 is_stmt 1
 346:./../../firmware/debugger/debugger_core.c ****         dbg_temporary_disable_breakpoint(0);
 2771              		.loc 1 346 5
 346:./../../firmware/debugger/debugger_core.c ****         dbg_temporary_disable_breakpoint(0);
 2772              		.loc 1 346 19 is_stmt 0
 2773 0060 83270900 		lw	a5,0(s2)
 346:./../../firmware/debugger/debugger_core.c ****         dbg_temporary_disable_breakpoint(0);
 2774              		.loc 1 346 7
 2775 0064 85EB     		bne	a5,zero,.L208
 347:./../../firmware/debugger/debugger_core.c ****         dbg_state_g.state = DBG_RUNNING;
 2776              		.loc 1 347 9 is_stmt 1
 2777              	.LVL292:
 2778              	.LBB64:
 2779              	.LBB65:
 454:./../../firmware/debugger/debugger_core.c ****     uint32_t config_break = DEBUG_BREAK_EXEC | DEBUG_TIMING_AFTER;
 2780              		.loc 1 454 5
 454:./../../firmware/debugger/debugger_core.c ****     uint32_t config_break = DEBUG_BREAK_EXEC | DEBUG_TIMING_AFTER;
 2781              		.loc 1 454 5
GAS LISTING C:\Users\marwz\AppData\Local\Temp\ccDVLJoD.s 			page 73


 2782              	 #APP
 2783              	# 454 "./../../firmware/debugger/debugger_core.c" 1
 455:./../../firmware/debugger/debugger_core.c ****     write_csr(tdata1, config_break);
 2784              		csrw tselect, 0
 2785              	# 0 "" 2
 2786              		.loc 1 455 5
 2787              	.LVL293:
 456:./../../firmware/debugger/debugger_core.c **** }
 2788              		.loc 1 456 5
 456:./../../firmware/debugger/debugger_core.c **** }
 2789              		.loc 1 456 5
 2790              	 #NO_APP
 2791 006a B7070400 		li	a5,262144
 2792 006e 9107     		addi	a5,a5,4
 2793              	 #APP
 2794              	# 456 "./../../firmware/debugger/debugger_core.c" 1
 2795              		csrw tdata1, a5
 2796              	# 0 "" 2
 2797              	.LVL294:
 2798              	 #NO_APP
 2799              	.LBE65:
 2800              	.LBE64:
 348:./../../firmware/debugger/debugger_core.c ****     }
 2801              		.loc 1 348 9
 350:./../../firmware/debugger/debugger_core.c ****         case DBG_RUNNING:
 2802              		.loc 1 350 5
 2803              	.L209:
 352:./../../firmware/debugger/debugger_core.c ****             for (int i = 0; i < DBG_BREAKPOINTS_AVAILABLE; i++) {
 2804              		.loc 1 352 13
 352:./../../firmware/debugger/debugger_core.c ****             for (int i = 0; i < DBG_BREAKPOINTS_AVAILABLE; i++) {
 2805              		.loc 1 352 31 is_stmt 0
 2806 0074 8547     		li	a5,1
 2807 0076 23A0F900 		sw	a5,0(s3)
 353:./../../firmware/debugger/debugger_core.c ****                 dbg_store_breakpoint(i, &dbg_state_g); 
 2808              		.loc 1 353 13 is_stmt 1
 2809              	.LBB66:
 353:./../../firmware/debugger/debugger_core.c ****                 dbg_store_breakpoint(i, &dbg_state_g); 
 2810              		.loc 1 353 18
 2811              	.LVL295:
 353:./../../firmware/debugger/debugger_core.c ****                 dbg_store_breakpoint(i, &dbg_state_g); 
 2812              		.loc 1 353 22 is_stmt 0
 2813 007a 0144     		li	s0,0
 353:./../../firmware/debugger/debugger_core.c ****                 dbg_store_breakpoint(i, &dbg_state_g); 
 2814              		.loc 1 353 13
 2815 007c 1149     		li	s2,4
 2816              	.LVL296:
 2817              	.L213:
 354:./../../firmware/debugger/debugger_core.c ****             }
 2818              		.loc 1 354 17 is_stmt 1 discriminator 3
 2819 007e 2285     		mv	a0,s0
 2820 0080 93850400 		addi	a1,s1,%lo(.LANCHOR0)
 353:./../../firmware/debugger/debugger_core.c ****                 dbg_store_breakpoint(i, &dbg_state_g); 
 2821              		.loc 1 353 61 is_stmt 0 discriminator 3
 2822 0084 0504     		addi	s0,s0,1
 2823              	.LVL297:
 354:./../../firmware/debugger/debugger_core.c ****             }
 2824              		.loc 1 354 17 discriminator 3
GAS LISTING C:\Users\marwz\AppData\Local\Temp\ccDVLJoD.s 			page 74


 2825 0086 97000000 		call	dbg_store_breakpoint
 2825      E7800000 
 2826              	.LVL298:
 353:./../../firmware/debugger/debugger_core.c ****                 dbg_store_breakpoint(i, &dbg_state_g); 
 2827              		.loc 1 353 13 discriminator 3
 2828 008e E31824FF 		bne	s0,s2,.L213
 2829 0092 11A8     		j	.L212
 2830              	.LVL299:
 2831              	.L208:
 2832              	.LBE66:
 350:./../../firmware/debugger/debugger_core.c ****         case DBG_RUNNING:
 2833              		.loc 1 350 5 is_stmt 1
 2834 0094 0D47     		li	a4,3
 2835 0096 6385E712 		beq	a5,a4,.L210
 2836 009a 1147     		li	a4,4
 2837 009c 6385E70E 		beq	a5,a4,.L211
 2838 00a0 0947     		li	a4,2
 2839 00a2 E389E7FC 		beq	a5,a4,.L209
 2840              	.L212:
 2841              	.LVL300:
 2842              	.LBB67:
 374:./../../firmware/debugger/debugger_core.c ****     }
 2843              		.loc 1 374 9 discriminator 1
 2844 00a6 0145     		li	a0,0
 2845 00a8 97000000 		call	dbg_temporary_disable_breakpoint
 2845      E7800000 
 2846              	.LVL301:
 374:./../../firmware/debugger/debugger_core.c ****     }
 2847              		.loc 1 374 9 discriminator 1
 2848 00b0 0545     		li	a0,1
 2849 00b2 97000000 		call	dbg_temporary_disable_breakpoint
 2849      E7800000 
 2850              	.LVL302:
 374:./../../firmware/debugger/debugger_core.c ****     }
 2851              		.loc 1 374 9 discriminator 1
 2852 00ba 0945     		li	a0,2
 2853 00bc 97000000 		call	dbg_temporary_disable_breakpoint
 2853      E7800000 
 2854              	.LVL303:
 374:./../../firmware/debugger/debugger_core.c ****     }
 2855              		.loc 1 374 9 discriminator 1
 2856 00c4 0D45     		li	a0,3
 2857 00c6 97000000 		call	dbg_temporary_disable_breakpoint
 2857      E7800000 
 2858              	.LVL304:
 2859              	.LBE67:
 377:./../../firmware/debugger/debugger_core.c **** 
 2860              		.loc 1 377 5 discriminator 1
 2861 00ce 0545     		li	a0,1
 2862 00d0 97000000 		call	dbg_delay_1ms
 2862      E7800000 
 2863              	.LVL305:
 379:./../../firmware/debugger/debugger_core.c **** 
 2864              		.loc 1 379 5 discriminator 1
 379:./../../firmware/debugger/debugger_core.c **** 
 2865              		.loc 1 379 13 is_stmt 0 discriminator 1
 2866 00d8 13060020 		li	a2,512
GAS LISTING C:\Users\marwz\AppData\Local\Temp\ccDVLJoD.s 			page 75


 2867 00dc 8145     		li	a1,0
 2868 00de 080A     		addi	a0,sp,272
 2869 00e0 97000000 		call	memset
 2869      E7800000 
 2870              	.LVL306:
 381:./../../firmware/debugger/debugger_core.c ****     dbg_yield_to_irqs();
 2871              		.loc 1 381 5 is_stmt 1 discriminator 1
 2872 00e8 37050000 		lui	a0,%hi(.LC16)
 2873 00ec 13050500 		addi	a0,a0,%lo(.LC16)
 2874 00f0 97000000 		call	dbg_reply
 2874      E7800000 
 2875              	.LVL307:
 382:./../../firmware/debugger/debugger_core.c ****     dbg_delay_1ms(1);
 2876              		.loc 1 382 5 discriminator 1
 2877 00f8 97000000 		call	dbg_yield_to_irqs
 2877      E7800000 
 2878              	.LVL308:
 383:./../../firmware/debugger/debugger_core.c **** 
 2879              		.loc 1 383 5 discriminator 1
 2880 0100 0545     		li	a0,1
 2881 0102 97000000 		call	dbg_delay_1ms
 2881      E7800000 
 2882              	.LVL309:
 385:./../../firmware/debugger/debugger_core.c ****     if(instruction_executed_before(*((uint32_t*)address))) write_csr(mepc, next_instruction);
 2883              		.loc 1 385 5 discriminator 1
 385:./../../firmware/debugger/debugger_core.c ****     if(instruction_executed_before(*((uint32_t*)address))) write_csr(mepc, next_instruction);
 2884              		.loc 1 385 24 is_stmt 0 discriminator 1
 2885 010a 3A44     		lw	s0,140(sp)
 2886 010c 13060008 		li	a2,128
 2887 0110 0C09     		addi	a1,sp,144
 2888 0112 0A85     		mv	a0,sp
 2889 0114 97000000 		call	memcpy
 2889      E7800000 
 2890              	.LVL310:
 2891 011c 2285     		mv	a0,s0
 2892 011e 8A85     		mv	a1,sp
 2893 0120 97000000 		call	predict_next_instruction
 2893      E7800000 
 2894              	.LVL311:
 386:./../../firmware/debugger/debugger_core.c ****     address = next_instruction;
 2895              		.loc 1 386 38 discriminator 1
 2896 0128 BA47     		lw	a5,140(sp)
 385:./../../firmware/debugger/debugger_core.c ****     if(instruction_executed_before(*((uint32_t*)address))) write_csr(mepc, next_instruction);
 2897              		.loc 1 385 24 discriminator 1
 2898 012a 2A84     		mv	s0,a0
 2899              	.LVL312:
 386:./../../firmware/debugger/debugger_core.c ****     address = next_instruction;
 2900              		.loc 1 386 5 is_stmt 1 discriminator 1
 386:./../../firmware/debugger/debugger_core.c ****     address = next_instruction;
 2901              		.loc 1 386 8 is_stmt 0 discriminator 1
 2902 012c 8843     		lw	a0,0(a5)
 2903 012e 97000000 		call	instruction_executed_before
 2903      E7800000 
 2904              	.LVL313:
 386:./../../firmware/debugger/debugger_core.c ****     address = next_instruction;
 2905              		.loc 1 386 7 discriminator 1
 2906 0136 19C1     		beq	a0,zero,.L214
GAS LISTING C:\Users\marwz\AppData\Local\Temp\ccDVLJoD.s 			page 76


 386:./../../firmware/debugger/debugger_core.c ****     address = next_instruction;
 2907              		.loc 1 386 60 is_stmt 1 discriminator 1
 386:./../../firmware/debugger/debugger_core.c ****     address = next_instruction;
 2908              		.loc 1 386 60 discriminator 1
 2909              	 #APP
 2910              	# 386 "./../../firmware/debugger/debugger_core.c" 1
 2911              		csrw mepc, s0
 2912              	# 0 "" 2
 2913              	 #NO_APP
 2914              	.L214:
 387:./../../firmware/debugger/debugger_core.c **** 
 2915              		.loc 1 387 5
 387:./../../firmware/debugger/debugger_core.c **** 
 2916              		.loc 1 387 13 is_stmt 0
 2917 013c 22C7     		sw	s0,140(sp)
 2918              	.LVL314:
 393:./../../firmware/debugger/debugger_core.c ****                 dbg_set_temporary_breakpoint(address, 1);
 2919              		.loc 1 393 16
 2920 013e 0544     		li	s0,1
 2921              	.LVL315:
 2922              	.L216:
 390:./../../firmware/debugger/debugger_core.c ****         if (dbg_check_messages(read_buffer)) {
 2923              		.loc 1 390 5 is_stmt 1
 391:./../../firmware/debugger/debugger_core.c ****             dbg_message_decoder(&dbg_state_g, read_buffer);
 2924              		.loc 1 391 9
 391:./../../firmware/debugger/debugger_core.c ****             dbg_message_decoder(&dbg_state_g, read_buffer);
 2925              		.loc 1 391 13 is_stmt 0
 2926 0140 080A     		addi	a0,sp,272
 2927 0142 97000000 		call	dbg_check_messages
 2927      E7800000 
 2928              	.LVL316:
 391:./../../firmware/debugger/debugger_core.c ****             dbg_message_decoder(&dbg_state_g, read_buffer);
 2929              		.loc 1 391 12
 2930 014a 3DCD     		beq	a0,zero,.L215
 392:./../../firmware/debugger/debugger_core.c ****             if ((dbg_state_g.state == DBG_STEP) || (dbg_state_g.state == DBG_CONTINUE)) {
 2931              		.loc 1 392 13 is_stmt 1
 2932 014c 0C0A     		addi	a1,sp,272
 2933 014e 13850400 		addi	a0,s1,%lo(.LANCHOR0)
 2934 0152 97000000 		call	dbg_message_decoder
 2934      E7800000 
 2935              	.LVL317:
 393:./../../firmware/debugger/debugger_core.c ****                 dbg_set_temporary_breakpoint(address, 1);
 2936              		.loc 1 393 13
 393:./../../firmware/debugger/debugger_core.c ****                 dbg_set_temporary_breakpoint(address, 1);
 2937              		.loc 1 393 49 is_stmt 0
 2938 015a 83A70900 		lw	a5,0(s3)
 2939 015e F517     		addi	a5,a5,-3
 393:./../../firmware/debugger/debugger_core.c ****                 dbg_set_temporary_breakpoint(address, 1);
 2940              		.loc 1 393 16
 2941 0160 6364F406 		bgtu	a5,s0,.L215
 394:./../../firmware/debugger/debugger_core.c ****                 dbg_yield_to_irqs();
 2942              		.loc 1 394 17 is_stmt 1
 2943 0164 3A45     		lw	a0,140(sp)
 2944 0166 8545     		li	a1,1
 2945 0168 97000000 		call	dbg_set_temporary_breakpoint
 2945      E7800000 
 2946              	.LVL318:
GAS LISTING C:\Users\marwz\AppData\Local\Temp\ccDVLJoD.s 			page 77


 395:./../../firmware/debugger/debugger_core.c ****                 break;
 2947              		.loc 1 395 17
 2948 0170 97000000 		call	dbg_yield_to_irqs
 2948      E7800000 
 2949              	.LVL319:
 396:./../../firmware/debugger/debugger_core.c ****             }
 2950              		.loc 1 396 17
 401:./../../firmware/debugger/debugger_core.c **** }
 2951              		.loc 1 401 5
 2952 0178 13850400 		addi	a0,s1,%lo(.LANCHOR0)
 2953 017c 97000000 		call	dbg_restore_irq_state
 2953      E7800000 
 2954              	.LVL320:
 402:./../../firmware/debugger/debugger_core.c **** 
 2955              		.loc 1 402 1 is_stmt 0
 2956 0184 0DA0     		j	.L207
 2957              	.LVL321:
 2958              	.L211:
 358:./../../firmware/debugger/debugger_core.c ****             dbg_state_g.state = DBG_RUNNING;
 2959              		.loc 1 358 13 is_stmt 1
 2960 0186 13050400 		addi	a0,s0,%lo(.LANCHOR0)
 2961 018a 97000000 		call	dbg_restore_breakpoints
 2961      E7800000 
 2962              	.LVL322:
 359:./../../firmware/debugger/debugger_core.c ****             dbg_restore_irq_state(&dbg_state_g);
 2963              		.loc 1 359 13
 359:./../../firmware/debugger/debugger_core.c ****             dbg_restore_irq_state(&dbg_state_g);
 2964              		.loc 1 359 31 is_stmt 0
 2965 0192 8947     		li	a5,2
 360:./../../firmware/debugger/debugger_core.c ****             return 0;
 2966              		.loc 1 360 13
 2967 0194 13050400 		addi	a0,s0,%lo(.LANCHOR0)
 359:./../../firmware/debugger/debugger_core.c ****             dbg_restore_irq_state(&dbg_state_g);
 2968              		.loc 1 359 31
 2969 0198 2320F900 		sw	a5,0(s2)
 360:./../../firmware/debugger/debugger_core.c ****             return 0;
 2970              		.loc 1 360 13 is_stmt 1
 2971 019c 97000000 		call	dbg_restore_irq_state
 2971      E7800000 
 2972              	.LVL323:
 361:./../../firmware/debugger/debugger_core.c ****         case DBG_STEP:
 2973              		.loc 1 361 13
 361:./../../firmware/debugger/debugger_core.c ****         case DBG_STEP:
 2974              		.loc 1 361 20 is_stmt 0
 2975 01a4 0145     		li	a0,0
 2976              	.LVL324:
 2977              	.L207:
 402:./../../firmware/debugger/debugger_core.c **** 
 2978              		.loc 1 402 1
 2979 01a6 8320C132 		lw	ra,812(sp)
 2980              		.cfi_remember_state
 2981              		.cfi_restore 1
 2982 01aa 03248132 		lw	s0,808(sp)
 2983              		.cfi_restore 8
 2984 01ae 83244132 		lw	s1,804(sp)
 2985              		.cfi_restore 9
 2986 01b2 03290132 		lw	s2,800(sp)
GAS LISTING C:\Users\marwz\AppData\Local\Temp\ccDVLJoD.s 			page 78


 2987              		.cfi_restore 18
 2988 01b6 8329C131 		lw	s3,796(sp)
 2989              		.cfi_restore 19
 2990 01ba 13010133 		addi	sp,sp,816
 2991              	.LCFI20:
 2992              		.cfi_def_cfa_offset 0
 2993 01be 8280     		jr	ra
 2994              	.LVL325:
 2995              	.L210:
 2996              	.LCFI21:
 2997              		.cfi_restore_state
 363:./../../firmware/debugger/debugger_core.c ****             //Do nothing
 2998              		.loc 1 363 13 is_stmt 1
 363:./../../firmware/debugger/debugger_core.c ****             //Do nothing
 2999              		.loc 1 363 31 is_stmt 0
 3000 01c0 8547     		li	a5,1
 3001 01c2 23A0F900 		sw	a5,0(s3)
 365:./../../firmware/debugger/debugger_core.c ****         case DBG_STALL:
 3002              		.loc 1 365 13 is_stmt 1
 3003 01c6 C5B5     		j	.L212
 3004              	.LVL326:
 3005              	.L215:
 399:./../../firmware/debugger/debugger_core.c ****     }
 3006              		.loc 1 399 9
 3007 01c8 97000000 		call	dbg_yield_to_irqs
 3007      E7800000 
 3008              	.LVL327:
 391:./../../firmware/debugger/debugger_core.c ****             dbg_message_decoder(&dbg_state_g, read_buffer);
 3009              		.loc 1 391 12 is_stmt 0
 3010 01d0 85BF     		j	.L216
 3011              		.cfi_endproc
 3012              	.LFE12:
 3014              		.section	.bss.buf.3796,"aw",@nobits
 3015              		.align	2
 3016              		.set	.LANCHOR2,. + 0
 3019              	buf.3796:
 3020 0000 00000000 		.zero	520
 3020      00000000 
 3020      00000000 
 3020      00000000 
 3020      00000000 
 3021              		.section	.data.dbg_state_g,"aw"
 3022              		.align	2
 3023              		.set	.LANCHOR0,. + 0
 3026              	dbg_state_g:
 3027 0000 02000000 		.word	2
 3028 0004 00000000 		.word	0
 3029 0008 00000000 		.zero	124
 3029      00000000 
 3029      00000000 
 3029      00000000 
 3029      00000000 
 3030 0084 00000000 		.word	0
 3031 0088 00000000 		.word	0
 3032 008c 00000000 		.zero	8
 3032      00000000 
 3033 0094 00000000 		.zero	4
GAS LISTING C:\Users\marwz\AppData\Local\Temp\ccDVLJoD.s 			page 79


 3034 0098 00000000 		.zero	48
 3034      00000000 
 3034      00000000 
 3034      00000000 
 3034      00000000 
 3035 00c8 00000000 		.word	0
 3036 00cc 00000000 		.zero	8
 3036      00000000 
 3037 00d4 00000000 		.word	0
 3038 00d8 00000000 		.zero	8
 3038      00000000 
 3039              		.section	.rodata.dbg_check_messages.str1.4,"aMS",@progbits,1
 3040              		.align	2
 3041              	.LC0:
 3042 0000 2B00     		.string	"+"
 3043              		.section	.rodata.dbg_hex_lookup,"a"
 3044              		.align	2
 3045              		.set	.LANCHOR1,. + 0
 3048              	dbg_hex_lookup:
 3049 0000 30313233 		.string	"0123456789ABCDEF"
 3049      34353637 
 3049      38394142 
 3049      43444546 
 3049      00
 3050              		.section	.rodata.dbg_message_decoder.str1.4,"aMS",@progbits,1
 3051              		.align	2
 3052              	.LC1:
 3053 0000 53757070 		.string	"Supported"
 3053      6F727465 
 3053      6400
 3054 000a 0000     		.zero	2
 3055              	.LC2:
 3056 000c 5061636B 		.string	"PacketSize=109;hwbreak+"
 3056      65745369 
 3056      7A653D31 
 3056      30393B68 
 3056      77627265 
 3057              	.LC3:
 3058 0024 4F666673 		.string	"Offsets"
 3058      65747300 
 3059              	.LC4:
 3060 002c 54657874 		.string	"Text=0;Data=0;Bss=0;"
 3060      3D303B44 
 3060      6174613D 
 3060      303B4273 
 3060      733D303B 
 3061 0041 000000   		.zero	3
 3062              	.LC5:
 3063 0044 53796D62 		.string	"Symbol"
 3063      6F6C00
 3064 004b 00       		.zero	1
 3065              	.LC6:
 3066 004c 4F4B00   		.string	"OK"
 3067 004f 00       		.zero	1
 3068              	.LC7:
 3069 0050 4300     		.string	"C"
 3070 0052 0000     		.zero	2
GAS LISTING C:\Users\marwz\AppData\Local\Temp\ccDVLJoD.s 			page 80


 3071              	.LC8:
 3072 0054 00       		.string	""
 3073 0055 000000   		.zero	3
 3074              	.LC9:
 3075 0058 54537461 		.string	"TStatus"
 3075      74757300 
 3076              	.LC10:
 3077 0060 66546872 		.string	"fThreadInfo"
 3077      65616449 
 3077      6E666F00 
 3078              	.LC11:
 3079 006c 31656C00 		.string	"1el"
 3080              	.LC12:
 3081 0070 41747461 		.string	"Attached"
 3081      63686564 
 3081      00
 3082 0079 000000   		.zero	3
 3083              	.LC13:
 3084 007c 3000     		.string	"0"
 3085 007e 0000     		.zero	2
 3086              	.LC14:
 3087 0080 4D757374 		.string	"MustReplyEmpty"
 3087      5265706C 
 3087      79456D70 
 3087      747900
 3088 008f 00       		.zero	1
 3089              	.LC15:
 3090 0090 436F6E74 		.string	"Cont?"
 3090      3F00
 3091 0096 0000     		.zero	2
 3092              	.LC16:
 3093 0098 53303500 		.string	"S05"
 3094              		.text
 3095              	.Letext0:
 3096              		.file 2 "c:\\users\\marwz\\documents\\github\\datafusion\\src\\datafusionexe\\pressurereadings\\pr
 3097              		.file 3 "c:\\users\\marwz\\documents\\github\\datafusion\\src\\datafusionexe\\pressurereadings\\pr
 3098              		.file 4 "./../../firmware/GD32VF103_standard_peripheral/system_gd32vf103.h"
 3099              		.file 5 "./../../firmware/debugger/debugger_port.h"
 3100              		.file 6 "./../../firmware/debugger/debugger.h"
 3101              		.file 7 "./../../firmware/debugger/debugger_delay.h"
 3102              		.file 8 "<built-in>"
 3103              		.file 9 "./../../firmware/GD32VF103_standard_peripheral/Include/gd32vf103_rcu.h"
 3104              		.file 10 "./../../firmware/GD32VF103_standard_peripheral/Include/gd32vf103_gpio.h"
 3105              		.file 11 "./../../firmware/RISCV/drivers/n200_func.h"
GAS LISTING C:\Users\marwz\AppData\Local\Temp\ccDVLJoD.s 			page 81

