GAS LISTING C:\Users\marwz\AppData\Local\Temp\ccIcrP9f.s 			page 1


   1              		.file	"gd32vf103_hw.c"
   2              		.option nopic
   3              		.attribute arch, "rv32i2p0_m2p0_a2p0_c2p0"
   4              		.attribute unaligned_access, 0
   5              		.attribute stack_align, 16
   6              		.text
   7              	.Ltext0:
   8              		.cfi_sections	.debug_frame
   9              		.section	.text.usb_rcu_config,"ax",@progbits
  10              		.align	1
  11              		.globl	usb_rcu_config
  13              	usb_rcu_config:
  14              	.LFB6:
  15              		.file 1 "lib/usbcdc/src/gd32vf103_hw.c"
   1:lib/usbcdc/src/gd32vf103_hw.c **** /*!
   2:lib/usbcdc/src/gd32vf103_hw.c ****     \file  gd32vf103_hw.c
   3:lib/usbcdc/src/gd32vf103_hw.c ****     \brief USB hardware configuration for GD32VF103
   4:lib/usbcdc/src/gd32vf103_hw.c **** 
   5:lib/usbcdc/src/gd32vf103_hw.c ****     \version 2019-6-5, V1.0.0, demo for GD32VF103
   6:lib/usbcdc/src/gd32vf103_hw.c **** */
   7:lib/usbcdc/src/gd32vf103_hw.c **** 
   8:lib/usbcdc/src/gd32vf103_hw.c **** /*
   9:lib/usbcdc/src/gd32vf103_hw.c ****     Copyright (c) 2019, GigaDevice Semiconductor Inc.
  10:lib/usbcdc/src/gd32vf103_hw.c **** 
  11:lib/usbcdc/src/gd32vf103_hw.c ****     Redistribution and use in source and binary forms, with or without modification, 
  12:lib/usbcdc/src/gd32vf103_hw.c **** are permitted provided that the following conditions are met:
  13:lib/usbcdc/src/gd32vf103_hw.c **** 
  14:lib/usbcdc/src/gd32vf103_hw.c ****     1. Redistributions of source code must retain the above copyright notice, this 
  15:lib/usbcdc/src/gd32vf103_hw.c ****        list of conditions and the following disclaimer.
  16:lib/usbcdc/src/gd32vf103_hw.c ****     2. Redistributions in binary form must reproduce the above copyright notice, 
  17:lib/usbcdc/src/gd32vf103_hw.c ****        this list of conditions and the following disclaimer in the documentation 
  18:lib/usbcdc/src/gd32vf103_hw.c ****        and/or other materials provided with the distribution.
  19:lib/usbcdc/src/gd32vf103_hw.c ****     3. Neither the name of the copyright holder nor the names of its contributors 
  20:lib/usbcdc/src/gd32vf103_hw.c ****        may be used to endorse or promote products derived from this software without 
  21:lib/usbcdc/src/gd32vf103_hw.c ****        specific prior written permission.
  22:lib/usbcdc/src/gd32vf103_hw.c **** 
  23:lib/usbcdc/src/gd32vf103_hw.c ****     THIS SOFTWARE IS PROVIDED BY THE COPYRIGHT HOLDERS AND CONTRIBUTORS "AS IS" 
  24:lib/usbcdc/src/gd32vf103_hw.c **** AND ANY EXPRESS OR IMPLIED WARRANTIES, INCLUDING, BUT NOT LIMITED TO, THE IMPLIED 
  25:lib/usbcdc/src/gd32vf103_hw.c **** WARRANTIES OF MERCHANTABILITY AND FITNESS FOR A PARTICULAR PURPOSE ARE DISCLAIMED. 
  26:lib/usbcdc/src/gd32vf103_hw.c **** IN NO EVENT SHALL THE COPYRIGHT HOLDER OR CONTRIBUTORS BE LIABLE FOR ANY DIRECT, 
  27:lib/usbcdc/src/gd32vf103_hw.c **** INDIRECT, INCIDENTAL, SPECIAL, EXEMPLARY, OR CONSEQUENTIAL DAMAGES (INCLUDING, BUT 
  28:lib/usbcdc/src/gd32vf103_hw.c **** NOT LIMITED TO, PROCUREMENT OF SUBSTITUTE GOODS OR SERVICES; LOSS OF USE, DATA, OR 
  29:lib/usbcdc/src/gd32vf103_hw.c **** PROFITS; OR BUSINESS INTERRUPTION) HOWEVER CAUSED AND ON ANY THEORY OF LIABILITY, 
  30:lib/usbcdc/src/gd32vf103_hw.c **** WHETHER IN CONTRACT, STRICT LIABILITY, OR TORT (INCLUDING NEGLIGENCE OR OTHERWISE) 
  31:lib/usbcdc/src/gd32vf103_hw.c **** ARISING IN ANY WAY OUT OF THE USE OF THIS SOFTWARE, EVEN IF ADVISED OF THE POSSIBILITY 
  32:lib/usbcdc/src/gd32vf103_hw.c **** OF SUCH DAMAGE.
  33:lib/usbcdc/src/gd32vf103_hw.c **** */
  34:lib/usbcdc/src/gd32vf103_hw.c **** 
  35:lib/usbcdc/src/gd32vf103_hw.c **** 
  36:lib/usbcdc/src/gd32vf103_hw.c **** #include "drv_usb_hw.h"
  37:lib/usbcdc/src/gd32vf103_hw.c **** #include <stdio.h>
  38:lib/usbcdc/src/gd32vf103_hw.c **** #include <stdlib.h>
  39:lib/usbcdc/src/gd32vf103_hw.c **** #include <string.h>
  40:lib/usbcdc/src/gd32vf103_hw.c **** #include "usb_delay.h"
  41:lib/usbcdc/src/gd32vf103_hw.c **** 
  42:lib/usbcdc/src/gd32vf103_hw.c **** #define TIM_MSEC_DELAY                          0x01
  43:lib/usbcdc/src/gd32vf103_hw.c **** #define TIM_USEC_DELAY                          0x02
GAS LISTING C:\Users\marwz\AppData\Local\Temp\ccIcrP9f.s 			page 2


  44:lib/usbcdc/src/gd32vf103_hw.c **** 
  45:lib/usbcdc/src/gd32vf103_hw.c **** __IO uint32_t delay_time = 0;
  46:lib/usbcdc/src/gd32vf103_hw.c **** __IO uint32_t timer_prescaler;
  47:lib/usbcdc/src/gd32vf103_hw.c **** __IO uint32_t usbfs_prescaler = 0;
  48:lib/usbcdc/src/gd32vf103_hw.c **** 
  49:lib/usbcdc/src/gd32vf103_hw.c **** //static void hw_time_set (uint8_t unit);
  50:lib/usbcdc/src/gd32vf103_hw.c **** static void hw_delay    (uint32_t ntime, uint8_t unit);
  51:lib/usbcdc/src/gd32vf103_hw.c **** 
  52:lib/usbcdc/src/gd32vf103_hw.c **** 
  53:lib/usbcdc/src/gd32vf103_hw.c **** /*!
  54:lib/usbcdc/src/gd32vf103_hw.c ****     \brief      configure USB clock
  55:lib/usbcdc/src/gd32vf103_hw.c ****     \param[in]  none
  56:lib/usbcdc/src/gd32vf103_hw.c ****     \param[out] none
  57:lib/usbcdc/src/gd32vf103_hw.c ****     \retval     none
  58:lib/usbcdc/src/gd32vf103_hw.c **** */
  59:lib/usbcdc/src/gd32vf103_hw.c **** void usb_rcu_config(void)
  60:lib/usbcdc/src/gd32vf103_hw.c **** {
  16              		.loc 1 60 1
  17              		.cfi_startproc
  61:lib/usbcdc/src/gd32vf103_hw.c ****     uint32_t system_clock = rcu_clock_freq_get(CK_SYS);
  18              		.loc 1 61 5
  60:lib/usbcdc/src/gd32vf103_hw.c ****     uint32_t system_clock = rcu_clock_freq_get(CK_SYS);
  19              		.loc 1 60 1 is_stmt 0
  20 0000 4111     		addi	sp,sp,-16
  21              	.LCFI0:
  22              		.cfi_def_cfa_offset 16
  23              		.loc 1 61 29
  24 0002 0145     		li	a0,0
  60:lib/usbcdc/src/gd32vf103_hw.c ****     uint32_t system_clock = rcu_clock_freq_get(CK_SYS);
  25              		.loc 1 60 1
  26 0004 06C6     		sw	ra,12(sp)
  27              		.cfi_offset 1, -4
  28              		.loc 1 61 29
  29 0006 97000000 		call	rcu_clock_freq_get
  29      E7800000 
  30              	.LVL0:
  62:lib/usbcdc/src/gd32vf103_hw.c ****   
  63:lib/usbcdc/src/gd32vf103_hw.c ****     if (system_clock == 48000000) {
  31              		.loc 1 63 5 is_stmt 1
  32              		.loc 1 63 8 is_stmt 0
  33 000e 3777DC02 		li	a4,48001024
  34 0012 B7070000 		lui	a5,%hi(.LANCHOR0)
  35 0016 130707C0 		addi	a4,a4,-1024
  36 001a 93870700 		addi	a5,a5,%lo(.LANCHOR0)
  37 001e 6317E502 		bne	a0,a4,.L2
  64:lib/usbcdc/src/gd32vf103_hw.c ****         usbfs_prescaler = RCU_CKUSB_CKPLL_DIV1;
  38              		.loc 1 64 9 is_stmt 1
  39              		.loc 1 64 25 is_stmt 0
  40 0022 37074000 		li	a4,4194304
  41 0026 98C3     		sw	a4,0(a5)
  65:lib/usbcdc/src/gd32vf103_hw.c ****         timer_prescaler = 3;
  42              		.loc 1 65 9 is_stmt 1
  43              		.loc 1 65 25 is_stmt 0
  44 0028 8D46     		li	a3,3
  45 002a 37070000 		lui	a4,%hi(timer_prescaler)
  46              	.L6:
  66:lib/usbcdc/src/gd32vf103_hw.c ****     } else if (system_clock == 72000000) {
GAS LISTING C:\Users\marwz\AppData\Local\Temp\ccIcrP9f.s 			page 3


  67:lib/usbcdc/src/gd32vf103_hw.c ****         usbfs_prescaler = RCU_CKUSB_CKPLL_DIV1_5;
  68:lib/usbcdc/src/gd32vf103_hw.c ****         timer_prescaler = 5;
  69:lib/usbcdc/src/gd32vf103_hw.c ****     } else if (system_clock == 96000000) {
  70:lib/usbcdc/src/gd32vf103_hw.c ****         usbfs_prescaler = RCU_CKUSB_CKPLL_DIV2;
  71:lib/usbcdc/src/gd32vf103_hw.c ****         timer_prescaler = 7;
  47              		.loc 1 71 25
  48 002e 2320D700 		sw	a3,%lo(timer_prescaler)(a4)
  49              	.L3:
  72:lib/usbcdc/src/gd32vf103_hw.c ****     } else {
  73:lib/usbcdc/src/gd32vf103_hw.c ****         /*  reserved  */
  74:lib/usbcdc/src/gd32vf103_hw.c ****     }
  50              		.loc 1 74 5 is_stmt 1
  75:lib/usbcdc/src/gd32vf103_hw.c **** 
  76:lib/usbcdc/src/gd32vf103_hw.c ****     rcu_usb_clock_config(usbfs_prescaler);
  51              		.loc 1 76 5
  52 0032 8843     		lw	a0,0(a5)
  53              	.LVL1:
  54 0034 97000000 		call	rcu_usb_clock_config
  54      E7800000 
  55              	.LVL2:
  77:lib/usbcdc/src/gd32vf103_hw.c ****     rcu_periph_clock_enable(RCU_USBFS);
  56              		.loc 1 77 5
  78:lib/usbcdc/src/gd32vf103_hw.c **** }
  57              		.loc 1 78 1 is_stmt 0
  58 003c B240     		lw	ra,12(sp)
  59              		.cfi_remember_state
  60              		.cfi_restore 1
  77:lib/usbcdc/src/gd32vf103_hw.c ****     rcu_periph_clock_enable(RCU_USBFS);
  61              		.loc 1 77 5
  62 003e 1305C050 		li	a0,1292
  63              		.loc 1 78 1
  64 0042 4101     		addi	sp,sp,16
  65              	.LCFI1:
  66              		.cfi_def_cfa_offset 0
  77:lib/usbcdc/src/gd32vf103_hw.c ****     rcu_periph_clock_enable(RCU_USBFS);
  67              		.loc 1 77 5
  68 0044 17030000 		tail	rcu_periph_clock_enable
  68      67000300 
  69              	.LVL3:
  70              	.L2:
  71              	.LCFI2:
  72              		.cfi_restore_state
  66:lib/usbcdc/src/gd32vf103_hw.c ****         usbfs_prescaler = RCU_CKUSB_CKPLL_DIV1_5;
  73              		.loc 1 66 12 is_stmt 1
  66:lib/usbcdc/src/gd32vf103_hw.c ****         usbfs_prescaler = RCU_CKUSB_CKPLL_DIV1_5;
  74              		.loc 1 66 15 is_stmt 0
  75 004c 37A74A04 		li	a4,71999488
  76 0050 13070720 		addi	a4,a4,512
  77 0054 6318E500 		bne	a0,a4,.L4
  67:lib/usbcdc/src/gd32vf103_hw.c ****         timer_prescaler = 5;
  78              		.loc 1 67 9 is_stmt 1
  67:lib/usbcdc/src/gd32vf103_hw.c ****         timer_prescaler = 5;
  79              		.loc 1 67 25 is_stmt 0
  80 0058 23A00700 		sw	zero,0(a5)
  68:lib/usbcdc/src/gd32vf103_hw.c ****     } else if (system_clock == 96000000) {
  81              		.loc 1 68 9 is_stmt 1
  68:lib/usbcdc/src/gd32vf103_hw.c ****     } else if (system_clock == 96000000) {
GAS LISTING C:\Users\marwz\AppData\Local\Temp\ccIcrP9f.s 			page 4


  82              		.loc 1 68 25 is_stmt 0
  83 005c 37070000 		lui	a4,%hi(timer_prescaler)
  84 0060 9546     		li	a3,5
  85 0062 F1B7     		j	.L6
  86              	.L4:
  69:lib/usbcdc/src/gd32vf103_hw.c ****         usbfs_prescaler = RCU_CKUSB_CKPLL_DIV2;
  87              		.loc 1 69 12 is_stmt 1
  69:lib/usbcdc/src/gd32vf103_hw.c ****         usbfs_prescaler = RCU_CKUSB_CKPLL_DIV2;
  88              		.loc 1 69 15 is_stmt 0
  89 0064 37E7B805 		li	a4,96002048
  90 0068 13070780 		addi	a4,a4,-2048
  91 006c E313E5FC 		bne	a0,a4,.L3
  70:lib/usbcdc/src/gd32vf103_hw.c ****         timer_prescaler = 7;
  92              		.loc 1 70 9 is_stmt 1
  70:lib/usbcdc/src/gd32vf103_hw.c ****         timer_prescaler = 7;
  93              		.loc 1 70 25 is_stmt 0
  94 0070 3707C000 		li	a4,12582912
  95 0074 98C3     		sw	a4,0(a5)
  71:lib/usbcdc/src/gd32vf103_hw.c ****     } else {
  96              		.loc 1 71 9 is_stmt 1
  71:lib/usbcdc/src/gd32vf103_hw.c ****     } else {
  97              		.loc 1 71 25 is_stmt 0
  98 0076 9D46     		li	a3,7
  99 0078 37070000 		lui	a4,%hi(timer_prescaler)
 100 007c 4DBF     		j	.L6
 101              		.cfi_endproc
 102              	.LFE6:
 104              		.section	.text.usb_intr_config,"ax",@progbits
 105              		.align	1
 106              		.globl	usb_intr_config
 108              	usb_intr_config:
 109              	.LFB7:
  79:lib/usbcdc/src/gd32vf103_hw.c **** 
  80:lib/usbcdc/src/gd32vf103_hw.c **** /*!
  81:lib/usbcdc/src/gd32vf103_hw.c ****     \brief      configure USB interrupt
  82:lib/usbcdc/src/gd32vf103_hw.c ****     \param[in]  none
  83:lib/usbcdc/src/gd32vf103_hw.c ****     \param[out] none
  84:lib/usbcdc/src/gd32vf103_hw.c ****     \retval     none
  85:lib/usbcdc/src/gd32vf103_hw.c **** */
  86:lib/usbcdc/src/gd32vf103_hw.c **** void usb_intr_config(void)
  87:lib/usbcdc/src/gd32vf103_hw.c **** {
 110              		.loc 1 87 1 is_stmt 1
 111              		.cfi_startproc
  88:lib/usbcdc/src/gd32vf103_hw.c ****     eclic_irq_enable((uint8_t)USBFS_IRQn, 1, 0);
 112              		.loc 1 88 5
  87:lib/usbcdc/src/gd32vf103_hw.c ****     eclic_irq_enable((uint8_t)USBFS_IRQn, 1, 0);
 113              		.loc 1 87 1 is_stmt 0
 114 0000 4111     		addi	sp,sp,-16
 115              	.LCFI3:
 116              		.cfi_def_cfa_offset 16
 117              		.loc 1 88 5
 118 0002 0146     		li	a2,0
 119 0004 8545     		li	a1,1
 120 0006 13056005 		li	a0,86
  87:lib/usbcdc/src/gd32vf103_hw.c ****     eclic_irq_enable((uint8_t)USBFS_IRQn, 1, 0);
 121              		.loc 1 87 1
 122 000a 06C6     		sw	ra,12(sp)
GAS LISTING C:\Users\marwz\AppData\Local\Temp\ccIcrP9f.s 			page 5


 123              		.cfi_offset 1, -4
 124              		.loc 1 88 5
 125 000c 97000000 		call	eclic_irq_enable
 125      E7800000 
 126              	.LVL4:
  89:lib/usbcdc/src/gd32vf103_hw.c **** 
  90:lib/usbcdc/src/gd32vf103_hw.c ****     /* enable the power module clock */
  91:lib/usbcdc/src/gd32vf103_hw.c ****     rcu_periph_clock_enable(RCU_PMU);
 127              		.loc 1 91 5 is_stmt 1
 128 0014 1305C071 		li	a0,1820
 129 0018 97000000 		call	rcu_periph_clock_enable
 129      E7800000 
 130              	.LVL5:
  92:lib/usbcdc/src/gd32vf103_hw.c **** 
  93:lib/usbcdc/src/gd32vf103_hw.c ****     /* USB wakeup EXTI line configuration */
  94:lib/usbcdc/src/gd32vf103_hw.c ****     exti_interrupt_flag_clear(EXTI_18);
 131              		.loc 1 94 5
 132 0020 37050400 		li	a0,262144
 133 0024 97000000 		call	exti_interrupt_flag_clear
 133      E7800000 
 134              	.LVL6:
  95:lib/usbcdc/src/gd32vf103_hw.c ****     exti_init(EXTI_18, EXTI_INTERRUPT, EXTI_TRIG_RISING);
 135              		.loc 1 95 5
 136 002c 0146     		li	a2,0
 137 002e 8145     		li	a1,0
 138 0030 37050400 		li	a0,262144
 139 0034 97000000 		call	exti_init
 139      E7800000 
 140              	.LVL7:
  96:lib/usbcdc/src/gd32vf103_hw.c ****     exti_interrupt_enable(EXTI_18);
 141              		.loc 1 96 5
 142 003c 37050400 		li	a0,262144
 143 0040 97000000 		call	exti_interrupt_enable
 143      E7800000 
 144              	.LVL8:
  97:lib/usbcdc/src/gd32vf103_hw.c **** 
  98:lib/usbcdc/src/gd32vf103_hw.c ****     eclic_irq_enable((uint8_t)USBFS_WKUP_IRQn, 3, 0);
 145              		.loc 1 98 5
  99:lib/usbcdc/src/gd32vf103_hw.c **** }
 146              		.loc 1 99 1 is_stmt 0
 147 0048 B240     		lw	ra,12(sp)
 148              		.cfi_restore 1
  98:lib/usbcdc/src/gd32vf103_hw.c **** }
 149              		.loc 1 98 5
 150 004a 0146     		li	a2,0
 151              		.loc 1 99 1
  98:lib/usbcdc/src/gd32vf103_hw.c **** }
 152              		.loc 1 98 5
 153 004c 8D45     		li	a1,3
 154 004e 1305D003 		li	a0,61
 155              		.loc 1 99 1
 156 0052 4101     		addi	sp,sp,16
 157              	.LCFI4:
 158              		.cfi_def_cfa_offset 0
  98:lib/usbcdc/src/gd32vf103_hw.c **** }
 159              		.loc 1 98 5
 160 0054 17030000 		tail	eclic_irq_enable
GAS LISTING C:\Users\marwz\AppData\Local\Temp\ccIcrP9f.s 			page 6


 160      67000300 
 161              	.LVL9:
 162              		.cfi_endproc
 163              	.LFE7:
 165              		.section	.text.usb_timer_init,"ax",@progbits
 166              		.align	1
 167              		.globl	usb_timer_init
 169              	usb_timer_init:
 170              	.LFB8:
 100:lib/usbcdc/src/gd32vf103_hw.c **** 
 101:lib/usbcdc/src/gd32vf103_hw.c **** /*!
 102:lib/usbcdc/src/gd32vf103_hw.c ****     \brief      initializes delay unit using Timer2
 103:lib/usbcdc/src/gd32vf103_hw.c ****     \param[in]  none
 104:lib/usbcdc/src/gd32vf103_hw.c ****     \param[out] none
 105:lib/usbcdc/src/gd32vf103_hw.c ****     \retval     none
 106:lib/usbcdc/src/gd32vf103_hw.c **** */
 107:lib/usbcdc/src/gd32vf103_hw.c **** void usb_timer_init (void)
 108:lib/usbcdc/src/gd32vf103_hw.c **** {
 171              		.loc 1 108 1 is_stmt 1
 172              		.cfi_startproc
 109:lib/usbcdc/src/gd32vf103_hw.c ****     /*rcu_periph_clock_enable(RCU_TIMER2);
 110:lib/usbcdc/src/gd32vf103_hw.c **** 
 111:lib/usbcdc/src/gd32vf103_hw.c ****     eclic_irq_enable(TIMER2_IRQn, 2, 0);*/
 112:lib/usbcdc/src/gd32vf103_hw.c **** }
 173              		.loc 1 112 1
 174 0000 8280     		ret
 175              		.cfi_endproc
 176              	.LFE8:
 178              		.section	.text.usb_udelay,"ax",@progbits
 179              		.align	1
 180              		.globl	usb_udelay
 182              	usb_udelay:
 183              	.LFB9:
 113:lib/usbcdc/src/gd32vf103_hw.c **** 
 114:lib/usbcdc/src/gd32vf103_hw.c **** /*!
 115:lib/usbcdc/src/gd32vf103_hw.c ****     \brief      delay in micro seconds
 116:lib/usbcdc/src/gd32vf103_hw.c ****     \param[in]  usec: value of delay required in micro seconds
 117:lib/usbcdc/src/gd32vf103_hw.c ****     \param[out] none
 118:lib/usbcdc/src/gd32vf103_hw.c ****     \retval     none
 119:lib/usbcdc/src/gd32vf103_hw.c **** */
 120:lib/usbcdc/src/gd32vf103_hw.c **** void usb_udelay (const uint32_t usec)
 121:lib/usbcdc/src/gd32vf103_hw.c **** {
 184              		.loc 1 121 1
 185              		.cfi_startproc
 186              	.LVL10:
 122:lib/usbcdc/src/gd32vf103_hw.c ****     hw_delay(usec, TIM_USEC_DELAY);
 187              		.loc 1 122 5
 188              	.LBB6:
 189              	.LBB7:
 123:lib/usbcdc/src/gd32vf103_hw.c **** }
 124:lib/usbcdc/src/gd32vf103_hw.c **** 
 125:lib/usbcdc/src/gd32vf103_hw.c **** /*!
 126:lib/usbcdc/src/gd32vf103_hw.c ****     \brief      delay in milli seconds
 127:lib/usbcdc/src/gd32vf103_hw.c ****     \param[in]  msec: value of delay required in milli seconds
 128:lib/usbcdc/src/gd32vf103_hw.c ****     \param[out] none
 129:lib/usbcdc/src/gd32vf103_hw.c ****     \retval     none
 130:lib/usbcdc/src/gd32vf103_hw.c **** */
GAS LISTING C:\Users\marwz\AppData\Local\Temp\ccIcrP9f.s 			page 7


 131:lib/usbcdc/src/gd32vf103_hw.c **** void usb_mdelay (const uint32_t msec)
 132:lib/usbcdc/src/gd32vf103_hw.c **** {
 133:lib/usbcdc/src/gd32vf103_hw.c ****     hw_delay(msec, TIM_MSEC_DELAY);
 134:lib/usbcdc/src/gd32vf103_hw.c **** }
 135:lib/usbcdc/src/gd32vf103_hw.c **** 
 136:lib/usbcdc/src/gd32vf103_hw.c **** /*!
 137:lib/usbcdc/src/gd32vf103_hw.c ****     \brief      delay routine based on TIM0
 138:lib/usbcdc/src/gd32vf103_hw.c ****     \param[in]  nTime: delay Time 
 139:lib/usbcdc/src/gd32vf103_hw.c ****     \param[in]  unit: delay Time unit = mili sec / micro sec
 140:lib/usbcdc/src/gd32vf103_hw.c ****     \param[out] none
 141:lib/usbcdc/src/gd32vf103_hw.c ****     \retval     none
 142:lib/usbcdc/src/gd32vf103_hw.c **** */
 143:lib/usbcdc/src/gd32vf103_hw.c **** static void hw_delay(uint32_t ntime, uint8_t unit)
 144:lib/usbcdc/src/gd32vf103_hw.c **** {
 145:lib/usbcdc/src/gd32vf103_hw.c ****     if(unit == TIM_USEC_DELAY){
 190              		.loc 1 145 5
 146:lib/usbcdc/src/gd32vf103_hw.c ****         usb_delay_1us(ntime);
 191              		.loc 1 146 9
 192 0000 17030000 		tail	usb_delay_1us
 192      67000300 
 193              	.LVL11:
 194              	.LBE7:
 195              	.LBE6:
 196              		.cfi_endproc
 197              	.LFE9:
 199              		.section	.text.usb_mdelay,"ax",@progbits
 200              		.align	1
 201              		.globl	usb_mdelay
 203              	usb_mdelay:
 204              	.LFB10:
 132:lib/usbcdc/src/gd32vf103_hw.c ****     hw_delay(msec, TIM_MSEC_DELAY);
 205              		.loc 1 132 1
 206              		.cfi_startproc
 207              	.LVL12:
 133:lib/usbcdc/src/gd32vf103_hw.c **** }
 208              		.loc 1 133 5
 209              	.LBB8:
 210              	.LBB9:
 145:lib/usbcdc/src/gd32vf103_hw.c ****         usb_delay_1us(ntime);
 211              		.loc 1 145 5
 147:lib/usbcdc/src/gd32vf103_hw.c ****         return;
 148:lib/usbcdc/src/gd32vf103_hw.c ****     }
 149:lib/usbcdc/src/gd32vf103_hw.c ****     if(unit == TIM_MSEC_DELAY){
 212              		.loc 1 149 5
 150:lib/usbcdc/src/gd32vf103_hw.c ****             usb_delay_1ms(ntime);
 213              		.loc 1 150 13
 214 0000 17030000 		tail	usb_delay_1ms
 214      67000300 
 215              	.LVL13:
 216              	.LBE9:
 217              	.LBE8:
 218              		.cfi_endproc
 219              	.LFE10:
 221              		.globl	usbfs_prescaler
 222              		.comm	timer_prescaler,4,4
 223              		.globl	delay_time
 224              		.section	.sbss.delay_time,"aw",@nobits
GAS LISTING C:\Users\marwz\AppData\Local\Temp\ccIcrP9f.s 			page 8


 225              		.align	2
 228              	delay_time:
 229 0000 00000000 		.zero	4
 230              		.section	.sbss.usbfs_prescaler,"aw",@nobits
 231              		.align	2
 232              		.set	.LANCHOR0,. + 0
 235              	usbfs_prescaler:
 236 0000 00000000 		.zero	4
 237              		.text
 238              	.Letext0:
 239              		.file 2 "c:\\users\\marwz\\documents\\github\\datafusion\\src\\datafusionexe\\pressurereadings\\pr
 240              		.file 3 "c:\\users\\marwz\\documents\\github\\datafusion\\src\\datafusionexe\\pressurereadings\\pr
 241              		.file 4 "./../../firmware/GD32VF103_standard_peripheral/Include/gd32vf103_exti.h"
 242              		.file 5 "./../../firmware/GD32VF103_standard_peripheral/Include/gd32vf103_rcu.h"
 243              		.file 6 "c:\\users\\marwz\\documents\\github\\datafusion\\src\\datafusionexe\\pressurereadings\\pr
 244              		.file 7 "c:\\users\\marwz\\documents\\github\\datafusion\\src\\datafusionexe\\pressurereadings\\pr
 245              		.file 8 "c:\\users\\marwz\\documents\\github\\datafusion\\src\\datafusionexe\\pressurereadings\\pr
 246              		.file 9 "c:\\users\\marwz\\documents\\github\\datafusion\\src\\datafusionexe\\pressurereadings\\pr
 247              		.file 10 "./../../firmware/GD32VF103_standard_peripheral/system_gd32vf103.h"
 248              		.file 11 "c:\\users\\marwz\\documents\\github\\datafusion\\src\\datafusionexe\\pressurereadings\\p
 249              		.file 12 "lib/usbcdc/include/usb_delay.h"
 250              		.file 13 "./../../firmware/GD32VF103_standard_peripheral/Include/gd32vf103_eclic.h"
 251              		.file 14 "./../../firmware/GD32VF103_standard_peripheral/gd32vf103.h"
GAS LISTING C:\Users\marwz\AppData\Local\Temp\ccIcrP9f.s 			page 9

