GAS LISTING C:\Users\marwz\AppData\Local\Temp\ccnCnech.s 			page 1


   1              		.file	"usb_serial_if.c"
   2              		.option nopic
   3              		.attribute arch, "rv32i2p0_m2p0_a2p0_c2p0"
   4              		.attribute unaligned_access, 0
   5              		.attribute stack_align, 16
   6              		.text
   7              	.Ltext0:
   8              		.cfi_sections	.debug_frame
   9              		.globl	usb_buffer
  10              		.globl	tx_buffer
  11              		.globl	USB_OTG_dev
  12              		.section	.text.usb_serial_connected,"ax",@progbits
  13              		.align	1
  14              		.globl	usb_serial_connected
  16              	usb_serial_connected:
  17              	.LFB6:
  18              		.file 1 "lib/usbcdc/src/usb_serial_if.c"
   1:lib/usbcdc/src/usb_serial_if.c **** #include "usb_serial_if.h"
   2:lib/usbcdc/src/usb_serial_if.c **** #include "gd32vf103.h"
   3:lib/usbcdc/src/usb_serial_if.c **** #include "drv_usb_hw.h"
   4:lib/usbcdc/src/usb_serial_if.c **** #include "usb_delay.h"
   5:lib/usbcdc/src/usb_serial_if.c **** #include "system_gd32vf103.h"
   6:lib/usbcdc/src/usb_serial_if.c **** 
   7:lib/usbcdc/src/usb_serial_if.c **** #define USB_BUFFER_SIZE 512
   8:lib/usbcdc/src/usb_serial_if.c **** #define TIMEOUT_PRINTF 100000
   9:lib/usbcdc/src/usb_serial_if.c **** typedef struct{
  10:lib/usbcdc/src/usb_serial_if.c ****     uint8_t buffer[USB_BUFFER_SIZE];
  11:lib/usbcdc/src/usb_serial_if.c ****     uint32_t max_size;
  12:lib/usbcdc/src/usb_serial_if.c ****     uint32_t index;
  13:lib/usbcdc/src/usb_serial_if.c **** }USB_serial_buffer_t;
  14:lib/usbcdc/src/usb_serial_if.c **** 
  15:lib/usbcdc/src/usb_serial_if.c **** USB_serial_buffer_t usb_buffer = { .buffer = "", .max_size = USB_BUFFER_SIZE, .index = 0};
  16:lib/usbcdc/src/usb_serial_if.c **** 
  17:lib/usbcdc/src/usb_serial_if.c **** uint8_t tx_buffer[512] = "";
  18:lib/usbcdc/src/usb_serial_if.c **** 
  19:lib/usbcdc/src/usb_serial_if.c **** usb_core_driver USB_OTG_dev = 
  20:lib/usbcdc/src/usb_serial_if.c **** {
  21:lib/usbcdc/src/usb_serial_if.c ****     .dev = {
  22:lib/usbcdc/src/usb_serial_if.c ****         .desc = {
  23:lib/usbcdc/src/usb_serial_if.c ****             .dev_desc       = (uint8_t *)&device_descriptor,
  24:lib/usbcdc/src/usb_serial_if.c ****             .config_desc    = (uint8_t *)&configuration_descriptor,
  25:lib/usbcdc/src/usb_serial_if.c ****             .strings        = usbd_strings,
  26:lib/usbcdc/src/usb_serial_if.c ****         }
  27:lib/usbcdc/src/usb_serial_if.c ****     }
  28:lib/usbcdc/src/usb_serial_if.c **** };
  29:lib/usbcdc/src/usb_serial_if.c **** 
  30:lib/usbcdc/src/usb_serial_if.c **** uint32_t usb_serial_connected(){
  19              		.loc 1 30 32
  20              		.cfi_startproc
  31:lib/usbcdc/src/usb_serial_if.c ****     if(cdc_acm_get_line_state()) return 1;
  21              		.loc 1 31 5
  30:lib/usbcdc/src/usb_serial_if.c ****     if(cdc_acm_get_line_state()) return 1;
  22              		.loc 1 30 32 is_stmt 0
  23 0000 4111     		addi	sp,sp,-16
  24              	.LCFI0:
  25              		.cfi_def_cfa_offset 16
  26 0002 06C6     		sw	ra,12(sp)
GAS LISTING C:\Users\marwz\AppData\Local\Temp\ccnCnech.s 			page 2


  27              		.cfi_offset 1, -4
  28              		.loc 1 31 8
  29 0004 97000000 		call	cdc_acm_get_line_state
  29      E7800000 
  30              	.LVL0:
  32:lib/usbcdc/src/usb_serial_if.c ****     return 0;
  33:lib/usbcdc/src/usb_serial_if.c **** }
  31              		.loc 1 33 1
  32 000c B240     		lw	ra,12(sp)
  33              		.cfi_restore 1
  34 000e 3335A000 		snez	a0,a0
  35 0012 4101     		addi	sp,sp,16
  36              	.LCFI1:
  37              		.cfi_def_cfa_offset 0
  38 0014 8280     		jr	ra
  39              		.cfi_endproc
  40              	.LFE6:
  42              		.section	.text.read_usb_serial,"ax",@progbits
  43              		.align	1
  44              		.globl	read_usb_serial
  46              	read_usb_serial:
  47              	.LFB7:
  34:lib/usbcdc/src/usb_serial_if.c **** 
  35:lib/usbcdc/src/usb_serial_if.c **** size_t read_usb_serial(uint8_t* data){
  48              		.loc 1 35 38 is_stmt 1
  49              		.cfi_startproc
  50              	.LVL1:
  36:lib/usbcdc/src/usb_serial_if.c ****     size_t ret = 0;
  51              		.loc 1 36 5
  37:lib/usbcdc/src/usb_serial_if.c ****     static uint8_t receive_buffer[64] = {'\0'};
  52              		.loc 1 37 5
  38:lib/usbcdc/src/usb_serial_if.c ****     usb_buffer.index = 0;
  53              		.loc 1 38 5
  35:lib/usbcdc/src/usb_serial_if.c ****     size_t ret = 0;
  54              		.loc 1 35 38 is_stmt 0
  55 0000 0111     		addi	sp,sp,-32
  56              	.LCFI2:
  57              		.cfi_def_cfa_offset 32
  58 0002 22CC     		sw	s0,24(sp)
  59              		.cfi_offset 8, -8
  60              		.loc 1 38 22
  61 0004 37040000 		lui	s0,%hi(.LANCHOR0)
  62 0008 93070400 		addi	a5,s0,%lo(.LANCHOR0)
  35:lib/usbcdc/src/usb_serial_if.c ****     size_t ret = 0;
  63              		.loc 1 35 38
  64 000c 06CE     		sw	ra,28(sp)
  65 000e 26CA     		sw	s1,20(sp)
  66 0010 4AC8     		sw	s2,16(sp)
  67 0012 4EC6     		sw	s3,12(sp)
  68 0014 52C4     		sw	s4,8(sp)
  69 0016 56C2     		sw	s5,4(sp)
  70 0018 5AC0     		sw	s6,0(sp)
  71              		.cfi_offset 1, -4
  72              		.cfi_offset 9, -12
  73              		.cfi_offset 18, -16
  74              		.cfi_offset 19, -20
  75              		.cfi_offset 20, -24
GAS LISTING C:\Users\marwz\AppData\Local\Temp\ccnCnech.s 			page 3


  76              		.cfi_offset 21, -28
  77              		.cfi_offset 22, -32
  78              		.loc 1 38 22
  79 001a 23A20720 		sw	zero,516(a5)
  39:lib/usbcdc/src/usb_serial_if.c ****     if (USBD_CONFIGURED == USB_OTG_dev.dev.cur_status){
  80              		.loc 1 39 5 is_stmt 1
  81              		.loc 1 39 43 is_stmt 0
  82 001e B7070000 		lui	a5,%hi(.LANCHOR1)
  83 0022 13870700 		addi	a4,a5,%lo(.LANCHOR1)
  84 0026 0347670C 		lbu	a4,198(a4)
  85              		.loc 1 39 8
  86 002a 8D46     		li	a3,3
  87 002c 13040400 		addi	s0,s0,%lo(.LANCHOR0)
  88 0030 639FE602 		bne	a3,a4,.L10
  89 0034 37090000 		lui	s2,%hi(.LANCHOR2)
  90 0038 BE84     		mv	s1,a5
  91 003a AA89     		mv	s3,a0
  40:lib/usbcdc/src/usb_serial_if.c ****         while(packet_receive == 1){
  92              		.loc 1 40 30
  93 003c 370A0000 		lui	s4,%hi(packet_receive)
  94              		.loc 1 40 14
  95 0040 054B     		li	s6,1
  41:lib/usbcdc/src/usb_serial_if.c ****             if(receive_length > 0){
  96              		.loc 1 41 31
  97 0042 B70A0000 		lui	s5,%hi(receive_length)
  98              	.LBB2:
  42:lib/usbcdc/src/usb_serial_if.c ****                 for(int i = 0; i < receive_length; i++) usb_buffer.buffer[usb_buffer.index + i] = r
  99              		.loc 1 42 113
 100 0046 13090900 		addi	s2,s2,%lo(.LANCHOR2)
 101              	.LVL2:
 102              	.L4:
 103              	.LBE2:
  40:lib/usbcdc/src/usb_serial_if.c ****         while(packet_receive == 1){
 104              		.loc 1 40 14
 105 004a 83470A00 		lbu	a5,%lo(packet_receive)(s4)
 106 004e 638D6703 		beq	a5,s6,.L7
  43:lib/usbcdc/src/usb_serial_if.c ****                 //memcpy(&usb_buffer.buffer[usb_buffer.index], receive_buffer, receive_length);
  44:lib/usbcdc/src/usb_serial_if.c ****                 usb_buffer.index += receive_length;
  45:lib/usbcdc/src/usb_serial_if.c ****                 ret += receive_length;
  46:lib/usbcdc/src/usb_serial_if.c ****             }
  47:lib/usbcdc/src/usb_serial_if.c ****             packet_receive = 0;
  48:lib/usbcdc/src/usb_serial_if.c ****             receive_length = 0;
  49:lib/usbcdc/src/usb_serial_if.c ****             usbd_ep_recev (&USB_OTG_dev, CDC_ACM_DATA_OUT_EP, receive_buffer, 64);
  50:lib/usbcdc/src/usb_serial_if.c ****             usb_mdelay(1);
  51:lib/usbcdc/src/usb_serial_if.c ****         }
  52:lib/usbcdc/src/usb_serial_if.c ****         usb_buffer.buffer[usb_buffer.index++] = '\0';
 107              		.loc 1 52 9 is_stmt 1
 108              		.loc 1 52 37 is_stmt 0
 109 0052 83274420 		lw	a5,516(s0)
 110              		.loc 1 52 43
 111 0056 13871700 		addi	a4,a5,1
 112              		.loc 1 52 47
 113 005a A297     		add	a5,s0,a5
 114 005c 23800700 		sb	zero,0(a5)
  53:lib/usbcdc/src/usb_serial_if.c ****         for(int i = 0; i < usb_buffer.index; i++) data[i] = usb_buffer.buffer[i];
 115              		.loc 1 53 9 is_stmt 1
 116              	.LBB3:
GAS LISTING C:\Users\marwz\AppData\Local\Temp\ccnCnech.s 			page 4


 117              		.loc 1 53 13
 118              	.LVL3:
 119              	.LBE3:
  52:lib/usbcdc/src/usb_serial_if.c ****         for(int i = 0; i < usb_buffer.index; i++) data[i] = usb_buffer.buffer[i];
 120              		.loc 1 52 43 is_stmt 0
 121 0060 2322E420 		sw	a4,516(s0)
 122              	.LBB4:
 123              		.loc 1 53 17
 124 0064 8147     		li	a5,0
 125              	.LVL4:
 126              	.L8:
 127              		.loc 1 53 9 discriminator 1
 128 0066 03274420 		lw	a4,516(s0)
 129 006a 63E8E706 		bgtu	a4,a5,.L9
 130              	.LVL5:
 131              	.L10:
 132              	.LBE4:
  54:lib/usbcdc/src/usb_serial_if.c ****         //memcpy(data, usb_buffer.buffer, usb_buffer.index);
  55:lib/usbcdc/src/usb_serial_if.c ****     }
  56:lib/usbcdc/src/usb_serial_if.c ****     return usb_buffer.index -1;  
 133              		.loc 1 56 5 is_stmt 1
 134              		.loc 1 56 29 is_stmt 0
 135 006e 03254420 		lw	a0,516(s0)
  57:lib/usbcdc/src/usb_serial_if.c **** }
 136              		.loc 1 57 1
 137 0072 F240     		lw	ra,28(sp)
 138              		.cfi_remember_state
 139              		.cfi_restore 1
 140 0074 6244     		lw	s0,24(sp)
 141              		.cfi_restore 8
 142 0076 D244     		lw	s1,20(sp)
 143              		.cfi_restore 9
 144 0078 4249     		lw	s2,16(sp)
 145              		.cfi_restore 18
 146 007a B249     		lw	s3,12(sp)
 147              		.cfi_restore 19
 148 007c 224A     		lw	s4,8(sp)
 149              		.cfi_restore 20
 150 007e 924A     		lw	s5,4(sp)
 151              		.cfi_restore 21
 152 0080 024B     		lw	s6,0(sp)
 153              		.cfi_restore 22
  56:lib/usbcdc/src/usb_serial_if.c **** }
 154              		.loc 1 56 29
 155 0082 7D15     		addi	a0,a0,-1
 156              		.loc 1 57 1
 157 0084 0561     		addi	sp,sp,32
 158              	.LCFI3:
 159              		.cfi_def_cfa_offset 0
 160 0086 8280     		jr	ra
 161              	.LVL6:
 162              	.L7:
 163              	.LCFI4:
 164              		.cfi_restore_state
  41:lib/usbcdc/src/usb_serial_if.c ****                 for(int i = 0; i < receive_length; i++) usb_buffer.buffer[usb_buffer.index + i] = r
 165              		.loc 1 41 13 is_stmt 1
  41:lib/usbcdc/src/usb_serial_if.c ****                 for(int i = 0; i < receive_length; i++) usb_buffer.buffer[usb_buffer.index + i] = r
GAS LISTING C:\Users\marwz\AppData\Local\Temp\ccnCnech.s 			page 5


 166              		.loc 1 41 31 is_stmt 0
 167 0088 03A60A00 		lw	a2,%lo(receive_length)(s5)
  41:lib/usbcdc/src/usb_serial_if.c ****                 for(int i = 0; i < receive_length; i++) usb_buffer.buffer[usb_buffer.index + i] = r
 168              		.loc 1 41 15
 169 008c 1DC2     		beq	a2,zero,.L5
 170              	.LBB5:
  42:lib/usbcdc/src/usb_serial_if.c ****                 //memcpy(&usb_buffer.buffer[usb_buffer.index], receive_buffer, receive_length);
 171              		.loc 1 42 85
 172 008e 83264420 		lw	a3,516(s0)
 173              	.LVL7:
  42:lib/usbcdc/src/usb_serial_if.c ****                 //memcpy(&usb_buffer.buffer[usb_buffer.index], receive_buffer, receive_length);
 174              		.loc 1 42 25
 175 0092 8147     		li	a5,0
 176              	.LVL8:
 177              	.L6:
  42:lib/usbcdc/src/usb_serial_if.c ****                 //memcpy(&usb_buffer.buffer[usb_buffer.index], receive_buffer, receive_length);
 178              		.loc 1 42 57 is_stmt 1 discriminator 3
  42:lib/usbcdc/src/usb_serial_if.c ****                 //memcpy(&usb_buffer.buffer[usb_buffer.index], receive_buffer, receive_length);
 179              		.loc 1 42 113 is_stmt 0 discriminator 3
 180 0094 B305F900 		add	a1,s2,a5
  42:lib/usbcdc/src/usb_serial_if.c ****                 //memcpy(&usb_buffer.buffer[usb_buffer.index], receive_buffer, receive_length);
 181              		.loc 1 42 97 discriminator 3
 182 0098 83C50500 		lbu	a1,0(a1)
 183 009c 3387F600 		add	a4,a3,a5
 184 00a0 2297     		add	a4,s0,a4
 185 00a2 2300B700 		sb	a1,0(a4)
  42:lib/usbcdc/src/usb_serial_if.c ****                 //memcpy(&usb_buffer.buffer[usb_buffer.index], receive_buffer, receive_length);
 186              		.loc 1 42 53 discriminator 3
 187 00a6 8507     		addi	a5,a5,1
 188              	.LVL9:
  42:lib/usbcdc/src/usb_serial_if.c ****                 //memcpy(&usb_buffer.buffer[usb_buffer.index], receive_buffer, receive_length);
 189              		.loc 1 42 17 discriminator 3
 190 00a8 E396C7FE 		bne	a5,a2,.L6
 191              	.LBE5:
  44:lib/usbcdc/src/usb_serial_if.c ****                 ret += receive_length;
 192              		.loc 1 44 17 is_stmt 1
  44:lib/usbcdc/src/usb_serial_if.c ****                 ret += receive_length;
 193              		.loc 1 44 34 is_stmt 0
 194 00ac B697     		add	a5,a5,a3
 195              	.LVL10:
 196 00ae 2322F420 		sw	a5,516(s0)
  45:lib/usbcdc/src/usb_serial_if.c ****             }
 197              		.loc 1 45 17 is_stmt 1
 198              	.L5:
  47:lib/usbcdc/src/usb_serial_if.c ****             receive_length = 0;
 199              		.loc 1 47 13
  49:lib/usbcdc/src/usb_serial_if.c ****             usb_mdelay(1);
 200              		.loc 1 49 13 is_stmt 0
 201 00b2 93060004 		li	a3,64
 202 00b6 4A86     		mv	a2,s2
 203 00b8 8D45     		li	a1,3
 204 00ba 13850400 		addi	a0,s1,%lo(.LANCHOR1)
  47:lib/usbcdc/src/usb_serial_if.c ****             receive_length = 0;
 205              		.loc 1 47 28
 206 00be 23000A00 		sb	zero,%lo(packet_receive)(s4)
  48:lib/usbcdc/src/usb_serial_if.c ****             usbd_ep_recev (&USB_OTG_dev, CDC_ACM_DATA_OUT_EP, receive_buffer, 64);
 207              		.loc 1 48 13 is_stmt 1
GAS LISTING C:\Users\marwz\AppData\Local\Temp\ccnCnech.s 			page 6


  48:lib/usbcdc/src/usb_serial_if.c ****             usbd_ep_recev (&USB_OTG_dev, CDC_ACM_DATA_OUT_EP, receive_buffer, 64);
 208              		.loc 1 48 28 is_stmt 0
 209 00c2 23A00A00 		sw	zero,%lo(receive_length)(s5)
  49:lib/usbcdc/src/usb_serial_if.c ****             usb_mdelay(1);
 210              		.loc 1 49 13 is_stmt 1
 211 00c6 97000000 		call	usbd_ep_recev
 211      E7800000 
 212              	.LVL11:
  50:lib/usbcdc/src/usb_serial_if.c ****         }
 213              		.loc 1 50 13
 214 00ce 0545     		li	a0,1
 215 00d0 97000000 		call	usb_mdelay
 215      E7800000 
 216              	.LVL12:
 217 00d8 8DBF     		j	.L4
 218              	.LVL13:
 219              	.L9:
 220              	.LBB6:
  53:lib/usbcdc/src/usb_serial_if.c ****         //memcpy(data, usb_buffer.buffer, usb_buffer.index);
 221              		.loc 1 53 51 discriminator 3
  53:lib/usbcdc/src/usb_serial_if.c ****         //memcpy(data, usb_buffer.buffer, usb_buffer.index);
 222              		.loc 1 53 78 is_stmt 0 discriminator 3
 223 00da 3307F400 		add	a4,s0,a5
 224 00de 83460700 		lbu	a3,0(a4)
  53:lib/usbcdc/src/usb_serial_if.c ****         //memcpy(data, usb_buffer.buffer, usb_buffer.index);
 225              		.loc 1 53 59 discriminator 3
 226 00e2 3387F900 		add	a4,s3,a5
  53:lib/usbcdc/src/usb_serial_if.c ****         //memcpy(data, usb_buffer.buffer, usb_buffer.index);
 227              		.loc 1 53 47 discriminator 3
 228 00e6 8507     		addi	a5,a5,1
 229              	.LVL14:
  53:lib/usbcdc/src/usb_serial_if.c ****         //memcpy(data, usb_buffer.buffer, usb_buffer.index);
 230              		.loc 1 53 59 discriminator 3
 231 00e8 2300D700 		sb	a3,0(a4)
 232 00ec ADBF     		j	.L8
 233              	.LBE6:
 234              		.cfi_endproc
 235              	.LFE7:
 237              		.section	.text.configure_usb_serial,"ax",@progbits
 238              		.align	1
 239              		.globl	configure_usb_serial
 241              	configure_usb_serial:
 242              	.LFB8:
  58:lib/usbcdc/src/usb_serial_if.c **** 
  59:lib/usbcdc/src/usb_serial_if.c **** 
  60:lib/usbcdc/src/usb_serial_if.c **** //TODO move to USB library
  61:lib/usbcdc/src/usb_serial_if.c **** void configure_usb_serial(){
 243              		.loc 1 61 28 is_stmt 1
 244              		.cfi_startproc
  62:lib/usbcdc/src/usb_serial_if.c ****     set_usb_clock_96m_hxtal();
 245              		.loc 1 62 5
  61:lib/usbcdc/src/usb_serial_if.c ****     set_usb_clock_96m_hxtal();
 246              		.loc 1 61 28 is_stmt 0
 247 0000 4111     		addi	sp,sp,-16
 248              	.LCFI5:
 249              		.cfi_def_cfa_offset 16
 250 0002 06C6     		sw	ra,12(sp)
GAS LISTING C:\Users\marwz\AppData\Local\Temp\ccnCnech.s 			page 7


 251              		.cfi_offset 1, -4
 252              		.loc 1 62 5
 253 0004 97000000 		call	set_usb_clock_96m_hxtal
 253      E7800000 
 254              	.LVL15:
  63:lib/usbcdc/src/usb_serial_if.c ****     __asm("csrw 0x0320, 0x0");
 255              		.loc 1 63 5 is_stmt 1
 256              	 #APP
 257              	# 63 "lib/usbcdc/src/usb_serial_if.c" 1
  64              	    eclic_global_interrupt_enable();
 258              		csrw 0x0320, 0x0
 259              	# 0 "" 2
 260              		.loc 1 64 5
 261              	 #NO_APP
 262 0010 97000000 		call	eclic_global_interrupt_enable
 262      E7800000 
 263              	.LVL16:
  65:lib/usbcdc/src/usb_serial_if.c ****     eclic_priority_group_set(ECLIC_PRIGROUP_LEVEL2_PRIO2);
 264              		.loc 1 65 5
 265 0018 0945     		li	a0,2
 266 001a 97000000 		call	eclic_priority_group_set
 266      E7800000 
 267              	.LVL17:
  66:lib/usbcdc/src/usb_serial_if.c ****     usb_rcu_config();
 268              		.loc 1 66 5
 269 0022 97000000 		call	usb_rcu_config
 269      E7800000 
 270              	.LVL18:
  67:lib/usbcdc/src/usb_serial_if.c ****     usb_timer_init();
 271              		.loc 1 67 5
 272 002a 97000000 		call	usb_timer_init
 272      E7800000 
 273              	.LVL19:
  68:lib/usbcdc/src/usb_serial_if.c ****     usb_intr_config();
 274              		.loc 1 68 5
 275 0032 97000000 		call	usb_intr_config
 275      E7800000 
 276              	.LVL20:
  69:lib/usbcdc/src/usb_serial_if.c ****     usbd_init (&USB_OTG_dev, USB_CORE_ENUM_FS, &usbd_cdc_cb);
 277              		.loc 1 69 5
  70:lib/usbcdc/src/usb_serial_if.c **** }
 278              		.loc 1 70 1 is_stmt 0
 279 003a B240     		lw	ra,12(sp)
 280              		.cfi_restore 1
  69:lib/usbcdc/src/usb_serial_if.c ****     usbd_init (&USB_OTG_dev, USB_CORE_ENUM_FS, &usbd_cdc_cb);
 281              		.loc 1 69 5
 282 003c 37060000 		lui	a2,%hi(usbd_cdc_cb)
 283 0040 37050000 		lui	a0,%hi(.LANCHOR1)
 284              		.loc 1 70 1
  69:lib/usbcdc/src/usb_serial_if.c ****     usbd_init (&USB_OTG_dev, USB_CORE_ENUM_FS, &usbd_cdc_cb);
 285              		.loc 1 69 5
 286 0044 13060600 		addi	a2,a2,%lo(usbd_cdc_cb)
 287 0048 8545     		li	a1,1
 288 004a 13050500 		addi	a0,a0,%lo(.LANCHOR1)
 289              		.loc 1 70 1
 290 004e 4101     		addi	sp,sp,16
 291              	.LCFI6:
GAS LISTING C:\Users\marwz\AppData\Local\Temp\ccnCnech.s 			page 8


 292              		.cfi_def_cfa_offset 0
  69:lib/usbcdc/src/usb_serial_if.c ****     usbd_init (&USB_OTG_dev, USB_CORE_ENUM_FS, &usbd_cdc_cb);
 293              		.loc 1 69 5
 294 0050 17030000 		tail	usbd_init
 294      67000300 
 295              	.LVL21:
 296              		.cfi_endproc
 297              	.LFE8:
 299              		.section	.text.usb_serial_available,"ax",@progbits
 300              		.align	1
 301              		.globl	usb_serial_available
 303              	usb_serial_available:
 304              	.LFB9:
  71:lib/usbcdc/src/usb_serial_if.c **** 
  72:lib/usbcdc/src/usb_serial_if.c **** int usb_serial_available(){return USBD_CONFIGURED == USB_OTG_dev.dev.cur_status;}
 305              		.loc 1 72 27 is_stmt 1
 306              		.cfi_startproc
 307              		.loc 1 72 28
 308              		.loc 1 72 69 is_stmt 0
 309 0000 B7070000 		lui	a5,%hi(.LANCHOR1)
 310 0004 93870700 		addi	a5,a5,%lo(.LANCHOR1)
 311 0008 03C5670C 		lbu	a0,198(a5)
 312              		.loc 1 72 51
 313 000c 7515     		addi	a0,a0,-3
 314              		.loc 1 72 1
 315 000e 13351500 		seqz	a0,a0
 316 0012 8280     		ret
 317              		.cfi_endproc
 318              	.LFE9:
 320              		.section	.text._write,"ax",@progbits
 321              		.align	1
 322              		.globl	_write
 324              	_write:
 325              	.LFB10:
  73:lib/usbcdc/src/usb_serial_if.c **** 
  74:lib/usbcdc/src/usb_serial_if.c **** 
  75:lib/usbcdc/src/usb_serial_if.c **** //TODO Risk of overflow when printing large amounts of text, should probably do some length checkin
  76:lib/usbcdc/src/usb_serial_if.c **** 
  77:lib/usbcdc/src/usb_serial_if.c **** ssize_t _write(int fd, const void* ptr, size_t len){
 326              		.loc 1 77 52 is_stmt 1
 327              		.cfi_startproc
 328              	.LVL22:
  78:lib/usbcdc/src/usb_serial_if.c ****     int64_t temp = get_timer_value();
 329              		.loc 1 78 5
  77:lib/usbcdc/src/usb_serial_if.c ****     int64_t temp = get_timer_value();
 330              		.loc 1 77 52 is_stmt 0
 331 0000 0111     		addi	sp,sp,-32
 332              	.LCFI7:
 333              		.cfi_def_cfa_offset 32
 334 0002 4AC8     		sw	s2,16(sp)
 335 0004 4EC6     		sw	s3,12(sp)
 336 0006 06CE     		sw	ra,28(sp)
 337 0008 22CC     		sw	s0,24(sp)
 338 000a 26CA     		sw	s1,20(sp)
 339 000c 52C4     		sw	s4,8(sp)
 340 000e 56C2     		sw	s5,4(sp)
 341              		.cfi_offset 18, -16
GAS LISTING C:\Users\marwz\AppData\Local\Temp\ccnCnech.s 			page 9


 342              		.cfi_offset 19, -20
 343              		.cfi_offset 1, -4
 344              		.cfi_offset 8, -8
 345              		.cfi_offset 9, -12
 346              		.cfi_offset 20, -24
 347              		.cfi_offset 21, -28
  77:lib/usbcdc/src/usb_serial_if.c ****     int64_t temp = get_timer_value();
 348              		.loc 1 77 52
 349 0010 AE89     		mv	s3,a1
 350 0012 3289     		mv	s2,a2
 351              		.loc 1 78 20
 352 0014 97000000 		call	get_timer_value
 352      E7800000 
 353              	.LVL23:
  79:lib/usbcdc/src/usb_serial_if.c ****     len = len > sizeof(tx_buffer) ? sizeof(tx_buffer) : len;
 354              		.loc 1 79 5 is_stmt 1
 355              		.loc 1 79 9 is_stmt 0
 356 001c 93070020 		li	a5,512
 357 0020 63F42701 		bleu	s2,a5,.L22
 358 0024 13090020 		li	s2,512
 359              	.LVL24:
 360              	.L22:
  80:lib/usbcdc/src/usb_serial_if.c ****     size_t temp_len = len;
 361              		.loc 1 80 5 is_stmt 1
  81:lib/usbcdc/src/usb_serial_if.c ****     while((packet_sent == 0) && ((temp + TIMEOUT_PRINTF) > get_timer_value()));
 362              		.loc 1 81 5
 363              		.loc 1 81 40 is_stmt 0
 364 0028 E164     		li	s1,98304
 365 002a 9384046A 		addi	s1,s1,1696
 366 002e AA94     		add	s1,a0,s1
 367              		.loc 1 81 24
 368 0030 370A0000 		lui	s4,%hi(packet_sent)
 369              		.loc 1 81 40
 370 0034 33B5A400 		sltu	a0,s1,a0
 371              	.LVL25:
 372 0038 D28A     		mv	s5,s4
 373 003a 3304B500 		add	s0,a0,a1
 374              	.LVL26:
 375              	.L28:
 376              		.loc 1 81 79 is_stmt 1 discriminator 2
 377              		.loc 1 81 10 is_stmt 0 discriminator 2
 378 003e 83470A00 		lbu	a5,%lo(packet_sent)(s4)
 379 0042 99EB     		bne	a5,zero,.L23
 380              		.loc 1 81 60 discriminator 1
 381 0044 97000000 		call	get_timer_value
 381      E7800000 
 382              	.LVL27:
 383              		.loc 1 81 30 discriminator 1
 384 004c E3E985FE 		bgtu	s0,a1,.L28
 385 0050 6314B400 		bne	s0,a1,.L23
 386 0054 E36595FE 		bgtu	s1,a0,.L28
 387              	.L23:
  82:lib/usbcdc/src/usb_serial_if.c ****     packet_sent = 0;
 388              		.loc 1 82 5 is_stmt 1
 389 0058 37060000 		lui	a2,%hi(.LANCHOR3)
 390              		.loc 1 82 17 is_stmt 0
 391 005c 23800A00 		sb	zero,%lo(packet_sent)(s5)
GAS LISTING C:\Users\marwz\AppData\Local\Temp\ccnCnech.s 			page 10


  83:lib/usbcdc/src/usb_serial_if.c ****     for(int i = 0; i < len; i++) tx_buffer[i] = ((uint8_t*)ptr)[i];
 392              		.loc 1 83 5 is_stmt 1
 393              	.LBB7:
 394              		.loc 1 83 9
 395              	.LVL28:
 396              		.loc 1 83 13 is_stmt 0
 397 0060 0144     		li	s0,0
 398              		.loc 1 83 47
 399 0062 93070600 		addi	a5,a2,%lo(.LANCHOR3)
 400              	.LVL29:
 401              	.L26:
 402              		.loc 1 83 5 discriminator 1
 403 0066 631B2403 		bne	s0,s2,.L27
 404              	.LBE7:
  84:lib/usbcdc/src/usb_serial_if.c ****     //strncpy((char*)tx_buffer, ptr, len);
  85:lib/usbcdc/src/usb_serial_if.c ****     usbd_ep_send(&USB_OTG_dev, CDC_ACM_DATA_IN_EP, tx_buffer, len);
 405              		.loc 1 85 5 is_stmt 1
 406 006a 93160401 		slli	a3,s0,16
 407 006e 37050000 		lui	a0,%hi(.LANCHOR1)
 408 0072 C182     		srli	a3,a3,16
 409 0074 13060600 		addi	a2,a2,%lo(.LANCHOR3)
 410 0078 93051008 		li	a1,129
 411 007c 13050500 		addi	a0,a0,%lo(.LANCHOR1)
 412 0080 97000000 		call	usbd_ep_send
 412      E7800000 
 413              	.LVL30:
  86:lib/usbcdc/src/usb_serial_if.c ****     return len;
 414              		.loc 1 86 5
  87:lib/usbcdc/src/usb_serial_if.c **** }
 415              		.loc 1 87 1 is_stmt 0
 416 0088 2285     		mv	a0,s0
 417 008a F240     		lw	ra,28(sp)
 418              		.cfi_remember_state
 419              		.cfi_restore 1
 420 008c 6244     		lw	s0,24(sp)
 421              		.cfi_restore 8
 422              	.LVL31:
 423 008e D244     		lw	s1,20(sp)
 424              		.cfi_restore 9
 425 0090 4249     		lw	s2,16(sp)
 426              		.cfi_restore 18
 427              	.LVL32:
 428 0092 B249     		lw	s3,12(sp)
 429              		.cfi_restore 19
 430              	.LVL33:
 431 0094 224A     		lw	s4,8(sp)
 432              		.cfi_restore 20
 433 0096 924A     		lw	s5,4(sp)
 434              		.cfi_restore 21
 435 0098 0561     		addi	sp,sp,32
 436              	.LCFI8:
 437              		.cfi_def_cfa_offset 0
 438 009a 8280     		jr	ra
 439              	.LVL34:
 440              	.L27:
 441              	.LCFI9:
 442              		.cfi_restore_state
GAS LISTING C:\Users\marwz\AppData\Local\Temp\ccnCnech.s 			page 11


 443              	.LBB8:
  83:lib/usbcdc/src/usb_serial_if.c ****     //strncpy((char*)tx_buffer, ptr, len);
 444              		.loc 1 83 34 is_stmt 1 discriminator 3
  83:lib/usbcdc/src/usb_serial_if.c ****     //strncpy((char*)tx_buffer, ptr, len);
 445              		.loc 1 83 64 is_stmt 0 discriminator 3
 446 009c 33878900 		add	a4,s3,s0
 447 00a0 83460700 		lbu	a3,0(a4)
  83:lib/usbcdc/src/usb_serial_if.c ****     //strncpy((char*)tx_buffer, ptr, len);
 448              		.loc 1 83 47 discriminator 3
 449 00a4 33878700 		add	a4,a5,s0
  83:lib/usbcdc/src/usb_serial_if.c ****     //strncpy((char*)tx_buffer, ptr, len);
 450              		.loc 1 83 30 discriminator 3
 451 00a8 0504     		addi	s0,s0,1
 452              	.LVL35:
  83:lib/usbcdc/src/usb_serial_if.c ****     //strncpy((char*)tx_buffer, ptr, len);
 453              		.loc 1 83 47 discriminator 3
 454 00aa 2300D700 		sb	a3,0(a4)
 455 00ae 65BF     		j	.L26
 456              	.LBE8:
 457              		.cfi_endproc
 458              	.LFE10:
 460              		.section	.text.set_usb_clock_96m_hxtal,"ax",@progbits
 461              		.align	1
 462              		.globl	set_usb_clock_96m_hxtal
 464              	set_usb_clock_96m_hxtal:
 465              	.LFB11:
  88:lib/usbcdc/src/usb_serial_if.c **** 
  89:lib/usbcdc/src/usb_serial_if.c **** void set_usb_clock_96m_hxtal(void){
 466              		.loc 1 89 35 is_stmt 1
 467              		.cfi_startproc
  90:lib/usbcdc/src/usb_serial_if.c **** 
  91:lib/usbcdc/src/usb_serial_if.c ****     /* reset the RCC clock configuration to the default reset state */
  92:lib/usbcdc/src/usb_serial_if.c ****     /* enable IRC8M */
  93:lib/usbcdc/src/usb_serial_if.c ****     RCU_CTL |= RCU_CTL_IRC8MEN;
 468              		.loc 1 93 5
 469              		.loc 1 93 13 is_stmt 0
 470 0000 B7170240 		li	a5,1073876992
 471 0004 9843     		lw	a4,0(a5)
  94:lib/usbcdc/src/usb_serial_if.c ****     
  95:lib/usbcdc/src/usb_serial_if.c ****     /* reset SCS, AHBPSC, APB1PSC, APB2PSC, ADCPSC, CKOUT0SEL bits */
  96:lib/usbcdc/src/usb_serial_if.c ****     RCU_CFG0 &= ~(RCU_CFG0_SCS | RCU_CFG0_AHBPSC | RCU_CFG0_APB1PSC | RCU_CFG0_APB2PSC |
 472              		.loc 1 96 14
 473 0006 B706FFE0 		li	a3,-520159232
 474 000a B106     		addi	a3,a3,12
  93:lib/usbcdc/src/usb_serial_if.c ****     
 475              		.loc 1 93 13
 476 000c 13671700 		ori	a4,a4,1
 477 0010 98C3     		sw	a4,0(a5)
 478              		.loc 1 96 5 is_stmt 1
 479              		.loc 1 96 14 is_stmt 0
 480 0012 D843     		lw	a4,4(a5)
 481 0014 758F     		and	a4,a4,a3
 482 0016 D8C3     		sw	a4,4(a5)
  97:lib/usbcdc/src/usb_serial_if.c ****                   RCU_CFG0_ADCPSC | RCU_CFG0_ADCPSC_2 | RCU_CFG0_CKOUT0SEL);
  98:lib/usbcdc/src/usb_serial_if.c **** 
  99:lib/usbcdc/src/usb_serial_if.c ****     /* reset HXTALEN, CKMEN, PLLEN bits */
 100:lib/usbcdc/src/usb_serial_if.c ****     RCU_CTL &= ~(RCU_CTL_HXTALEN | RCU_CTL_CKMEN | RCU_CTL_PLLEN);
GAS LISTING C:\Users\marwz\AppData\Local\Temp\ccnCnech.s 			page 12


 483              		.loc 1 100 5 is_stmt 1
 484              		.loc 1 100 13 is_stmt 0
 485 0018 9843     		lw	a4,0(a5)
 486 001a B706F7FE 		li	a3,-17367040
 487 001e FD16     		addi	a3,a3,-1
 488 0020 758F     		and	a4,a4,a3
 489 0022 98C3     		sw	a4,0(a5)
 101:lib/usbcdc/src/usb_serial_if.c **** 
 102:lib/usbcdc/src/usb_serial_if.c ****     /* Reset HXTALBPS bit */
 103:lib/usbcdc/src/usb_serial_if.c ****     RCU_CTL &= ~(RCU_CTL_HXTALBPS);
 490              		.loc 1 103 5 is_stmt 1
 491              		.loc 1 103 13 is_stmt 0
 492 0024 9843     		lw	a4,0(a5)
 493 0026 B706FCFF 		li	a3,-262144
 494 002a FD16     		addi	a3,a3,-1
 495 002c 758F     		and	a4,a4,a3
 496 002e 98C3     		sw	a4,0(a5)
 104:lib/usbcdc/src/usb_serial_if.c **** 
 105:lib/usbcdc/src/usb_serial_if.c ****     /* reset PLLSEL, PREDV0_LSB, PLLMF, USBFSPSC bits */
 106:lib/usbcdc/src/usb_serial_if.c ****     
 107:lib/usbcdc/src/usb_serial_if.c ****     RCU_CFG0 &= ~(RCU_CFG0_PLLSEL | RCU_CFG0_PREDV0_LSB | RCU_CFG0_PLLMF |
 497              		.loc 1 107 5 is_stmt 1
 498              		.loc 1 107 14 is_stmt 0
 499 0030 D843     		lw	a4,4(a5)
 500 0032 B70601DF 		li	a3,-553582592
 501 0036 FD16     		addi	a3,a3,-1
 502 0038 758F     		and	a4,a4,a3
 503 003a D8C3     		sw	a4,4(a5)
 108:lib/usbcdc/src/usb_serial_if.c ****                   RCU_CFG0_USBFSPSC | RCU_CFG0_PLLMF_4);
 109:lib/usbcdc/src/usb_serial_if.c ****     RCU_CFG1 = 0x00000000U;
 504              		.loc 1 109 5 is_stmt 1
 505              		.loc 1 109 14 is_stmt 0
 506 003c 23A60702 		sw	zero,44(a5)
 110:lib/usbcdc/src/usb_serial_if.c **** 
 111:lib/usbcdc/src/usb_serial_if.c ****     /* Reset HXTALEN, CKMEN, PLLEN, PLL1EN and PLL2EN bits */
 112:lib/usbcdc/src/usb_serial_if.c ****     RCU_CTL &= ~(RCU_CTL_PLLEN | RCU_CTL_PLL1EN | RCU_CTL_PLL2EN | RCU_CTL_CKMEN | RCU_CTL_HXTALEN)
 507              		.loc 1 112 5 is_stmt 1
 508              		.loc 1 112 13 is_stmt 0
 509 0040 9843     		lw	a4,0(a5)
 510 0042 B706F7EA 		li	a3,-352911360
 511 0046 FD16     		addi	a3,a3,-1
 512 0048 758F     		and	a4,a4,a3
 513 004a 98C3     		sw	a4,0(a5)
 113:lib/usbcdc/src/usb_serial_if.c ****     /* disable all interrupts */
 114:lib/usbcdc/src/usb_serial_if.c ****     RCU_INT = 0x00FF0000U;
 514              		.loc 1 114 5 is_stmt 1
 515              		.loc 1 114 13 is_stmt 0
 516 004c 3707FF00 		li	a4,16711680
 517 0050 98C7     		sw	a4,8(a5)
 115:lib/usbcdc/src/usb_serial_if.c **** 
 116:lib/usbcdc/src/usb_serial_if.c **** 
 117:lib/usbcdc/src/usb_serial_if.c ****     uint32_t timeout = 0U;
 518              		.loc 1 117 5 is_stmt 1
 519              	.LVL36:
 118:lib/usbcdc/src/usb_serial_if.c ****     uint32_t stab_flag = 0U;
 520              		.loc 1 118 5
 119:lib/usbcdc/src/usb_serial_if.c **** 
GAS LISTING C:\Users\marwz\AppData\Local\Temp\ccnCnech.s 			page 13


 120:lib/usbcdc/src/usb_serial_if.c ****     /* enable HXTAL */
 121:lib/usbcdc/src/usb_serial_if.c ****     RCU_CTL |= RCU_CTL_HXTALEN;
 521              		.loc 1 121 5
 522              		.loc 1 121 13 is_stmt 0
 523 0052 9443     		lw	a3,0(a5)
 524 0054 4167     		li	a4,65536
 525 0056 D98E     		or	a3,a3,a4
 526 0058 94C3     		sw	a3,0(a5)
 527 005a 9307F7FF 		addi	a5,a4,-1
 122:lib/usbcdc/src/usb_serial_if.c **** 
 123:lib/usbcdc/src/usb_serial_if.c ****     /* wait until HXTAL is stable or the startup time is longer than HXTAL_STARTUP_TIMEOUT */
 124:lib/usbcdc/src/usb_serial_if.c ****     do{
 125:lib/usbcdc/src/usb_serial_if.c ****         timeout++;
 126:lib/usbcdc/src/usb_serial_if.c ****         stab_flag = (RCU_CTL & RCU_CTL_HXTALSTB);
 528              		.loc 1 126 22
 529 005e 37170240 		li	a4,1073876992
 530              	.LVL37:
 531              	.L32:
 124:lib/usbcdc/src/usb_serial_if.c ****         timeout++;
 532              		.loc 1 124 5 is_stmt 1 discriminator 2
 125:lib/usbcdc/src/usb_serial_if.c ****         stab_flag = (RCU_CTL & RCU_CTL_HXTALSTB);
 533              		.loc 1 125 9 discriminator 2
 534              		.loc 1 126 9 discriminator 2
 535              		.loc 1 126 22 is_stmt 0 discriminator 2
 536 0062 1443     		lw	a3,0(a4)
 537              	.LVL38:
 127:lib/usbcdc/src/usb_serial_if.c ****     }while((0U == stab_flag) && (HXTAL_STARTUP_TIMEOUT != timeout));
 538              		.loc 1 127 5 discriminator 2
 539 0064 1396E600 		slli	a2,a3,14
 540 0068 63440600 		blt	a2,zero,.L31
 541 006c FD17     		addi	a5,a5,-1
 542              	.LVL39:
 543              		.loc 1 127 30 discriminator 1
 544 006e F5FB     		bne	a5,zero,.L32
 545              	.LVL40:
 546              	.L31:
 128:lib/usbcdc/src/usb_serial_if.c **** 
 129:lib/usbcdc/src/usb_serial_if.c ****     /* if fail */
 130:lib/usbcdc/src/usb_serial_if.c ****     if(0U == (RCU_CTL & RCU_CTL_HXTALSTB)){
 547              		.loc 1 130 5 is_stmt 1
 548              		.loc 1 130 15 is_stmt 0
 549 0070 B7170240 		li	a5,1073876992
 550 0074 9843     		lw	a4,0(a5)
 551              		.loc 1 130 7
 552 0076 9316E700 		slli	a3,a4,14
 553              	.LVL41:
 554 007a 63C30600 		blt	a3,zero,.L33
 555              	.L34:
 131:lib/usbcdc/src/usb_serial_if.c ****         while(1){
 556              		.loc 1 131 9 is_stmt 1 discriminator 1
 132:lib/usbcdc/src/usb_serial_if.c ****         }
 557              		.loc 1 132 9 discriminator 1
 558 007e 01A0     		j	.L34
 559              	.L33:
 560              	.LBB11:
 561              	.LBB12:
 133:lib/usbcdc/src/usb_serial_if.c ****     }
GAS LISTING C:\Users\marwz\AppData\Local\Temp\ccnCnech.s 			page 14


 134:lib/usbcdc/src/usb_serial_if.c **** 
 135:lib/usbcdc/src/usb_serial_if.c ****     /* HXTAL is stable */
 136:lib/usbcdc/src/usb_serial_if.c ****     /* AHB = SYSCLK */
 137:lib/usbcdc/src/usb_serial_if.c ****     RCU_CFG0 |= RCU_AHB_CKSYS_DIV1;
 562              		.loc 1 137 5
 563              		.loc 1 137 14 is_stmt 0
 564 0080 D843     		lw	a4,4(a5)
 138:lib/usbcdc/src/usb_serial_if.c ****     /* APB2 = AHB/1 */
 139:lib/usbcdc/src/usb_serial_if.c ****     RCU_CFG0 |= RCU_APB2_CKAHB_DIV1;
 140:lib/usbcdc/src/usb_serial_if.c ****     /* APB1 = AHB/2 */
 141:lib/usbcdc/src/usb_serial_if.c ****     RCU_CFG0 |= RCU_APB1_CKAHB_DIV2;
 142:lib/usbcdc/src/usb_serial_if.c **** 
 143:lib/usbcdc/src/usb_serial_if.c ****     if(HXTAL_VALUE==25000000){
 144:lib/usbcdc/src/usb_serial_if.c **** 
 145:lib/usbcdc/src/usb_serial_if.c ****         /* CK_PLL = (CK_PREDIV0) * 24 = 96 MHz */
 146:lib/usbcdc/src/usb_serial_if.c ****         RCU_CFG0 &= ~(RCU_CFG0_PLLMF | RCU_CFG0_PLLMF_4);
 147:lib/usbcdc/src/usb_serial_if.c ****         RCU_CFG0 |= (RCU_PLLSRC_HXTAL | RCU_PLL_MUL24);
 148:lib/usbcdc/src/usb_serial_if.c **** 
 149:lib/usbcdc/src/usb_serial_if.c ****         /* CK_PREDIV0 = (CK_HXTAL)/5 *8 /10 = 4 MHz */
 150:lib/usbcdc/src/usb_serial_if.c ****         RCU_CFG1 &= ~(RCU_CFG1_PREDV0SEL | RCU_CFG1_PLL1MF | RCU_CFG1_PREDV1 | RCU_CFG1_PREDV0);
 151:lib/usbcdc/src/usb_serial_if.c ****         RCU_CFG1 |= (RCU_PREDV0SRC_CKPLL1 | RCU_PLL1_MUL8 | RCU_PREDV1_DIV5 | RCU_PREDV0_DIV10);
 152:lib/usbcdc/src/usb_serial_if.c ****         /* enable PLL1 */
 153:lib/usbcdc/src/usb_serial_if.c ****         RCU_CTL |= RCU_CTL_PLL1EN;
 154:lib/usbcdc/src/usb_serial_if.c ****         /* wait till PLL1 is ready */
 155:lib/usbcdc/src/usb_serial_if.c ****         while((RCU_CTL & RCU_CTL_PLL1STB) == 0){
 156:lib/usbcdc/src/usb_serial_if.c ****         }
 157:lib/usbcdc/src/usb_serial_if.c **** 
 158:lib/usbcdc/src/usb_serial_if.c ****     }else if(HXTAL_VALUE==8000000){
 159:lib/usbcdc/src/usb_serial_if.c ****         /* CK_PLL = (CK_PREDIV0) * 24 = 96 MHz */
 160:lib/usbcdc/src/usb_serial_if.c ****         RCU_CFG0 &= ~(RCU_CFG0_PLLMF | RCU_CFG0_PLLMF_4);
 565              		.loc 1 160 18
 566 0082 B706C4DF 		li	a3,-540803072
 567 0086 FD16     		addi	a3,a3,-1
 137:lib/usbcdc/src/usb_serial_if.c ****     /* APB2 = AHB/1 */
 568              		.loc 1 137 14
 569 0088 D8C3     		sw	a4,4(a5)
 139:lib/usbcdc/src/usb_serial_if.c ****     /* APB1 = AHB/2 */
 570              		.loc 1 139 5 is_stmt 1
 139:lib/usbcdc/src/usb_serial_if.c ****     /* APB1 = AHB/2 */
 571              		.loc 1 139 14 is_stmt 0
 572 008a D843     		lw	a4,4(a5)
 573 008c D8C3     		sw	a4,4(a5)
 141:lib/usbcdc/src/usb_serial_if.c **** 
 574              		.loc 1 141 5 is_stmt 1
 141:lib/usbcdc/src/usb_serial_if.c **** 
 575              		.loc 1 141 14 is_stmt 0
 576 008e D843     		lw	a4,4(a5)
 577 0090 13670740 		ori	a4,a4,1024
 578 0094 D8C3     		sw	a4,4(a5)
 143:lib/usbcdc/src/usb_serial_if.c **** 
 579              		.loc 1 143 5 is_stmt 1
 158:lib/usbcdc/src/usb_serial_if.c ****         /* CK_PLL = (CK_PREDIV0) * 24 = 96 MHz */
 580              		.loc 1 158 11
 581              		.loc 1 160 9
 582              		.loc 1 160 18 is_stmt 0
 583 0096 D843     		lw	a4,4(a5)
 584 0098 758F     		and	a4,a4,a3
GAS LISTING C:\Users\marwz\AppData\Local\Temp\ccnCnech.s 			page 15


 585 009a D8C3     		sw	a4,4(a5)
 161:lib/usbcdc/src/usb_serial_if.c ****         RCU_CFG0 |= (RCU_PLLSRC_HXTAL | RCU_PLL_MUL24);
 586              		.loc 1 161 9 is_stmt 1
 587              		.loc 1 161 18 is_stmt 0
 588 009c D843     		lw	a4,4(a5)
 589 009e B7061D20 		li	a3,538771456
 590 00a2 558F     		or	a4,a4,a3
 591 00a4 D8C3     		sw	a4,4(a5)
 162:lib/usbcdc/src/usb_serial_if.c **** 
 163:lib/usbcdc/src/usb_serial_if.c **** 		RCU_CFG1 &= ~(RCU_CFG1_PREDV0SEL | RCU_CFG1_PREDV1 | RCU_CFG1_PLL1MF | RCU_CFG1_PREDV0);
 592              		.loc 1 163 3 is_stmt 1
 593              		.loc 1 163 12 is_stmt 0
 594 00a6 D857     		lw	a4,44(a5)
 595 00a8 BD76     		li	a3,-69632
 596 00aa 758F     		and	a4,a4,a3
 597 00ac D8D7     		sw	a4,44(a5)
 164:lib/usbcdc/src/usb_serial_if.c **** 		RCU_CFG1 |= (RCU_PREDV0SRC_HXTAL | RCU_PREDV0_DIV2 );
 598              		.loc 1 164 3 is_stmt 1
 599              		.loc 1 164 12 is_stmt 0
 600 00ae D857     		lw	a4,44(a5)
 165:lib/usbcdc/src/usb_serial_if.c ****     }
 166:lib/usbcdc/src/usb_serial_if.c **** 
 167:lib/usbcdc/src/usb_serial_if.c ****     /* enable PLL */
 168:lib/usbcdc/src/usb_serial_if.c ****     RCU_CTL |= RCU_CTL_PLLEN;
 601              		.loc 1 168 13
 602 00b0 B7060001 		li	a3,16777216
 164:lib/usbcdc/src/usb_serial_if.c **** 		RCU_CFG1 |= (RCU_PREDV0SRC_HXTAL | RCU_PREDV0_DIV2 );
 603              		.loc 1 164 12
 604 00b4 13671700 		ori	a4,a4,1
 605 00b8 D8D7     		sw	a4,44(a5)
 606              		.loc 1 168 5 is_stmt 1
 607              		.loc 1 168 13 is_stmt 0
 608 00ba 9843     		lw	a4,0(a5)
 609 00bc 558F     		or	a4,a4,a3
 610 00be 98C3     		sw	a4,0(a5)
 169:lib/usbcdc/src/usb_serial_if.c **** 
 170:lib/usbcdc/src/usb_serial_if.c ****     /* wait until PLL is stable */
 171:lib/usbcdc/src/usb_serial_if.c ****     while(0U == (RCU_CTL & RCU_CTL_PLLSTB)){
 611              		.loc 1 171 5 is_stmt 1
 612              		.loc 1 171 18 is_stmt 0
 613 00c0 B7170240 		li	a5,1073876992
 614              	.L35:
 172:lib/usbcdc/src/usb_serial_if.c ****     }
 615              		.loc 1 172 5 is_stmt 1
 171:lib/usbcdc/src/usb_serial_if.c ****     }
 616              		.loc 1 171 18 is_stmt 0
 617 00c4 9843     		lw	a4,0(a5)
 171:lib/usbcdc/src/usb_serial_if.c ****     }
 618              		.loc 1 171 10
 619 00c6 93166700 		slli	a3,a4,6
 620 00ca E3DD06FE 		bge	a3,zero,.L35
 173:lib/usbcdc/src/usb_serial_if.c **** 
 174:lib/usbcdc/src/usb_serial_if.c ****     /* select PLL as system clock */
 175:lib/usbcdc/src/usb_serial_if.c ****     RCU_CFG0 &= ~RCU_CFG0_SCS;
 621              		.loc 1 175 5 is_stmt 1
 622              		.loc 1 175 14 is_stmt 0
 623 00ce D843     		lw	a4,4(a5)
GAS LISTING C:\Users\marwz\AppData\Local\Temp\ccnCnech.s 			page 16


 624 00d0 719B     		andi	a4,a4,-4
 625 00d2 D8C3     		sw	a4,4(a5)
 176:lib/usbcdc/src/usb_serial_if.c ****     RCU_CFG0 |= RCU_CKSYSSRC_PLL;
 626              		.loc 1 176 5 is_stmt 1
 627              		.loc 1 176 14 is_stmt 0
 628 00d4 D843     		lw	a4,4(a5)
 629 00d6 13672700 		ori	a4,a4,2
 630 00da D8C3     		sw	a4,4(a5)
 177:lib/usbcdc/src/usb_serial_if.c **** 
 178:lib/usbcdc/src/usb_serial_if.c ****     /* wait until PLL is selected as system clock */
 179:lib/usbcdc/src/usb_serial_if.c ****     while(0U == (RCU_CFG0 & RCU_SCSS_PLL)){
 631              		.loc 1 179 5 is_stmt 1
 632              		.loc 1 179 18 is_stmt 0
 633 00dc 37170240 		li	a4,1073876992
 634              	.L36:
 180:lib/usbcdc/src/usb_serial_if.c ****     }
 635              		.loc 1 180 5 is_stmt 1
 179:lib/usbcdc/src/usb_serial_if.c ****     }
 636              		.loc 1 179 18 is_stmt 0
 637 00e0 5C43     		lw	a5,4(a4)
 179:lib/usbcdc/src/usb_serial_if.c ****     }
 638              		.loc 1 179 27
 639 00e2 A18B     		andi	a5,a5,8
 179:lib/usbcdc/src/usb_serial_if.c ****     }
 640              		.loc 1 179 10
 641 00e4 F5DF     		beq	a5,zero,.L36
 181:lib/usbcdc/src/usb_serial_if.c ****     //SystemCoreClock = 96000000;
 182:lib/usbcdc/src/usb_serial_if.c ****     SystemCoreClockUpdate();
 642              		.loc 1 182 5 is_stmt 1
 643 00e6 17030000 		tail	SystemCoreClockUpdate
 643      67000300 
 644              	.LVL42:
 645              	.LBE12:
 646              	.LBE11:
 647              		.cfi_endproc
 648              	.LFE11:
 650              		.section	.bss.receive_buffer.5944,"aw",@nobits
 651              		.align	2
 652              		.set	.LANCHOR2,. + 0
 655              	receive_buffer.5944:
 656 0000 00000000 		.zero	64
 656      00000000 
 656      00000000 
 656      00000000 
 656      00000000 
 657              		.section	.bss.tx_buffer,"aw",@nobits
 658              		.align	2
 659              		.set	.LANCHOR3,. + 0
 662              	tx_buffer:
 663 0000 00000000 		.zero	512
 663      00000000 
 663      00000000 
 663      00000000 
 663      00000000 
 664              		.section	.data.USB_OTG_dev,"aw"
 665              		.align	2
 666              		.set	.LANCHOR1,. + 0
GAS LISTING C:\Users\marwz\AppData\Local\Temp\ccnCnech.s 			page 17


 669              	USB_OTG_dev:
 670 0000 00000000 		.zero	196
 670      00000000 
 670      00000000 
 670      00000000 
 670      00000000 
 671 00c4 00000000 		.zero	848
 671      00000000 
 671      00000000 
 671      00000000 
 671      00000000 
 672 0414 00000000 		.word	device_descriptor
 673 0418 00000000 		.word	configuration_descriptor
 674 041c 00000000 		.zero	4
 675 0420 00000000 		.word	usbd_strings
 676 0424 00000000 		.zero	16
 676      00000000 
 676      00000000 
 676      00000000 
 677              		.section	.data.usb_buffer,"aw"
 678              		.align	2
 679              		.set	.LANCHOR0,. + 0
 682              	usb_buffer:
 683 0000 00       		.string	""
 684 0001 00000000 		.zero	511
 684      00000000 
 684      00000000 
 684      00000000 
 684      00000000 
 685 0200 00020000 		.word	512
 686 0204 00000000 		.word	0
 687              		.text
 688              	.Letext0:
 689              		.file 2 "c:\\users\\marwz\\documents\\github\\datafusion\\src\\pressure readings\\project\\toolcha
 690              		.file 3 "c:\\users\\marwz\\documents\\github\\datafusion\\src\\pressure readings\\project\\toolcha
 691              		.file 4 "c:\\users\\marwz\\documents\\github\\datafusion\\src\\pressure readings\\project\\toolcha
 692              		.file 5 "lib/usbcdc/include/drv_usb_regs.h"
 693              		.file 6 "./../../firmware/GD32VF103_standard_peripheral/system_gd32vf103.h"
 694              		.file 7 "lib/usbcdc/include/usb_ch9_std.h"
 695              		.file 8 "lib/usbcdc/include/drv_usb_core.h"
 696              		.file 9 "lib/usbcdc/include/drv_usb_dev.h"
 697              		.file 10 "c:\\users\\marwz\\documents\\github\\datafusion\\src\\pressure readings\\project\\toolch
 698              		.file 11 "c:\\users\\marwz\\documents\\github\\datafusion\\src\\pressure readings\\project\\toolch
 699              		.file 12 "c:\\users\\marwz\\documents\\github\\datafusion\\src\\pressure readings\\project\\toolch
 700              		.file 13 "lib/usbcdc/include/cdc_acm_core.h"
 701              		.file 14 "c:\\users\\marwz\\documents\\github\\datafusion\\src\\pressure readings\\project\\toolch
 702              		.file 15 "c:\\users\\marwz\\documents\\github\\datafusion\\src\\pressure readings\\project\\toolch
 703              		.file 16 "lib/usbcdc/include/usb_serial_if.h"
 704              		.file 17 "./../../firmware/RISCV/drivers/n200_func.h"
 705              		.file 18 "lib/usbcdc/include/usbd_core.h"
 706              		.file 19 "./../../firmware/GD32VF103_standard_peripheral/Include/gd32vf103_eclic.h"
 707              		.file 20 "lib/usbcdc/include/drv_usb_hw.h"
GAS LISTING C:\Users\marwz\AppData\Local\Temp\ccnCnech.s 			page 18

