GAS LISTING C:\Users\marwz\AppData\Local\Temp\cc1xgdze.s 			page 1


   1              		.file	"main.c"
   2              		.option nopic
   3              		.attribute arch, "rv32i2p0_m2p0_a2p0_c2p0"
   4              		.attribute unaligned_access, 0
   5              		.attribute stack_align, 16
   6              		.text
   7              	.Ltext0:
   8              		.cfi_sections	.debug_frame
   9              		.section	.text.startup.main,"ax",@progbits
  10              		.align	1
  11              		.globl	main
  13              	main:
  14              	.LFB7:
  15              		.file 1 "main.c"
   1:main.c        **** #include "gd32vf103.h"
   2:main.c        **** //USB includes
   3:main.c        **** #include "usb_serial_if.h"
   4:main.c        **** #include "usb_delay.h"
   5:main.c        **** 
   6:main.c        **** //ADC includes
   7:main.c        **** #include "cs1237.h"
   8:main.c        **** #include "cs1237_port.h"
   9:main.c        **** 
  10:main.c        **** //Utils
  11:main.c        **** #include <stdlib.h>
  12:main.c        **** #include <string.h>
  13:main.c        **** 
  14:main.c        **** //Need to be defined for usning USB-printf
  15:main.c        **** #define USE_USB
  16:main.c        **** #define USE_USB_PRINTF
  17:main.c        **** 
  18:main.c        **** //How many ADCs that will be used
  19:main.c        **** #define N_ADCS 4
  20:main.c        **** 
  21:main.c        **** int main(void)
  22:main.c        **** {
  16              		.loc 1 22 1
  17              		.cfi_startproc
  23:main.c        ****     //Timekeeping for performance metrics
  24:main.c        ****     uint64_t time = 0;
  18              		.loc 1 24 5
  19              	.LVL0:
  25:main.c        ****     uint64_t last_time = 0;
  20              		.loc 1 25 5
  26:main.c        ****     uint32_t delta_time = 0;
  21              		.loc 1 26 5
  27:main.c        ****     uint64_t delta_seconds = 0;
  22              		.loc 1 27 5
  28:main.c        ****     uint64_t time0 = get_timer_value();
  23              		.loc 1 28 5
  22:main.c        ****     //Timekeeping for performance metrics
  24              		.loc 1 22 1 is_stmt 0
  25 0000 3571     		addi	sp,sp,-160
  26              	.LCFI0:
  27              		.cfi_def_cfa_offset 160
  28 0002 06CF     		sw	ra,156(sp)
  29 0004 22CD     		sw	s0,152(sp)
GAS LISTING C:\Users\marwz\AppData\Local\Temp\cc1xgdze.s 			page 2


  30 0006 26CB     		sw	s1,148(sp)
  31 0008 4AC9     		sw	s2,144(sp)
  32              		.cfi_offset 1, -4
  33              		.cfi_offset 8, -8
  34              		.cfi_offset 9, -12
  35              		.cfi_offset 18, -16
  36              		.loc 1 28 22
  37 000a 97000000 		call	get_timer_value
  37      E7800000 
  38              	.LVL1:
  29:main.c        **** 
  30:main.c        ****     //Pin assignments for CS1237 chips, clock pin is shared by all chips
  31:main.c        ****     cs1237_channel_t clock_pin;
  39              		.loc 1 31 5 is_stmt 1
  32:main.c        ****     clock_pin.pin = GPIO_PIN_0;
  40              		.loc 1 32 5
  41              		.loc 1 32 19 is_stmt 0
  42 0012 8547     		li	a5,1
  43 0014 3ED6     		sw	a5,44(sp)
  33:main.c        ****     clock_pin.port = GPIOB;
  44              		.loc 1 33 5 is_stmt 1
  45              		.loc 1 33 20 is_stmt 0
  46 0016 B7170140 		li	a5,1073811456
  47 001a 938707C0 		addi	a5,a5,-1024
  48 001e 3ED8     		sw	a5,48(sp)
  34:main.c        ****     clock_pin.rcu = RCU_GPIOB;
  49              		.loc 1 34 5 is_stmt 1
  50              	.LBB2:
  35:main.c        **** 
  36:main.c        ****     //Data pin assignments, one for each chip in use
  37:main.c        ****     cs1237_channel_t data_pins[N_ADCS];
  38:main.c        ****     //All pins are on the same port, but does not have to be
  39:main.c        ****     for(int i = 0; i < N_ADCS; i++){
  40:main.c        ****         data_pins[i].port = GPIOB;
  51              		.loc 1 40 27 is_stmt 0
  52 0020 BEC2     		sw	a5,68(sp)
  53 0022 BECC     		sw	a5,88(sp)
  54 0024 BED6     		sw	a5,108(sp)
  55 0026 3EC1     		sw	a5,128(sp)
  56              	.LBE2:
  41:main.c        ****         data_pins[i].rcu = RCU_GPIOB;
  42:main.c        ****     }
  43:main.c        ****     //One data pin for each ADC
  44:main.c        ****     data_pins[0].pin = GPIO_PIN_1;
  57              		.loc 1 44 22
  58 0028 8947     		li	a5,2
  59 002a BEC0     		sw	a5,64(sp)
  45:main.c        ****     data_pins[1].pin = GPIO_PIN_7;
  60              		.loc 1 45 22
  61 002c 93070008 		li	a5,128
  62 0030 BECA     		sw	a5,84(sp)
  46:main.c        ****     data_pins[2].pin = GPIO_PIN_8;
  63              		.loc 1 46 22
  64 0032 93070010 		li	a5,256
  34:main.c        **** 
  65              		.loc 1 34 19
  66 0036 13073060 		li	a4,1539
GAS LISTING C:\Users\marwz\AppData\Local\Temp\cc1xgdze.s 			page 3


  67              		.loc 1 46 22
  68 003a BED4     		sw	a5,104(sp)
  47:main.c        ****     data_pins[3].pin = GPIO_PIN_9;
  69              		.loc 1 47 22
  70 003c 93070020 		li	a5,512
  34:main.c        **** 
  71              		.loc 1 34 19
  72 0040 3ADA     		sw	a4,52(sp)
  37:main.c        ****     //All pins are on the same port, but does not have to be
  73              		.loc 1 37 5 is_stmt 1
  39:main.c        ****         data_pins[i].port = GPIOB;
  74              		.loc 1 39 5
  75              	.LBB3:
  39:main.c        ****         data_pins[i].port = GPIOB;
  76              		.loc 1 39 9
  77              	.LVL2:
  40:main.c        ****         data_pins[i].rcu = RCU_GPIOB;
  78              		.loc 1 40 9
  41:main.c        ****     }
  79              		.loc 1 41 9
  41:main.c        ****     }
  80              		.loc 1 41 26 is_stmt 0
  81 0042 BAC4     		sw	a4,72(sp)
  82              	.LVL3:
  40:main.c        ****         data_pins[i].rcu = RCU_GPIOB;
  83              		.loc 1 40 9 is_stmt 1
  41:main.c        ****     }
  84              		.loc 1 41 9
  41:main.c        ****     }
  85              		.loc 1 41 26 is_stmt 0
  86 0044 BACE     		sw	a4,92(sp)
  87              	.LVL4:
  40:main.c        ****         data_pins[i].rcu = RCU_GPIOB;
  88              		.loc 1 40 9 is_stmt 1
  41:main.c        ****     }
  89              		.loc 1 41 9
  41:main.c        ****     }
  90              		.loc 1 41 26 is_stmt 0
  91 0046 BAD8     		sw	a4,112(sp)
  92              	.LVL5:
  40:main.c        ****         data_pins[i].rcu = RCU_GPIOB;
  93              		.loc 1 40 9 is_stmt 1
  41:main.c        ****     }
  94              		.loc 1 41 9
  41:main.c        ****     }
  95              		.loc 1 41 26 is_stmt 0
  96 0048 3AC3     		sw	a4,132(sp)
  97              	.LVL6:
  98              	.LBE3:
  44:main.c        ****     data_pins[1].pin = GPIO_PIN_7;
  99              		.loc 1 44 5 is_stmt 1
  45:main.c        ****     data_pins[2].pin = GPIO_PIN_8;
 100              		.loc 1 45 5
  46:main.c        ****     data_pins[3].pin = GPIO_PIN_9;
 101              		.loc 1 46 5
 102              		.loc 1 47 5
 103              		.loc 1 47 22 is_stmt 0
GAS LISTING C:\Users\marwz\AppData\Local\Temp\cc1xgdze.s 			page 4


 104 004a BEDE     		sw	a5,124(sp)
  48:main.c        **** 
  49:main.c        ****     //USB setup, puts out a virtual COM port, once setup printf() is available for sending over USB
  50:main.c        ****     uint8_t usb_data_buffer[512] = {0};
 105              		.loc 1 50 5 is_stmt 1
  51:main.c        ****     configure_usb_serial();
 106              		.loc 1 51 5
 107 004c 97000000 		call	configure_usb_serial
 107      E7800000 
 108              	.LVL7:
  52:main.c        **** 	while(!usb_serial_available())usb_delay_1ms(100);
 109              		.loc 1 52 2
 110              	.L2:
 111              		.loc 1 52 9 is_stmt 0 discriminator 1
 112 0054 97000000 		call	usb_serial_available
 112      E7800000 
 113              	.LVL8:
 114              		.loc 1 52 7 discriminator 1
 115 005c 4DC9     		beq	a0,zero,.L3
  53:main.c        **** 	usb_delay_1ms(1000);
 116              		.loc 1 53 2 is_stmt 1
 117 005e 1305803E 		li	a0,1000
 118 0062 97000000 		call	usb_delay_1ms
 118      E7800000 
 119              	.LVL9:
  54:main.c        ****     printf("USB connected...\r\n\r");
 120              		.loc 1 54 5
 121 006a 37040000 		lui	s0,%hi(.LANCHOR0)
 122 006e 13050400 		addi	a0,s0,%lo(.LANCHOR0)
 123 0072 97000000 		call	printf
 123      E7800000 
 124              	.LVL10:
  55:main.c        ****     usb_delay_1ms(1000);
 125              		.loc 1 55 5
 126 007a 1305803E 		li	a0,1000
 127 007e 97000000 		call	usb_delay_1ms
 127      E7800000 
 128              	.LVL11:
  56:main.c        **** 
  57:main.c        ****     //Initialize ADCs
  58:main.c        ****     cs1237_port_initialize_pins(N_ADCS, data_pins, clock_pin);
 129              		.loc 1 58 5
 130 0086 5146     		li	a2,20
 131 0088 6C10     		addi	a1,sp,44
 132 008a 0A85     		mv	a0,sp
 133 008c 97000000 		call	memcpy
 133      E7800000 
 134              	.LVL12:
 135 0094 0A86     		mv	a2,sp
 136 0096 8C00     		addi	a1,sp,64
 137 0098 1145     		li	a0,4
 138 009a 97000000 		call	cs1237_port_initialize_pins
 138      E7800000 
 139              	.LVL13:
  59:main.c        ****     usb_delay_1ms(100);
 140              		.loc 1 59 5
 141 00a2 13054006 		li	a0,100
GAS LISTING C:\Users\marwz\AppData\Local\Temp\cc1xgdze.s 			page 5


 142 00a6 97000000 		call	usb_delay_1ms
 142      E7800000 
 143              	.LVL14:
  60:main.c        **** 
  61:main.c        ****     //Configure samplerate and gain of the ADCs
  62:main.c        ****     //10, 40, 640 and 1280 SPS available
  63:main.c        ****     //Higher the SPS, higher it will be noise
  64:main.c        ****     //Same for gain, gain is useful for getting the wider range available
  65:main.c        ****     //1(0dB), 2(6dB), 64(36dB), 128(42dB) gain available
  66:main.c        ****     //Refer to datasheet for how each setting affects accuracy
  67:main.c        ****     cs1237_sample_rate_and_gain(CS1237_640SPS, CS1237_GAIN128, N_ADCS, data_pins);
 144              		.loc 1 67 5
 145 00ae 9400     		addi	a3,sp,64
 146 00b0 1146     		li	a2,4
 147 00b2 8D45     		li	a1,3
 148 00b4 0945     		li	a0,2
  68:main.c        ****     while(1){
  69:main.c        ****         //Wait for new data to be available, polled
  70:main.c        ****         while(!cs1237_data_ready(N_ADCS, data_pins));
  71:main.c        ****         //Read ADC samples (from all initialized ADCs)
  72:main.c        ****         cs1237_read(N_ADCS, data_pins);
  73:main.c        **** 
  74:main.c        ****         //Measure time between each sample (to measure jitter)
  75:main.c        ****         //delta time value in seconds is delta_time/24,000,000
  76:main.c        ****         //For sample rate in Hz => 1/delta_seconds
  77:main.c        ****         time = get_timer_value() ;
  78:main.c        ****         delta_time = time - last_time;
  79:main.c        ****         last_time = time;
  80:main.c        ****         delta_seconds = delta_time/24000;
  81:main.c        **** 
  82:main.c        ****         //Print measured data
  83:main.c        ****         printf("Time:%d,V1:%d,V2:%d,V3:%d,V4:%d\r\n\r", delta_time, data_pins[0].value, data_pins[1
 149              		.loc 1 83 9 is_stmt 0
 150 00b6 13040400 		addi	s0,s0,%lo(.LANCHOR0)
  67:main.c        ****     while(1){
 151              		.loc 1 67 5
 152 00ba 97000000 		call	cs1237_sample_rate_and_gain
 152      E7800000 
 153              	.LVL15:
  25:main.c        ****     uint32_t delta_time = 0;
 154              		.loc 1 25 14
 155 00c2 8144     		li	s1,0
 156              		.loc 1 83 9
 157 00c4 5104     		addi	s0,s0,20
 158              	.LVL16:
 159              	.L4:
  70:main.c        ****         //Read ADC samples (from all initialized ADCs)
 160              		.loc 1 70 53 is_stmt 1 discriminator 1
  70:main.c        ****         //Read ADC samples (from all initialized ADCs)
 161              		.loc 1 70 16 is_stmt 0 discriminator 1
 162 00c6 8C00     		addi	a1,sp,64
 163 00c8 1145     		li	a0,4
 164 00ca 97000000 		call	cs1237_data_ready
 164      E7800000 
 165              	.LVL17:
  70:main.c        ****         //Read ADC samples (from all initialized ADCs)
 166              		.loc 1 70 14 discriminator 1
GAS LISTING C:\Users\marwz\AppData\Local\Temp\cc1xgdze.s 			page 6


 167 00d2 75D9     		beq	a0,zero,.L4
  72:main.c        **** 
 168              		.loc 1 72 9 is_stmt 1
 169 00d4 8C00     		addi	a1,sp,64
 170 00d6 1145     		li	a0,4
 171 00d8 97000000 		call	cs1237_read
 171      E7800000 
 172              	.LVL18:
  77:main.c        ****         delta_time = time - last_time;
 173              		.loc 1 77 9
  77:main.c        ****         delta_time = time - last_time;
 174              		.loc 1 77 16 is_stmt 0
 175 00e0 97000000 		call	get_timer_value
 175      E7800000 
 176              	.LVL19:
 177              		.loc 1 83 9
 178 00e8 AA47     		lw	a5,136(sp)
 179 00ea 5657     		lw	a4,116(sp)
 180 00ec 8656     		lw	a3,96(sp)
 181 00ee 3646     		lw	a2,76(sp)
 182 00f0 B3059540 		sub	a1,a0,s1
  77:main.c        ****         delta_time = time - last_time;
 183              		.loc 1 77 16
 184 00f4 2A89     		mv	s2,a0
  78:main.c        ****         last_time = time;
 185              		.loc 1 78 9 is_stmt 1
 186              	.LVL20:
  79:main.c        ****         delta_seconds = delta_time/24000;
 187              		.loc 1 79 9
  80:main.c        **** 
 188              		.loc 1 80 9
 189              		.loc 1 83 9
 190 00f6 2285     		mv	a0,s0
 191              	.LVL21:
 192 00f8 97000000 		call	printf
 192      E7800000 
 193              	.LVL22:
  84:main.c        ****         fflush(0);
 194              		.loc 1 84 9
 195 0100 0145     		li	a0,0
 196 0102 97000000 		call	fflush
 196      E7800000 
 197              	.LVL23:
  79:main.c        ****         delta_seconds = delta_time/24000;
 198              		.loc 1 79 19 is_stmt 0
 199 010a CA84     		mv	s1,s2
 200              	.LVL24:
  70:main.c        ****         //Read ADC samples (from all initialized ADCs)
 201              		.loc 1 70 14
 202 010c 6DBF     		j	.L4
 203              	.LVL25:
 204              	.L3:
  52:main.c        **** 	usb_delay_1ms(1000);
 205              		.loc 1 52 32 is_stmt 1 discriminator 2
 206 010e 13054006 		li	a0,100
 207 0112 97000000 		call	usb_delay_1ms
 207      E7800000 
GAS LISTING C:\Users\marwz\AppData\Local\Temp\cc1xgdze.s 			page 7


 208              	.LVL26:
 209 011a 2DBF     		j	.L2
 210              		.cfi_endproc
 211              	.LFE7:
 213              		.section	.rodata
 214              		.align	2
 215              		.set	.LANCHOR0,. + 0
 216              	.LC0:
 217 0000 55534220 		.string	"USB connected...\r\n\r"
 217      636F6E6E 
 217      65637465 
 217      642E2E2E 
 217      0D0A0D00 
 218              	.LC1:
 219 0014 54696D65 		.string	"Time:%d,V1:%d,V2:%d,V3:%d,V4:%d\r\n\r"
 219      3A25642C 
 219      56313A25 
 219      642C5632 
 219      3A25642C 
 220              		.text
 221              	.Letext0:
 222              		.file 2 "c:\\users\\marwz\\documents\\github\\datafusion\\src\\pressure readings\\project\\toolcha
 223              		.file 3 "c:\\users\\marwz\\documents\\github\\datafusion\\src\\pressure readings\\project\\toolcha
 224              		.file 4 "lib/usbcdc/include/drv_usb_regs.h"
 225              		.file 5 "./../../firmware/GD32VF103_standard_peripheral/system_gd32vf103.h"
 226              		.file 6 "lib/usbcdc/include/usb_ch9_std.h"
 227              		.file 7 "lib/usbcdc/include/drv_usb_core.h"
 228              		.file 8 "lib/usbcdc/include/drv_usb_dev.h"
 229              		.file 9 "c:\\users\\marwz\\documents\\github\\datafusion\\src\\pressure readings\\project\\toolcha
 230              		.file 10 "c:\\users\\marwz\\documents\\github\\datafusion\\src\\pressure readings\\project\\toolch
 231              		.file 11 "c:\\users\\marwz\\documents\\github\\datafusion\\src\\pressure readings\\project\\toolch
 232              		.file 12 "c:\\users\\marwz\\documents\\github\\datafusion\\src\\pressure readings\\project\\toolch
 233              		.file 13 "lib/usbcdc/include/cdc_acm_core.h"
 234              		.file 14 "c:\\users\\marwz\\documents\\github\\datafusion\\src\\pressure readings\\project\\toolch
 235              		.file 15 "lib/usbcdc/include/usb_serial_if.h"
 236              		.file 16 "lib/cs1237/include/cs1237_port.h"
 237              		.file 17 "./../../firmware/RISCV/drivers/n200_func.h"
 238              		.file 18 "lib/usbcdc/include/usb_delay.h"
 239              		.file 19 "c:\\users\\marwz\\documents\\github\\datafusion\\src\\pressure readings\\project\\toolch
 240              		.file 20 "lib/cs1237/include/cs1237.h"
 241              		.file 21 "./../../firmware/GD32VF103_standard_peripheral/Include/gd32vf103_rcu.h"
 242              		.file 22 "<built-in>"
GAS LISTING C:\Users\marwz\AppData\Local\Temp\cc1xgdze.s 			page 8


DEFINED SYMBOLS
                            *ABS*:0000000000000000 main.c
C:\Users\marwz\AppData\Local\Temp\cc1xgdze.s:13     .text.startup.main:0000000000000000 main
C:\Users\marwz\AppData\Local\Temp\cc1xgdze.s:17     .text.startup.main:0000000000000000 .L0 
C:\Users\marwz\AppData\Local\Temp\cc1xgdze.s:18     .text.startup.main:0000000000000000 .L0 
C:\Users\marwz\AppData\Local\Temp\cc1xgdze.s:20     .text.startup.main:0000000000000000 .L0 
C:\Users\marwz\AppData\Local\Temp\cc1xgdze.s:21     .text.startup.main:0000000000000000 .L0 
C:\Users\marwz\AppData\Local\Temp\cc1xgdze.s:22     .text.startup.main:0000000000000000 .L0 
C:\Users\marwz\AppData\Local\Temp\cc1xgdze.s:23     .text.startup.main:0000000000000000 .L0 
C:\Users\marwz\AppData\Local\Temp\cc1xgdze.s:24     .text.startup.main:0000000000000000 .L0 
C:\Users\marwz\AppData\Local\Temp\cc1xgdze.s:25     .text.startup.main:0000000000000000 .L0 
C:\Users\marwz\AppData\Local\Temp\cc1xgdze.s:27     .text.startup.main:0000000000000002 .L0 
C:\Users\marwz\AppData\Local\Temp\cc1xgdze.s:32     .text.startup.main:000000000000000a .L0 
C:\Users\marwz\AppData\Local\Temp\cc1xgdze.s:33     .text.startup.main:000000000000000a .L0 
C:\Users\marwz\AppData\Local\Temp\cc1xgdze.s:34     .text.startup.main:000000000000000a .L0 
C:\Users\marwz\AppData\Local\Temp\cc1xgdze.s:35     .text.startup.main:000000000000000a .L0 
C:\Users\marwz\AppData\Local\Temp\cc1xgdze.s:37     .text.startup.main:000000000000000a .L0 
C:\Users\marwz\AppData\Local\Temp\cc1xgdze.s:40     .text.startup.main:0000000000000012 .L0 
C:\Users\marwz\AppData\Local\Temp\cc1xgdze.s:41     .text.startup.main:0000000000000012 .L0 
C:\Users\marwz\AppData\Local\Temp\cc1xgdze.s:42     .text.startup.main:0000000000000012 .L0 
C:\Users\marwz\AppData\Local\Temp\cc1xgdze.s:45     .text.startup.main:0000000000000016 .L0 
C:\Users\marwz\AppData\Local\Temp\cc1xgdze.s:46     .text.startup.main:0000000000000016 .L0 
C:\Users\marwz\AppData\Local\Temp\cc1xgdze.s:51     .text.startup.main:0000000000000020 .L0 
C:\Users\marwz\AppData\Local\Temp\cc1xgdze.s:52     .text.startup.main:0000000000000020 .L0 
C:\Users\marwz\AppData\Local\Temp\cc1xgdze.s:58     .text.startup.main:0000000000000028 .L0 
C:\Users\marwz\AppData\Local\Temp\cc1xgdze.s:61     .text.startup.main:000000000000002c .L0 
C:\Users\marwz\AppData\Local\Temp\cc1xgdze.s:64     .text.startup.main:0000000000000032 .L0 
C:\Users\marwz\AppData\Local\Temp\cc1xgdze.s:66     .text.startup.main:0000000000000036 .L0 
C:\Users\marwz\AppData\Local\Temp\cc1xgdze.s:68     .text.startup.main:000000000000003a .L0 
C:\Users\marwz\AppData\Local\Temp\cc1xgdze.s:70     .text.startup.main:000000000000003c .L0 
C:\Users\marwz\AppData\Local\Temp\cc1xgdze.s:72     .text.startup.main:0000000000000040 .L0 
C:\Users\marwz\AppData\Local\Temp\cc1xgdze.s:74     .text.startup.main:0000000000000042 .L0 
C:\Users\marwz\AppData\Local\Temp\cc1xgdze.s:76     .text.startup.main:0000000000000042 .L0 
C:\Users\marwz\AppData\Local\Temp\cc1xgdze.s:78     .text.startup.main:0000000000000042 .L0 
C:\Users\marwz\AppData\Local\Temp\cc1xgdze.s:79     .text.startup.main:0000000000000042 .L0 
C:\Users\marwz\AppData\Local\Temp\cc1xgdze.s:80     .text.startup.main:0000000000000042 .L0 
C:\Users\marwz\AppData\Local\Temp\cc1xgdze.s:81     .text.startup.main:0000000000000042 .L0 
C:\Users\marwz\AppData\Local\Temp\cc1xgdze.s:84     .text.startup.main:0000000000000044 .L0 
C:\Users\marwz\AppData\Local\Temp\cc1xgdze.s:85     .text.startup.main:0000000000000044 .L0 
C:\Users\marwz\AppData\Local\Temp\cc1xgdze.s:86     .text.startup.main:0000000000000044 .L0 
C:\Users\marwz\AppData\Local\Temp\cc1xgdze.s:89     .text.startup.main:0000000000000046 .L0 
C:\Users\marwz\AppData\Local\Temp\cc1xgdze.s:90     .text.startup.main:0000000000000046 .L0 
C:\Users\marwz\AppData\Local\Temp\cc1xgdze.s:91     .text.startup.main:0000000000000046 .L0 
C:\Users\marwz\AppData\Local\Temp\cc1xgdze.s:94     .text.startup.main:0000000000000048 .L0 
C:\Users\marwz\AppData\Local\Temp\cc1xgdze.s:95     .text.startup.main:0000000000000048 .L0 
C:\Users\marwz\AppData\Local\Temp\cc1xgdze.s:96     .text.startup.main:0000000000000048 .L0 
C:\Users\marwz\AppData\Local\Temp\cc1xgdze.s:100    .text.startup.main:000000000000004a .L0 
C:\Users\marwz\AppData\Local\Temp\cc1xgdze.s:101    .text.startup.main:000000000000004a .L0 
C:\Users\marwz\AppData\Local\Temp\cc1xgdze.s:102    .text.startup.main:000000000000004a .L0 
C:\Users\marwz\AppData\Local\Temp\cc1xgdze.s:103    .text.startup.main:000000000000004a .L0 
C:\Users\marwz\AppData\Local\Temp\cc1xgdze.s:104    .text.startup.main:000000000000004a .L0 
C:\Users\marwz\AppData\Local\Temp\cc1xgdze.s:106    .text.startup.main:000000000000004c .L0 
C:\Users\marwz\AppData\Local\Temp\cc1xgdze.s:107    .text.startup.main:000000000000004c .L0 
C:\Users\marwz\AppData\Local\Temp\cc1xgdze.s:111    .text.startup.main:0000000000000054 .L0 
C:\Users\marwz\AppData\Local\Temp\cc1xgdze.s:112    .text.startup.main:0000000000000054 .L0 
C:\Users\marwz\AppData\Local\Temp\cc1xgdze.s:115    .text.startup.main:000000000000005c .L0 
C:\Users\marwz\AppData\Local\Temp\cc1xgdze.s:117    .text.startup.main:000000000000005e .L0 
GAS LISTING C:\Users\marwz\AppData\Local\Temp\cc1xgdze.s 			page 9


C:\Users\marwz\AppData\Local\Temp\cc1xgdze.s:121    .text.startup.main:000000000000006a .L0 
C:\Users\marwz\AppData\Local\Temp\cc1xgdze.s:126    .text.startup.main:000000000000007a .L0 
C:\Users\marwz\AppData\Local\Temp\cc1xgdze.s:130    .text.startup.main:0000000000000086 .L0 
C:\Users\marwz\AppData\Local\Temp\cc1xgdze.s:141    .text.startup.main:00000000000000a2 .L0 
C:\Users\marwz\AppData\Local\Temp\cc1xgdze.s:145    .text.startup.main:00000000000000ae .L0 
C:\Users\marwz\AppData\Local\Temp\cc1xgdze.s:150    .text.startup.main:00000000000000b6 .L0 
C:\Users\marwz\AppData\Local\Temp\cc1xgdze.s:152    .text.startup.main:00000000000000ba .L0 
C:\Users\marwz\AppData\Local\Temp\cc1xgdze.s:155    .text.startup.main:00000000000000c2 .L0 
C:\Users\marwz\AppData\Local\Temp\cc1xgdze.s:157    .text.startup.main:00000000000000c4 .L0 
C:\Users\marwz\AppData\Local\Temp\cc1xgdze.s:161    .text.startup.main:00000000000000c6 .L0 
C:\Users\marwz\AppData\Local\Temp\cc1xgdze.s:162    .text.startup.main:00000000000000c6 .L0 
C:\Users\marwz\AppData\Local\Temp\cc1xgdze.s:167    .text.startup.main:00000000000000d2 .L0 
C:\Users\marwz\AppData\Local\Temp\cc1xgdze.s:169    .text.startup.main:00000000000000d4 .L0 
C:\Users\marwz\AppData\Local\Temp\cc1xgdze.s:174    .text.startup.main:00000000000000e0 .L0 
C:\Users\marwz\AppData\Local\Temp\cc1xgdze.s:175    .text.startup.main:00000000000000e0 .L0 
C:\Users\marwz\AppData\Local\Temp\cc1xgdze.s:178    .text.startup.main:00000000000000e8 .L0 
C:\Users\marwz\AppData\Local\Temp\cc1xgdze.s:184    .text.startup.main:00000000000000f4 .L0 
C:\Users\marwz\AppData\Local\Temp\cc1xgdze.s:187    .text.startup.main:00000000000000f6 .L0 
C:\Users\marwz\AppData\Local\Temp\cc1xgdze.s:188    .text.startup.main:00000000000000f6 .L0 
C:\Users\marwz\AppData\Local\Temp\cc1xgdze.s:189    .text.startup.main:00000000000000f6 .L0 
C:\Users\marwz\AppData\Local\Temp\cc1xgdze.s:190    .text.startup.main:00000000000000f6 .L0 
C:\Users\marwz\AppData\Local\Temp\cc1xgdze.s:195    .text.startup.main:0000000000000100 .L0 
C:\Users\marwz\AppData\Local\Temp\cc1xgdze.s:199    .text.startup.main:000000000000010a .L0 
C:\Users\marwz\AppData\Local\Temp\cc1xgdze.s:202    .text.startup.main:000000000000010c .L0 
C:\Users\marwz\AppData\Local\Temp\cc1xgdze.s:206    .text.startup.main:000000000000010e .L0 
C:\Users\marwz\AppData\Local\Temp\cc1xgdze.s:210    .text.startup.main:000000000000011c .L0 
C:\Users\marwz\AppData\Local\Temp\cc1xgdze.s:215    .rodata:0000000000000000 .LANCHOR0
C:\Users\marwz\AppData\Local\Temp\cc1xgdze.s:213    .text.startup.main:000000000000011c .L0 
                     .debug_frame:0000000000000000 .L0 
C:\Users\marwz\AppData\Local\Temp\cc1xgdze.s:204    .text.startup.main:000000000000010e .L3
C:\Users\marwz\AppData\Local\Temp\cc1xgdze.s:159    .text.startup.main:00000000000000c6 .L4
C:\Users\marwz\AppData\Local\Temp\cc1xgdze.s:110    .text.startup.main:0000000000000054 .L2
C:\Users\marwz\AppData\Local\Temp\cc1xgdze.s:4611   .debug_abbrev:0000000000000000 .Ldebug_abbrev0
C:\Users\marwz\AppData\Local\Temp\cc1xgdze.s:5554   .debug_str:0000000000000260 .LASF401
C:\Users\marwz\AppData\Local\Temp\cc1xgdze.s:5888   .debug_str:0000000000000a80 .LASF402
C:\Users\marwz\AppData\Local\Temp\cc1xgdze.s:5846   .debug_str:0000000000000941 .LASF403
C:\Users\marwz\AppData\Local\Temp\cc1xgdze.s:5438   .debug_ranges:0000000000000000 .Ldebug_ranges0
C:\Users\marwz\AppData\Local\Temp\cc1xgdze.s:5450   .debug_line:0000000000000000 .Ldebug_line0
C:\Users\marwz\AppData\Local\Temp\cc1xgdze.s:5922   .debug_str:0000000000000b44 .LASF0
C:\Users\marwz\AppData\Local\Temp\cc1xgdze.s:6024   .debug_str:0000000000000d95 .LASF1
C:\Users\marwz\AppData\Local\Temp\cc1xgdze.s:5650   .debug_str:0000000000000509 .LASF2
C:\Users\marwz\AppData\Local\Temp\cc1xgdze.s:5578   .debug_str:000000000000036f .LASF5
C:\Users\marwz\AppData\Local\Temp\cc1xgdze.s:5664   .debug_str:0000000000000571 .LASF3
C:\Users\marwz\AppData\Local\Temp\cc1xgdze.s:6132   .debug_str:0000000000000fa6 .LASF4
C:\Users\marwz\AppData\Local\Temp\cc1xgdze.s:5726   .debug_str:00000000000006ae .LASF6
C:\Users\marwz\AppData\Local\Temp\cc1xgdze.s:6218   .debug_str:000000000000117d .LASF7
C:\Users\marwz\AppData\Local\Temp\cc1xgdze.s:6232   .debug_str:00000000000011d2 .LASF8
C:\Users\marwz\AppData\Local\Temp\cc1xgdze.s:5600   .debug_str:00000000000003e5 .LASF9
C:\Users\marwz\AppData\Local\Temp\cc1xgdze.s:5854   .debug_str:00000000000009d3 .LASF10
C:\Users\marwz\AppData\Local\Temp\cc1xgdze.s:5796   .debug_str:0000000000000824 .LASF11
C:\Users\marwz\AppData\Local\Temp\cc1xgdze.s:5862   .debug_str:00000000000009fb .LASF12
C:\Users\marwz\AppData\Local\Temp\cc1xgdze.s:5792   .debug_str:0000000000000814 .LASF13
C:\Users\marwz\AppData\Local\Temp\cc1xgdze.s:5652   .debug_str:0000000000000515 .LASF14
C:\Users\marwz\AppData\Local\Temp\cc1xgdze.s:6032   .debug_str:0000000000000dc9 .LASF15
C:\Users\marwz\AppData\Local\Temp\cc1xgdze.s:5490   .debug_str:00000000000000f2 .LASF16
C:\Users\marwz\AppData\Local\Temp\cc1xgdze.s:6188   .debug_str:00000000000010d7 .LASF17
C:\Users\marwz\AppData\Local\Temp\cc1xgdze.s:6134   .debug_str:0000000000000fb0 .LASF18
GAS LISTING C:\Users\marwz\AppData\Local\Temp\cc1xgdze.s 			page 10


C:\Users\marwz\AppData\Local\Temp\cc1xgdze.s:5810   .debug_str:0000000000000885 .LASF128
C:\Users\marwz\AppData\Local\Temp\cc1xgdze.s:6088   .debug_str:0000000000000ee0 .LASF19
C:\Users\marwz\AppData\Local\Temp\cc1xgdze.s:6090   .debug_str:0000000000000ee9 .LASF20
C:\Users\marwz\AppData\Local\Temp\cc1xgdze.s:5924   .debug_str:0000000000000b51 .LASF21
C:\Users\marwz\AppData\Local\Temp\cc1xgdze.s:6172   .debug_str:0000000000001064 .LASF22
C:\Users\marwz\AppData\Local\Temp\cc1xgdze.s:5842   .debug_str:000000000000092f .LASF23
C:\Users\marwz\AppData\Local\Temp\cc1xgdze.s:5520   .debug_str:0000000000000193 .LASF24
C:\Users\marwz\AppData\Local\Temp\cc1xgdze.s:5522   .debug_str:000000000000019e .LASF25
C:\Users\marwz\AppData\Local\Temp\cc1xgdze.s:5524   .debug_str:00000000000001a9 .LASF26
C:\Users\marwz\AppData\Local\Temp\cc1xgdze.s:5526   .debug_str:00000000000001b4 .LASF27
C:\Users\marwz\AppData\Local\Temp\cc1xgdze.s:5528   .debug_str:00000000000001bf .LASF28
C:\Users\marwz\AppData\Local\Temp\cc1xgdze.s:5530   .debug_str:00000000000001ca .LASF29
C:\Users\marwz\AppData\Local\Temp\cc1xgdze.s:5976   .debug_str:0000000000000c82 .LASF30
C:\Users\marwz\AppData\Local\Temp\cc1xgdze.s:5642   .debug_str:00000000000004e3 .LASF31
C:\Users\marwz\AppData\Local\Temp\cc1xgdze.s:5644   .debug_str:00000000000004ec .LASF32
C:\Users\marwz\AppData\Local\Temp\cc1xgdze.s:5540   .debug_str:0000000000000223 .LASF33
C:\Users\marwz\AppData\Local\Temp\cc1xgdze.s:5542   .debug_str:000000000000022e .LASF34
C:\Users\marwz\AppData\Local\Temp\cc1xgdze.s:5500   .debug_str:0000000000000128 .LASF35
C:\Users\marwz\AppData\Local\Temp\cc1xgdze.s:5502   .debug_str:0000000000000132 .LASF36
C:\Users\marwz\AppData\Local\Temp\cc1xgdze.s:6192   .debug_str:00000000000010f2 .LASF37
C:\Users\marwz\AppData\Local\Temp\cc1xgdze.s:6194   .debug_str:00000000000010fb .LASF38
C:\Users\marwz\AppData\Local\Temp\cc1xgdze.s:5698   .debug_str:000000000000061b .LASF39
C:\Users\marwz\AppData\Local\Temp\cc1xgdze.s:5700   .debug_str:0000000000000624 .LASF40
C:\Users\marwz\AppData\Local\Temp\cc1xgdze.s:6148   .debug_str:0000000000000ff7 .LASF41
C:\Users\marwz\AppData\Local\Temp\cc1xgdze.s:5484   .debug_str:00000000000000d7 .LASF42
C:\Users\marwz\AppData\Local\Temp\cc1xgdze.s:5654   .debug_str:000000000000051d .LASF43
C:\Users\marwz\AppData\Local\Temp\cc1xgdze.s:5996   .debug_str:0000000000000d11 .LASF44
C:\Users\marwz\AppData\Local\Temp\cc1xgdze.s:5818   .debug_str:00000000000008b5 .LASF45
C:\Users\marwz\AppData\Local\Temp\cc1xgdze.s:5866   .debug_str:0000000000000a12 .LASF46
C:\Users\marwz\AppData\Local\Temp\cc1xgdze.s:5868   .debug_str:0000000000000a1c .LASF47
C:\Users\marwz\AppData\Local\Temp\cc1xgdze.s:5870   .debug_str:0000000000000a26 .LASF48
C:\Users\marwz\AppData\Local\Temp\cc1xgdze.s:5872   .debug_str:0000000000000a30 .LASF49
C:\Users\marwz\AppData\Local\Temp\cc1xgdze.s:5874   .debug_str:0000000000000a3a .LASF50
C:\Users\marwz\AppData\Local\Temp\cc1xgdze.s:5858   .debug_str:00000000000009e9 .LASF51
C:\Users\marwz\AppData\Local\Temp\cc1xgdze.s:5860   .debug_str:00000000000009f2 .LASF52
C:\Users\marwz\AppData\Local\Temp\cc1xgdze.s:5518   .debug_str:0000000000000188 .LASF53
C:\Users\marwz\AppData\Local\Temp\cc1xgdze.s:5640   .debug_str:00000000000004da .LASF54
C:\Users\marwz\AppData\Local\Temp\cc1xgdze.s:5538   .debug_str:0000000000000218 .LASF55
C:\Users\marwz\AppData\Local\Temp\cc1xgdze.s:5990   .debug_str:0000000000000cee .LASF56
C:\Users\marwz\AppData\Local\Temp\cc1xgdze.s:5672   .debug_str:00000000000005a0 .LASF57
C:\Users\marwz\AppData\Local\Temp\cc1xgdze.s:5864   .debug_str:0000000000000a09 .LASF58
C:\Users\marwz\AppData\Local\Temp\cc1xgdze.s:5744   .debug_str:000000000000071c .LASF59
C:\Users\marwz\AppData\Local\Temp\cc1xgdze.s:6116   .debug_str:0000000000000f56 .LASF60
C:\Users\marwz\AppData\Local\Temp\cc1xgdze.s:5756   .debug_str:0000000000000750 .LASF61
C:\Users\marwz\AppData\Local\Temp\cc1xgdze.s:6234   .debug_str:00000000000011dc .LASF62
C:\Users\marwz\AppData\Local\Temp\cc1xgdze.s:5710   .debug_str:000000000000065f .LASF63
C:\Users\marwz\AppData\Local\Temp\cc1xgdze.s:6242   .debug_str:0000000000001206 .LASF64
C:\Users\marwz\AppData\Local\Temp\cc1xgdze.s:6240   .debug_str:00000000000011fe .LASF65
C:\Users\marwz\AppData\Local\Temp\cc1xgdze.s:6106   .debug_str:0000000000000f2a .LASF66
C:\Users\marwz\AppData\Local\Temp\cc1xgdze.s:6238   .debug_str:00000000000011ea .LASF67
C:\Users\marwz\AppData\Local\Temp\cc1xgdze.s:6206   .debug_str:0000000000001147 .LASF68
C:\Users\marwz\AppData\Local\Temp\cc1xgdze.s:5748   .debug_str:000000000000072c .LASF69
C:\Users\marwz\AppData\Local\Temp\cc1xgdze.s:5684   .debug_str:00000000000005d1 .LASF70
C:\Users\marwz\AppData\Local\Temp\cc1xgdze.s:5770   .debug_str:0000000000000791 .LASF71
C:\Users\marwz\AppData\Local\Temp\cc1xgdze.s:6236   .debug_str:00000000000011e2 .LASF72
C:\Users\marwz\AppData\Local\Temp\cc1xgdze.s:5566   .debug_str:0000000000000321 .LASF73
C:\Users\marwz\AppData\Local\Temp\cc1xgdze.s:6226   .debug_str:00000000000011b5 .LASF74
GAS LISTING C:\Users\marwz\AppData\Local\Temp\cc1xgdze.s 			page 11


C:\Users\marwz\AppData\Local\Temp\cc1xgdze.s:6050   .debug_str:0000000000000e20 .LASF75
C:\Users\marwz\AppData\Local\Temp\cc1xgdze.s:5646   .debug_str:00000000000004f5 .LASF76
C:\Users\marwz\AppData\Local\Temp\cc1xgdze.s:6000   .debug_str:0000000000000d22 .LASF77
C:\Users\marwz\AppData\Local\Temp\cc1xgdze.s:6196   .debug_str:0000000000001104 .LASF78
C:\Users\marwz\AppData\Local\Temp\cc1xgdze.s:6098   .debug_str:0000000000000f04 .LASF79
C:\Users\marwz\AppData\Local\Temp\cc1xgdze.s:6224   .debug_str:00000000000011ab .LASF80
C:\Users\marwz\AppData\Local\Temp\cc1xgdze.s:6252   .debug_str:0000000000001248 .LASF81
C:\Users\marwz\AppData\Local\Temp\cc1xgdze.s:5786   .debug_str:00000000000007f1 .LASF82
C:\Users\marwz\AppData\Local\Temp\cc1xgdze.s:5742   .debug_str:0000000000000713 .LASF83
C:\Users\marwz\AppData\Local\Temp\cc1xgdze.s:6214   .debug_str:000000000000116b .LASF84
C:\Users\marwz\AppData\Local\Temp\cc1xgdze.s:6110   .debug_str:0000000000000f3b .LASF85
C:\Users\marwz\AppData\Local\Temp\cc1xgdze.s:6048   .debug_str:0000000000000e19 .LASF86
C:\Users\marwz\AppData\Local\Temp\cc1xgdze.s:5622   .debug_str:000000000000046a .LASF87
C:\Users\marwz\AppData\Local\Temp\cc1xgdze.s:5940   .debug_str:0000000000000bba .LASF88
C:\Users\marwz\AppData\Local\Temp\cc1xgdze.s:5674   .debug_str:00000000000005a7 .LASF89
C:\Users\marwz\AppData\Local\Temp\cc1xgdze.s:5678   .debug_str:00000000000005b5 .LASF90
C:\Users\marwz\AppData\Local\Temp\cc1xgdze.s:6036   .debug_str:0000000000000dde .LASF91
C:\Users\marwz\AppData\Local\Temp\cc1xgdze.s:5532   .debug_str:00000000000001d5 .LASF92
C:\Users\marwz\AppData\Local\Temp\cc1xgdze.s:5696   .debug_str:0000000000000610 .LASF93
C:\Users\marwz\AppData\Local\Temp\cc1xgdze.s:5838   .debug_str:000000000000091d .LASF94
C:\Users\marwz\AppData\Local\Temp\cc1xgdze.s:5724   .debug_str:00000000000006a4 .LASF95
C:\Users\marwz\AppData\Local\Temp\cc1xgdze.s:6258   .debug_str:0000000000001262 .LASF96
C:\Users\marwz\AppData\Local\Temp\cc1xgdze.s:5506   .debug_str:0000000000000156 .LASF97
C:\Users\marwz\AppData\Local\Temp\cc1xgdze.s:5736   .debug_str:00000000000006f6 .LASF98
C:\Users\marwz\AppData\Local\Temp\cc1xgdze.s:5738   .debug_str:0000000000000701 .LASF99
C:\Users\marwz\AppData\Local\Temp\cc1xgdze.s:6150   .debug_str:0000000000001000 .LASF100
C:\Users\marwz\AppData\Local\Temp\cc1xgdze.s:5682   .debug_str:00000000000005c9 .LASF101
C:\Users\marwz\AppData\Local\Temp\cc1xgdze.s:5594   .debug_str:00000000000003c5 .LASF102
C:\Users\marwz\AppData\Local\Temp\cc1xgdze.s:5474   .debug_str:0000000000000090 .LASF103
C:\Users\marwz\AppData\Local\Temp\cc1xgdze.s:6046   .debug_str:0000000000000e11 .LASF104
C:\Users\marwz\AppData\Local\Temp\cc1xgdze.s:5596   .debug_str:00000000000003cd .LASF105
C:\Users\marwz\AppData\Local\Temp\cc1xgdze.s:6004   .debug_str:0000000000000d34 .LASF106
C:\Users\marwz\AppData\Local\Temp\cc1xgdze.s:5774   .debug_str:00000000000007a4 .LASF107
C:\Users\marwz\AppData\Local\Temp\cc1xgdze.s:6264   .debug_str:0000000000001280 .LASF108
C:\Users\marwz\AppData\Local\Temp\cc1xgdze.s:6144   .debug_str:0000000000000fe6 .LASF109
C:\Users\marwz\AppData\Local\Temp\cc1xgdze.s:6152   .debug_str:0000000000001008 .LASF110
C:\Users\marwz\AppData\Local\Temp\cc1xgdze.s:5692   .debug_str:00000000000005fe .LASF111
C:\Users\marwz\AppData\Local\Temp\cc1xgdze.s:5498   .debug_str:000000000000011f .LASF112
C:\Users\marwz\AppData\Local\Temp\cc1xgdze.s:5626   .debug_str:000000000000047a .LASF113
C:\Users\marwz\AppData\Local\Temp\cc1xgdze.s:5668   .debug_str:000000000000058d .LASF114
C:\Users\marwz\AppData\Local\Temp\cc1xgdze.s:5984   .debug_str:0000000000000cca .LASF115
C:\Users\marwz\AppData\Local\Temp\cc1xgdze.s:5832   .debug_str:0000000000000901 .LASF116
C:\Users\marwz\AppData\Local\Temp\cc1xgdze.s:5634   .debug_str:00000000000004b1 .LASF117
C:\Users\marwz\AppData\Local\Temp\cc1xgdze.s:5746   .debug_str:0000000000000723 .LASF118
C:\Users\marwz\AppData\Local\Temp\cc1xgdze.s:5896   .debug_str:0000000000000ab2 .LASF119
C:\Users\marwz\AppData\Local\Temp\cc1xgdze.s:6136   .debug_str:0000000000000fb9 .LASF120
C:\Users\marwz\AppData\Local\Temp\cc1xgdze.s:5612   .debug_str:000000000000041a .LASF121
C:\Users\marwz\AppData\Local\Temp\cc1xgdze.s:5752   .debug_str:000000000000073e .LASF130
C:\Users\marwz\AppData\Local\Temp\cc1xgdze.s:5604   .debug_str:00000000000003fa .LASF122
C:\Users\marwz\AppData\Local\Temp\cc1xgdze.s:6118   .debug_str:0000000000000f5d .LASF123
C:\Users\marwz\AppData\Local\Temp\cc1xgdze.s:6112   .debug_str:0000000000000f44 .LASF124
C:\Users\marwz\AppData\Local\Temp\cc1xgdze.s:5822   .debug_str:00000000000008ce .LASF125
C:\Users\marwz\AppData\Local\Temp\cc1xgdze.s:5568   .debug_str:000000000000032b .LASF126
C:\Users\marwz\AppData\Local\Temp\cc1xgdze.s:6008   .debug_str:0000000000000d45 .LASF127
C:\Users\marwz\AppData\Local\Temp\cc1xgdze.s:6108   .debug_str:0000000000000f31 .LASF129
C:\Users\marwz\AppData\Local\Temp\cc1xgdze.s:5760   .debug_str:000000000000075d .LASF131
C:\Users\marwz\AppData\Local\Temp\cc1xgdze.s:5666   .debug_str:000000000000057f .LASF132
GAS LISTING C:\Users\marwz\AppData\Local\Temp\cc1xgdze.s 			page 12


C:\Users\marwz\AppData\Local\Temp\cc1xgdze.s:5966   .debug_str:0000000000000c5b .LASF133
C:\Users\marwz\AppData\Local\Temp\cc1xgdze.s:5676   .debug_str:00000000000005ae .LASF134
C:\Users\marwz\AppData\Local\Temp\cc1xgdze.s:6028   .debug_str:0000000000000dba .LASF135
C:\Users\marwz\AppData\Local\Temp\cc1xgdze.s:5762   .debug_str:0000000000000766 .LASF136
C:\Users\marwz\AppData\Local\Temp\cc1xgdze.s:5844   .debug_str:0000000000000939 .LASF137
C:\Users\marwz\AppData\Local\Temp\cc1xgdze.s:5580   .debug_str:0000000000000379 .LASF138
C:\Users\marwz\AppData\Local\Temp\cc1xgdze.s:6022   .debug_str:0000000000000d8d .LASF139
C:\Users\marwz\AppData\Local\Temp\cc1xgdze.s:5782   .debug_str:00000000000007d2 .LASF140
C:\Users\marwz\AppData\Local\Temp\cc1xgdze.s:5732   .debug_str:00000000000006d1 .LASF141
C:\Users\marwz\AppData\Local\Temp\cc1xgdze.s:6052   .debug_str:0000000000000e25 .LASF142
C:\Users\marwz\AppData\Local\Temp\cc1xgdze.s:5694   .debug_str:0000000000000609 .LASF143
C:\Users\marwz\AppData\Local\Temp\cc1xgdze.s:5564   .debug_str:000000000000031a .LASF144
C:\Users\marwz\AppData\Local\Temp\cc1xgdze.s:6114   .debug_str:0000000000000f49 .LASF145
C:\Users\marwz\AppData\Local\Temp\cc1xgdze.s:5492   .debug_str:00000000000000fa .LASF146
C:\Users\marwz\AppData\Local\Temp\cc1xgdze.s:5592   .debug_str:00000000000003b5 .LASF147
C:\Users\marwz\AppData\Local\Temp\cc1xgdze.s:5800   .debug_str:000000000000084c .LASF148
C:\Users\marwz\AppData\Local\Temp\cc1xgdze.s:6062   .debug_str:0000000000000e63 .LASF149
C:\Users\marwz\AppData\Local\Temp\cc1xgdze.s:6054   .debug_str:0000000000000e33 .LASF150
C:\Users\marwz\AppData\Local\Temp\cc1xgdze.s:5662   .debug_str:0000000000000567 .LASF151
C:\Users\marwz\AppData\Local\Temp\cc1xgdze.s:5904   .debug_str:0000000000000ad6 .LASF152
C:\Users\marwz\AppData\Local\Temp\cc1xgdze.s:5452   .debug_str:0000000000000000 .LASF153
C:\Users\marwz\AppData\Local\Temp\cc1xgdze.s:5802   .debug_str:000000000000085c .LASF154
C:\Users\marwz\AppData\Local\Temp\cc1xgdze.s:5798   .debug_str:0000000000000836 .LASF155
C:\Users\marwz\AppData\Local\Temp\cc1xgdze.s:5884   .debug_str:0000000000000a6a .LASF156
C:\Users\marwz\AppData\Local\Temp\cc1xgdze.s:5716   .debug_str:000000000000067e .LASF157
C:\Users\marwz\AppData\Local\Temp\cc1xgdze.s:5994   .debug_str:0000000000000d04 .LASF158
C:\Users\marwz\AppData\Local\Temp\cc1xgdze.s:5928   .debug_str:0000000000000b64 .LASF159
C:\Users\marwz\AppData\Local\Temp\cc1xgdze.s:5934   .debug_str:0000000000000b8c .LASF160
C:\Users\marwz\AppData\Local\Temp\cc1xgdze.s:5962   .debug_str:0000000000000c41 .LASF161
C:\Users\marwz\AppData\Local\Temp\cc1xgdze.s:5850   .debug_str:00000000000009be .LASF162
C:\Users\marwz\AppData\Local\Temp\cc1xgdze.s:6200   .debug_str:0000000000001116 .LASF163
C:\Users\marwz\AppData\Local\Temp\cc1xgdze.s:5828   .debug_str:00000000000008e5 .LASF164
C:\Users\marwz\AppData\Local\Temp\cc1xgdze.s:5660   .debug_str:0000000000000559 .LASF165
C:\Users\marwz\AppData\Local\Temp\cc1xgdze.s:6126   .debug_str:0000000000000f7f .LASF166
C:\Users\marwz\AppData\Local\Temp\cc1xgdze.s:5456   .debug_str:0000000000000015 .LASF167
C:\Users\marwz\AppData\Local\Temp\cc1xgdze.s:5814   .debug_str:000000000000089d .LASF168
C:\Users\marwz\AppData\Local\Temp\cc1xgdze.s:5932   .debug_str:0000000000000b7c .LASF169
C:\Users\marwz\AppData\Local\Temp\cc1xgdze.s:6102   .debug_str:0000000000000f12 .LASF170
C:\Users\marwz\AppData\Local\Temp\cc1xgdze.s:5636   .debug_str:00000000000004b9 .LASF171
C:\Users\marwz\AppData\Local\Temp\cc1xgdze.s:6080   .debug_str:0000000000000ebb .LASF172
C:\Users\marwz\AppData\Local\Temp\cc1xgdze.s:5460   .debug_str:0000000000000035 .LASF173
C:\Users\marwz\AppData\Local\Temp\cc1xgdze.s:6208   .debug_str:0000000000001152 .LASF174
C:\Users\marwz\AppData\Local\Temp\cc1xgdze.s:5466   .debug_str:0000000000000064 .LASF175
C:\Users\marwz\AppData\Local\Temp\cc1xgdze.s:5892   .debug_str:0000000000000a94 .LASF176
C:\Users\marwz\AppData\Local\Temp\cc1xgdze.s:5610   .debug_str:0000000000000410 .LASF177
C:\Users\marwz\AppData\Local\Temp\cc1xgdze.s:5788   .debug_str:00000000000007f8 .LASF178
C:\Users\marwz\AppData\Local\Temp\cc1xgdze.s:6216   .debug_str:0000000000001173 .LASF179
C:\Users\marwz\AppData\Local\Temp\cc1xgdze.s:5834   .debug_str:000000000000090a .LASF180
C:\Users\marwz\AppData\Local\Temp\cc1xgdze.s:6130   .debug_str:0000000000000f9d .LASF181
C:\Users\marwz\AppData\Local\Temp\cc1xgdze.s:5620   .debug_str:0000000000000463 .LASF182
C:\Users\marwz\AppData\Local\Temp\cc1xgdze.s:5458   .debug_str:0000000000000027 .LASF183
C:\Users\marwz\AppData\Local\Temp\cc1xgdze.s:5942   .debug_str:0000000000000bc3 .LASF184
C:\Users\marwz\AppData\Local\Temp\cc1xgdze.s:6138   .debug_str:0000000000000fc5 .LASF185
C:\Users\marwz\AppData\Local\Temp\cc1xgdze.s:6154   .debug_str:0000000000001010 .LASF186
C:\Users\marwz\AppData\Local\Temp\cc1xgdze.s:5986   .debug_str:0000000000000cd5 .LASF187
C:\Users\marwz\AppData\Local\Temp\cc1xgdze.s:6016   .debug_str:0000000000000d6c .LASF188
C:\Users\marwz\AppData\Local\Temp\cc1xgdze.s:6074   .debug_str:0000000000000e98 .LASF189
GAS LISTING C:\Users\marwz\AppData\Local\Temp\cc1xgdze.s 			page 13


C:\Users\marwz\AppData\Local\Temp\cc1xgdze.s:5512   .debug_str:000000000000016d .LASF190
C:\Users\marwz\AppData\Local\Temp\cc1xgdze.s:6122   .debug_str:0000000000000f6c .LASF191
C:\Users\marwz\AppData\Local\Temp\cc1xgdze.s:5590   .debug_str:00000000000003ad .LASF192
C:\Users\marwz\AppData\Local\Temp\cc1xgdze.s:5998   .debug_str:0000000000000d19 .LASF193
C:\Users\marwz\AppData\Local\Temp\cc1xgdze.s:5472   .debug_str:0000000000000088 .LASF194
C:\Users\marwz\AppData\Local\Temp\cc1xgdze.s:5878   .debug_str:0000000000000a4b .LASF195
C:\Users\marwz\AppData\Local\Temp\cc1xgdze.s:6124   .debug_str:0000000000000f75 .LASF196
C:\Users\marwz\AppData\Local\Temp\cc1xgdze.s:6190   .debug_str:00000000000010e0 .LASF197
C:\Users\marwz\AppData\Local\Temp\cc1xgdze.s:5576   .debug_str:000000000000035e .LASF198
C:\Users\marwz\AppData\Local\Temp\cc1xgdze.s:5670   .debug_str:0000000000000599 .LASF199
C:\Users\marwz\AppData\Local\Temp\cc1xgdze.s:5890   .debug_str:0000000000000a87 .LASF200
C:\Users\marwz\AppData\Local\Temp\cc1xgdze.s:5974   .debug_str:0000000000000c78 .LASF201
C:\Users\marwz\AppData\Local\Temp\cc1xgdze.s:5852   .debug_str:00000000000009cb .LASF202
C:\Users\marwz\AppData\Local\Temp\cc1xgdze.s:5454   .debug_str:0000000000000009 .LASF203
C:\Users\marwz\AppData\Local\Temp\cc1xgdze.s:6120   .debug_str:0000000000000f64 .LASF204
C:\Users\marwz\AppData\Local\Temp\cc1xgdze.s:5478   .debug_str:00000000000000a1 .LASF205
C:\Users\marwz\AppData\Local\Temp\cc1xgdze.s:6020   .debug_str:0000000000000d84 .LASF206
C:\Users\marwz\AppData\Local\Temp\cc1xgdze.s:5708   .debug_str:0000000000000655 .LASF207
C:\Users\marwz\AppData\Local\Temp\cc1xgdze.s:5812   .debug_str:0000000000000895 .LASF208
C:\Users\marwz\AppData\Local\Temp\cc1xgdze.s:5552   .debug_str:0000000000000257 .LASF209
C:\Users\marwz\AppData\Local\Temp\cc1xgdze.s:5930   .debug_str:0000000000000b73 .LASF210
C:\Users\marwz\AppData\Local\Temp\cc1xgdze.s:6202   .debug_str:0000000000001120 .LASF211
C:\Users\marwz\AppData\Local\Temp\cc1xgdze.s:5690   .debug_str:00000000000005f3 .LASF212
C:\Users\marwz\AppData\Local\Temp\cc1xgdze.s:5544   .debug_str:0000000000000239 .LASF213
C:\Users\marwz\AppData\Local\Temp\cc1xgdze.s:5764   .debug_str:000000000000076e .LASF214
C:\Users\marwz\AppData\Local\Temp\cc1xgdze.s:6266   .debug_str:000000000000128b .LASF215
C:\Users\marwz\AppData\Local\Temp\cc1xgdze.s:6222   .debug_str:000000000000119a .LASF216
C:\Users\marwz\AppData\Local\Temp\cc1xgdze.s:6092   .debug_str:0000000000000ef2 .LASF217
C:\Users\marwz\AppData\Local\Temp\cc1xgdze.s:6084   .debug_str:0000000000000ecb .LASF218
C:\Users\marwz\AppData\Local\Temp\cc1xgdze.s:6030   .debug_str:0000000000000dc1 .LASF219
C:\Users\marwz\AppData\Local\Temp\cc1xgdze.s:5632   .debug_str:00000000000004a7 .LASF220
C:\Users\marwz\AppData\Local\Temp\cc1xgdze.s:6104   .debug_str:0000000000000f25 .LASF221
C:\Users\marwz\AppData\Local\Temp\cc1xgdze.s:5740   .debug_str:000000000000070c .LASF222
C:\Users\marwz\AppData\Local\Temp\cc1xgdze.s:5582   .debug_str:000000000000038a .LASF223
C:\Users\marwz\AppData\Local\Temp\cc1xgdze.s:5572   .debug_str:0000000000000346 .LASF224
C:\Users\marwz\AppData\Local\Temp\cc1xgdze.s:5688   .debug_str:00000000000005ea .LASF225
C:\Users\marwz\AppData\Local\Temp\cc1xgdze.s:5714   .debug_str:000000000000066b .LASF226
C:\Users\marwz\AppData\Local\Temp\cc1xgdze.s:5946   .debug_str:0000000000000be7 .LASF227
C:\Users\marwz\AppData\Local\Temp\cc1xgdze.s:6076   .debug_str:0000000000000ea1 .LASF228
C:\Users\marwz\AppData\Local\Temp\cc1xgdze.s:5768   .debug_str:0000000000000783 .LASF229
C:\Users\marwz\AppData\Local\Temp\cc1xgdze.s:5546   .debug_str:0000000000000242 .LASF230
C:\Users\marwz\AppData\Local\Temp\cc1xgdze.s:5914   .debug_str:0000000000000b12 .LASF231
C:\Users\marwz\AppData\Local\Temp\cc1xgdze.s:5926   .debug_str:0000000000000b59 .LASF232
C:\Users\marwz\AppData\Local\Temp\cc1xgdze.s:6026   .debug_str:0000000000000dac .LASF233
C:\Users\marwz\AppData\Local\Temp\cc1xgdze.s:6058   .debug_str:0000000000000e4a .LASF234
C:\Users\marwz\AppData\Local\Temp\cc1xgdze.s:6068   .debug_str:0000000000000e7b .LASF235
C:\Users\marwz\AppData\Local\Temp\cc1xgdze.s:6082   .debug_str:0000000000000ec6 .LASF236
C:\Users\marwz\AppData\Local\Temp\cc1xgdze.s:5910   .debug_str:0000000000000af0 .LASF237
C:\Users\marwz\AppData\Local\Temp\cc1xgdze.s:5948   .debug_str:0000000000000bfb .LASF238
C:\Users\marwz\AppData\Local\Temp\cc1xgdze.s:6142   .debug_str:0000000000000fd9 .LASF239
C:\Users\marwz\AppData\Local\Temp\cc1xgdze.s:5574   .debug_str:000000000000034e .LASF240
C:\Users\marwz\AppData\Local\Temp\cc1xgdze.s:6094   .debug_str:0000000000000ef7 .LASF241
C:\Users\marwz\AppData\Local\Temp\cc1xgdze.s:6210   .debug_str:000000000000115f .LASF242
C:\Users\marwz\AppData\Local\Temp\cc1xgdze.s:6010   .debug_str:0000000000000d53 .LASF243
C:\Users\marwz\AppData\Local\Temp\cc1xgdze.s:5464   .debug_str:000000000000005b .LASF244
C:\Users\marwz\AppData\Local\Temp\cc1xgdze.s:5588   .debug_str:00000000000003a7 .LASF245
C:\Users\marwz\AppData\Local\Temp\cc1xgdze.s:6012   .debug_str:0000000000000d5b .LASF246
GAS LISTING C:\Users\marwz\AppData\Local\Temp\cc1xgdze.s 			page 14


C:\Users\marwz\AppData\Local\Temp\cc1xgdze.s:5978   .debug_str:0000000000000c8c .LASF247
C:\Users\marwz\AppData\Local\Temp\cc1xgdze.s:5470   .debug_str:0000000000000080 .LASF248
C:\Users\marwz\AppData\Local\Temp\cc1xgdze.s:6078   .debug_str:0000000000000eb0 .LASF249
C:\Users\marwz\AppData\Local\Temp\cc1xgdze.s:6186   .debug_str:00000000000010cf .LASF250
C:\Users\marwz\AppData\Local\Temp\cc1xgdze.s:5820   .debug_str:00000000000008bc .LASF251
C:\Users\marwz\AppData\Local\Temp\cc1xgdze.s:6066   .debug_str:0000000000000e72 .LASF252
C:\Users\marwz\AppData\Local\Temp\cc1xgdze.s:5836   .debug_str:0000000000000915 .LASF253
C:\Users\marwz\AppData\Local\Temp\cc1xgdze.s:6096   .debug_str:0000000000000efe .LASF254
C:\Users\marwz\AppData\Local\Temp\cc1xgdze.s:5840   .debug_str:0000000000000927 .LASF255
C:\Users\marwz\AppData\Local\Temp\cc1xgdze.s:5908   .debug_str:0000000000000aea .LASF256
C:\Users\marwz\AppData\Local\Temp\cc1xgdze.s:5758   .debug_str:0000000000000758 .LASF257
C:\Users\marwz\AppData\Local\Temp\cc1xgdze.s:5510   .debug_str:0000000000000168 .LASF258
C:\Users\marwz\AppData\Local\Temp\cc1xgdze.s:5516   .debug_str:000000000000017f .LASF259
C:\Users\marwz\AppData\Local\Temp\cc1xgdze.s:6260   .debug_str:000000000000126a .LASF260
C:\Users\marwz\AppData\Local\Temp\cc1xgdze.s:6220   .debug_str:0000000000001190 .LASF261
C:\Users\marwz\AppData\Local\Temp\cc1xgdze.s:5778   .debug_str:00000000000007b7 .LASF262
C:\Users\marwz\AppData\Local\Temp\cc1xgdze.s:5628   .debug_str:0000000000000482 .LASF263
C:\Users\marwz\AppData\Local\Temp\cc1xgdze.s:6146   .debug_str:0000000000000fed .LASF264
C:\Users\marwz\AppData\Local\Temp\cc1xgdze.s:5988   .debug_str:0000000000000ce4 .LASF265
C:\Users\marwz\AppData\Local\Temp\cc1xgdze.s:5992   .debug_str:0000000000000cfa .LASF266
C:\Users\marwz\AppData\Local\Temp\cc1xgdze.s:6246   .debug_str:000000000000121d .LASF267
C:\Users\marwz\AppData\Local\Temp\cc1xgdze.s:5586   .debug_str:0000000000000399 .LASF268
C:\Users\marwz\AppData\Local\Temp\cc1xgdze.s:5548   .debug_str:0000000000000249 .LASF269
C:\Users\marwz\AppData\Local\Temp\cc1xgdze.s:6034   .debug_str:0000000000000dd2 .LASF270
C:\Users\marwz\AppData\Local\Temp\cc1xgdze.s:6140   .debug_str:0000000000000fd0 .LASF271
C:\Users\marwz\AppData\Local\Temp\cc1xgdze.s:6168   .debug_str:000000000000104f .LASF272
C:\Users\marwz\AppData\Local\Temp\cc1xgdze.s:5972   .debug_str:0000000000000c70 .LASF273
C:\Users\marwz\AppData\Local\Temp\cc1xgdze.s:6162   .debug_str:000000000000103c .LASF274
C:\Users\marwz\AppData\Local\Temp\cc1xgdze.s:5718   .debug_str:000000000000068f .LASF275
C:\Users\marwz\AppData\Local\Temp\cc1xgdze.s:6164   .debug_str:0000000000001041 .LASF276
C:\Users\marwz\AppData\Local\Temp\cc1xgdze.s:6064   .debug_str:0000000000000e6c .LASF277
C:\Users\marwz\AppData\Local\Temp\cc1xgdze.s:5608   .debug_str:000000000000040a .LASF278
C:\Users\marwz\AppData\Local\Temp\cc1xgdze.s:5804   .debug_str:000000000000086a .LASF279
C:\Users\marwz\AppData\Local\Temp\cc1xgdze.s:5968   .debug_str:0000000000000c64 .LASF280
C:\Users\marwz\AppData\Local\Temp\cc1xgdze.s:5584   .debug_str:0000000000000393 .LASF281
C:\Users\marwz\AppData\Local\Temp\cc1xgdze.s:6158   .debug_str:000000000000102e .LASF282
C:\Users\marwz\AppData\Local\Temp\cc1xgdze.s:5754   .debug_str:0000000000000748 .LASF283
C:\Users\marwz\AppData\Local\Temp\cc1xgdze.s:5480   .debug_str:00000000000000a9 .LASF284
C:\Users\marwz\AppData\Local\Temp\cc1xgdze.s:5486   .debug_str:00000000000000df .LASF285
C:\Users\marwz\AppData\Local\Temp\cc1xgdze.s:6006   .debug_str:0000000000000d3f .LASF286
C:\Users\marwz\AppData\Local\Temp\cc1xgdze.s:5720   .debug_str:0000000000000694 .LASF287
C:\Users\marwz\AppData\Local\Temp\cc1xgdze.s:5952   .debug_str:0000000000000c0b .LASF288
C:\Users\marwz\AppData\Local\Temp\cc1xgdze.s:5514   .debug_str:0000000000000179 .LASF289
C:\Users\marwz\AppData\Local\Temp\cc1xgdze.s:6044   .debug_str:0000000000000e08 .LASF290
C:\Users\marwz\AppData\Local\Temp\cc1xgdze.s:5772   .debug_str:000000000000079c .LASF291
C:\Users\marwz\AppData\Local\Temp\cc1xgdze.s:6100   .debug_str:0000000000000f0c .LASF292
C:\Users\marwz\AppData\Local\Temp\cc1xgdze.s:5550   .debug_str:0000000000000251 .LASF293
C:\Users\marwz\AppData\Local\Temp\cc1xgdze.s:5960   .debug_str:0000000000000c38 .LASF294
C:\Users\marwz\AppData\Local\Temp\cc1xgdze.s:5808   .debug_str:000000000000087d .LASF295
C:\Users\marwz\AppData\Local\Temp\cc1xgdze.s:5558   .debug_str:00000000000002ee .LASF296
C:\Users\marwz\AppData\Local\Temp\cc1xgdze.s:5826   .debug_str:00000000000008de .LASF297
C:\Users\marwz\AppData\Local\Temp\cc1xgdze.s:5730   .debug_str:00000000000006ca .LASF298
C:\Users\marwz\AppData\Local\Temp\cc1xgdze.s:6040   .debug_str:0000000000000deb .LASF299
C:\Users\marwz\AppData\Local\Temp\cc1xgdze.s:5956   .debug_str:0000000000000c22 .LASF300
C:\Users\marwz\AppData\Local\Temp\cc1xgdze.s:6160   .debug_str:0000000000001037 .LASF301
C:\Users\marwz\AppData\Local\Temp\cc1xgdze.s:5856   .debug_str:00000000000009de .LASF302
C:\Users\marwz\AppData\Local\Temp\cc1xgdze.s:6248   .debug_str:0000000000001228 .LASF303
GAS LISTING C:\Users\marwz\AppData\Local\Temp\cc1xgdze.s 			page 15


C:\Users\marwz\AppData\Local\Temp\cc1xgdze.s:6184   .debug_str:00000000000010c7 .LASF304
C:\Users\marwz\AppData\Local\Temp\cc1xgdze.s:5806   .debug_str:0000000000000872 .LASF305
C:\Users\marwz\AppData\Local\Temp\cc1xgdze.s:5936   .debug_str:0000000000000ba0 .LASF306
C:\Users\marwz\AppData\Local\Temp\cc1xgdze.s:6198   .debug_str:000000000000110e .LASF307
C:\Users\marwz\AppData\Local\Temp\cc1xgdze.s:5606   .debug_str:0000000000000400 .LASF308
C:\Users\marwz\AppData\Local\Temp\cc1xgdze.s:5794   .debug_str:000000000000081f .LASF309
C:\Users\marwz\AppData\Local\Temp\cc1xgdze.s:5900   .debug_str:0000000000000ac6 .LASF310
C:\Users\marwz\AppData\Local\Temp\cc1xgdze.s:5496   .debug_str:0000000000000117 .LASF311
C:\Users\marwz\AppData\Local\Temp\cc1xgdze.s:5776   .debug_str:00000000000007af .LASF312
C:\Users\marwz\AppData\Local\Temp\cc1xgdze.s:5950   .debug_str:0000000000000c06 .LASF313
C:\Users\marwz\AppData\Local\Temp\cc1xgdze.s:5848   .debug_str:00000000000009b5 .LASF314
C:\Users\marwz\AppData\Local\Temp\cc1xgdze.s:5766   .debug_str:0000000000000779 .LASF315
C:\Users\marwz\AppData\Local\Temp\cc1xgdze.s:5882   .debug_str:0000000000000a62 .LASF316
C:\Users\marwz\AppData\Local\Temp\cc1xgdze.s:5476   .debug_str:000000000000009c .LASF317
C:\Users\marwz\AppData\Local\Temp\cc1xgdze.s:5712   .debug_str:0000000000000666 .LASF318
C:\Users\marwz\AppData\Local\Temp\cc1xgdze.s:6070   .debug_str:0000000000000e86 .LASF319
C:\Users\marwz\AppData\Local\Temp\cc1xgdze.s:5906   .debug_str:0000000000000ae4 .LASF320
C:\Users\marwz\AppData\Local\Temp\cc1xgdze.s:5876   .debug_str:0000000000000a44 .LASF321
C:\Users\marwz\AppData\Local\Temp\cc1xgdze.s:5902   .debug_str:0000000000000ad0 .LASF322
C:\Users\marwz\AppData\Local\Temp\cc1xgdze.s:6038   .debug_str:0000000000000de3 .LASF323
C:\Users\marwz\AppData\Local\Temp\cc1xgdze.s:6002   .debug_str:0000000000000d2e .LASF324
C:\Users\marwz\AppData\Local\Temp\cc1xgdze.s:5556   .debug_str:00000000000002e8 .LASF325
C:\Users\marwz\AppData\Local\Temp\cc1xgdze.s:6212   .debug_str:0000000000001166 .LASF326
C:\Users\marwz\AppData\Local\Temp\cc1xgdze.s:5648   .debug_str:00000000000004fc .LASF327
C:\Users\marwz\AppData\Local\Temp\cc1xgdze.s:6056   .debug_str:0000000000000e3d .LASF328
C:\Users\marwz\AppData\Local\Temp\cc1xgdze.s:5494   .debug_str:000000000000010a .LASF329
C:\Users\marwz\AppData\Local\Temp\cc1xgdze.s:5618   .debug_str:0000000000000454 .LASF330
C:\Users\marwz\AppData\Local\Temp\cc1xgdze.s:5894   .debug_str:0000000000000aa3 .LASF331
C:\Users\marwz\AppData\Local\Temp\cc1xgdze.s:5964   .debug_str:0000000000000c50 .LASF332
C:\Users\marwz\AppData\Local\Temp\cc1xgdze.s:6086   .debug_str:0000000000000edb .LASF333
C:\Users\marwz\AppData\Local\Temp\cc1xgdze.s:6128   .debug_str:0000000000000f90 .LASF334
C:\Users\marwz\AppData\Local\Temp\cc1xgdze.s:6018   .debug_str:0000000000000d76 .LASF335
C:\Users\marwz\AppData\Local\Temp\cc1xgdze.s:5958   .debug_str:0000000000000c2a .LASF336
C:\Users\marwz\AppData\Local\Temp\cc1xgdze.s:6014   .debug_str:0000000000000d62 .LASF337
C:\Users\marwz\AppData\Local\Temp\cc1xgdze.s:5830   .debug_str:00000000000008f5 .LASF338
C:\Users\marwz\AppData\Local\Temp\cc1xgdze.s:6262   .debug_str:0000000000001273 .LASF339
C:\Users\marwz\AppData\Local\Temp\cc1xgdze.s:5598   .debug_str:00000000000003d7 .LASF340
C:\Users\marwz\AppData\Local\Temp\cc1xgdze.s:6060   .debug_str:0000000000000e54 .LASF341
C:\Users\marwz\AppData\Local\Temp\cc1xgdze.s:6228   .debug_str:00000000000011bc .LASF342
C:\Users\marwz\AppData\Local\Temp\cc1xgdze.s:6244   .debug_str:000000000000120e .LASF343
C:\Users\marwz\AppData\Local\Temp\cc1xgdze.s:5916   .debug_str:0000000000000b1b .LASF344
C:\Users\marwz\AppData\Local\Temp\cc1xgdze.s:5722   .debug_str:000000000000069b .LASF345
C:\Users\marwz\AppData\Local\Temp\cc1xgdze.s:6174   .debug_str:000000000000106d .LASF346
C:\Users\marwz\AppData\Local\Temp\cc1xgdze.s:5886   .debug_str:0000000000000a77 .LASF347
C:\Users\marwz\AppData\Local\Temp\cc1xgdze.s:5508   .debug_str:0000000000000160 .LASF348
C:\Users\marwz\AppData\Local\Temp\cc1xgdze.s:5468   .debug_str:0000000000000075 .LASF404
C:\Users\marwz\AppData\Local\Temp\cc1xgdze.s:5602   .debug_str:00000000000003ee .LASF349
C:\Users\marwz\AppData\Local\Temp\cc1xgdze.s:5982   .debug_str:0000000000000cb7 .LASF350
C:\Users\marwz\AppData\Local\Temp\cc1xgdze.s:5686   .debug_str:00000000000005d7 .LASF351
C:\Users\marwz\AppData\Local\Temp\cc1xgdze.s:6250   .debug_str:0000000000001241 .LASF352
C:\Users\marwz\AppData\Local\Temp\cc1xgdze.s:6176   .debug_str:0000000000001074 .LASF353
C:\Users\marwz\AppData\Local\Temp\cc1xgdze.s:5658   .debug_str:000000000000054a .LASF354
C:\Users\marwz\AppData\Local\Temp\cc1xgdze.s:5680   .debug_str:00000000000005ba .LASF355
C:\Users\marwz\AppData\Local\Temp\cc1xgdze.s:5534   .debug_str:00000000000001db .LASF356
C:\Users\marwz\AppData\Local\Temp\cc1xgdze.s:5980   .debug_str:0000000000000c94 .LASF357
C:\Users\marwz\AppData\Local\Temp\cc1xgdze.s:6182   .debug_str:00000000000010b6 .LASF358
C:\Users\marwz\AppData\Local\Temp\cc1xgdze.s:5728   .debug_str:00000000000006b9 .LASF359
GAS LISTING C:\Users\marwz\AppData\Local\Temp\cc1xgdze.s 			page 16


C:\Users\marwz\AppData\Local\Temp\cc1xgdze.s:5656   .debug_str:0000000000000525 .LASF360
C:\Users\marwz\AppData\Local\Temp\cc1xgdze.s:5616   .debug_str:000000000000043d .LASF361
C:\Users\marwz\AppData\Local\Temp\cc1xgdze.s:6156   .debug_str:000000000000101a .LASF362
C:\Users\marwz\AppData\Local\Temp\cc1xgdze.s:5630   .debug_str:000000000000048b .LASF363
C:\Users\marwz\AppData\Local\Temp\cc1xgdze.s:5780   .debug_str:00000000000007c1 .LASF364
C:\Users\marwz\AppData\Local\Temp\cc1xgdze.s:5560   .debug_str:00000000000002f5 .LASF365
C:\Users\marwz\AppData\Local\Temp\cc1xgdze.s:5504   .debug_str:000000000000013c .LASF366
C:\Users\marwz\AppData\Local\Temp\cc1xgdze.s:5706   .debug_str:0000000000000639 .LASF367
C:\Users\marwz\AppData\Local\Temp\cc1xgdze.s:5912   .debug_str:0000000000000af8 .LASF368
C:\Users\marwz\AppData\Local\Temp\cc1xgdze.s:5462   .debug_str:0000000000000042 .LASF369
C:\Users\marwz\AppData\Local\Temp\cc1xgdze.s:5482   .debug_str:00000000000000af .LASF370
C:\Users\marwz\AppData\Local\Temp\cc1xgdze.s:6170   .debug_str:0000000000001057 .LASF371
C:\Users\marwz\AppData\Local\Temp\cc1xgdze.s:6178   .debug_str:000000000000109a .LASF372
C:\Users\marwz\AppData\Local\Temp\cc1xgdze.s:5614   .debug_str:0000000000000424 .LASF373
C:\Users\marwz\AppData\Local\Temp\cc1xgdze.s:5488   .debug_str:00000000000000e6 .LASF374
C:\Users\marwz\AppData\Local\Temp\cc1xgdze.s:5824   .debug_str:00000000000008d4 .LASF375
C:\Users\marwz\AppData\Local\Temp\cc1xgdze.s:5898   .debug_str:0000000000000aba .LASF376
C:\Users\marwz\AppData\Local\Temp\cc1xgdze.s:5536   .debug_str:0000000000000209 .LASF377
C:\Users\marwz\AppData\Local\Temp\cc1xgdze.s:5784   .debug_str:00000000000007e2 .LASF378
C:\Users\marwz\AppData\Local\Temp\cc1xgdze.s:5880   .debug_str:0000000000000a56 .LASF379
C:\Users\marwz\AppData\Local\Temp\cc1xgdze.s:5970   .debug_str:0000000000000c6b .LASF380
C:\Users\marwz\AppData\Local\Temp\cc1xgdze.s:5702   .debug_str:000000000000062d .LASF381
C:\Users\marwz\AppData\Local\Temp\cc1xgdze.s:5954   .debug_str:0000000000000c11 .LASF382
C:\Users\marwz\AppData\Local\Temp\cc1xgdze.s:5624   .debug_str:0000000000000475 .LASF405
C:\Users\marwz\AppData\Local\Temp\cc1xgdze.s:14     .text.startup.main:0000000000000000 .LFB7
C:\Users\marwz\AppData\Local\Temp\cc1xgdze.s:211    .text.startup.main:000000000000011c .LFE7
C:\Users\marwz\AppData\Local\Temp\cc1xgdze.s:5284   .debug_loc:0000000000000000 .LLST0
C:\Users\marwz\AppData\Local\Temp\cc1xgdze.s:6230   .debug_str:00000000000011cd .LASF383
C:\Users\marwz\AppData\Local\Temp\cc1xgdze.s:5297   .debug_loc:0000000000000021 .LLST1
C:\Users\marwz\AppData\Local\Temp\cc1xgdze.s:6180   .debug_str:00000000000010ac .LASF384
C:\Users\marwz\AppData\Local\Temp\cc1xgdze.s:6072   .debug_str:0000000000000e8d .LASF385
C:\Users\marwz\AppData\Local\Temp\cc1xgdze.s:5312   .debug_loc:0000000000000051 .LLST3
C:\Users\marwz\AppData\Local\Temp\cc1xgdze.s:5920   .debug_str:0000000000000b36 .LASF386
C:\Users\marwz\AppData\Local\Temp\cc1xgdze.s:5338   .debug_loc:000000000000008c .LLST4
C:\Users\marwz\AppData\Local\Temp\cc1xgdze.s:5704   .debug_str:0000000000000633 .LASF389
C:\Users\marwz\AppData\Local\Temp\cc1xgdze.s:5816   .debug_str:00000000000008ab .LASF387
C:\Users\marwz\AppData\Local\Temp\cc1xgdze.s:5918   .debug_str:0000000000000b2c .LASF388
C:\Users\marwz\AppData\Local\Temp\cc1xgdze.s:5790   .debug_str:0000000000000804 .LASF390
C:\Users\marwz\AppData\Local\Temp\cc1xgdze.s:5397   .debug_loc:00000000000000f8 .LLST5
C:\Users\marwz\AppData\Local\Temp\cc1xgdze.s:38     .text.startup.main:0000000000000012 .LVL1
C:\Users\marwz\AppData\Local\Temp\cc1xgdze.s:108    .text.startup.main:0000000000000054 .LVL7
C:\Users\marwz\AppData\Local\Temp\cc1xgdze.s:113    .text.startup.main:000000000000005c .LVL8
C:\Users\marwz\AppData\Local\Temp\cc1xgdze.s:119    .text.startup.main:000000000000006a .LVL9
C:\Users\marwz\AppData\Local\Temp\cc1xgdze.s:124    .text.startup.main:000000000000007a .LVL10
C:\Users\marwz\AppData\Local\Temp\cc1xgdze.s:128    .text.startup.main:0000000000000086 .LVL11
C:\Users\marwz\AppData\Local\Temp\cc1xgdze.s:134    .text.startup.main:0000000000000094 .LVL12
C:\Users\marwz\AppData\Local\Temp\cc1xgdze.s:139    .text.startup.main:00000000000000a2 .LVL13
C:\Users\marwz\AppData\Local\Temp\cc1xgdze.s:143    .text.startup.main:00000000000000ae .LVL14
C:\Users\marwz\AppData\Local\Temp\cc1xgdze.s:153    .text.startup.main:00000000000000c2 .LVL15
C:\Users\marwz\AppData\Local\Temp\cc1xgdze.s:165    .text.startup.main:00000000000000d2 .LVL17
C:\Users\marwz\AppData\Local\Temp\cc1xgdze.s:172    .text.startup.main:00000000000000e0 .LVL18
C:\Users\marwz\AppData\Local\Temp\cc1xgdze.s:176    .text.startup.main:00000000000000e8 .LVL19
C:\Users\marwz\AppData\Local\Temp\cc1xgdze.s:193    .text.startup.main:0000000000000100 .LVL22
C:\Users\marwz\AppData\Local\Temp\cc1xgdze.s:197    .text.startup.main:000000000000010a .LVL23
C:\Users\marwz\AppData\Local\Temp\cc1xgdze.s:208    .text.startup.main:000000000000011a .LVL26
C:\Users\marwz\AppData\Local\Temp\cc1xgdze.s:5938   .debug_str:0000000000000baa .LASF391
C:\Users\marwz\AppData\Local\Temp\cc1xgdze.s:5734   .debug_str:00000000000006e1 .LASF392
GAS LISTING C:\Users\marwz\AppData\Local\Temp\cc1xgdze.s 			page 17


C:\Users\marwz\AppData\Local\Temp\cc1xgdze.s:6042   .debug_str:0000000000000df3 .LASF393
C:\Users\marwz\AppData\Local\Temp\cc1xgdze.s:5638   .debug_str:00000000000004cc .LASF394
C:\Users\marwz\AppData\Local\Temp\cc1xgdze.s:5750   .debug_str:0000000000000737 .LASF395
C:\Users\marwz\AppData\Local\Temp\cc1xgdze.s:6166   .debug_str:0000000000001048 .LASF406
C:\Users\marwz\AppData\Local\Temp\cc1xgdze.s:5570   .debug_str:0000000000000335 .LASF407
C:\Users\marwz\AppData\Local\Temp\cc1xgdze.s:5944   .debug_str:0000000000000bcb .LASF396
C:\Users\marwz\AppData\Local\Temp\cc1xgdze.s:6204   .debug_str:000000000000112b .LASF397
C:\Users\marwz\AppData\Local\Temp\cc1xgdze.s:5562   .debug_str:0000000000000308 .LASF398
C:\Users\marwz\AppData\Local\Temp\cc1xgdze.s:6254   .debug_str:000000000000124f .LASF399
C:\Users\marwz\AppData\Local\Temp\cc1xgdze.s:6256   .debug_str:000000000000125b .LASF400
C:\Users\marwz\AppData\Local\Temp\cc1xgdze.s:26     .text.startup.main:0000000000000002 .LCFI0
C:\Users\marwz\AppData\Local\Temp\cc1xgdze.s:19     .text.startup.main:0000000000000000 .LVL0
C:\Users\marwz\AppData\Local\Temp\cc1xgdze.s:158    .text.startup.main:00000000000000c6 .LVL16
C:\Users\marwz\AppData\Local\Temp\cc1xgdze.s:203    .text.startup.main:000000000000010e .LVL25
C:\Users\marwz\AppData\Local\Temp\cc1xgdze.s:186    .text.startup.main:00000000000000f6 .LVL20
C:\Users\marwz\AppData\Local\Temp\cc1xgdze.s:200    .text.startup.main:000000000000010c .LVL24
C:\Users\marwz\AppData\Local\Temp\cc1xgdze.s:191    .text.startup.main:00000000000000f8 .LVL21
C:\Users\marwz\AppData\Local\Temp\cc1xgdze.s:77     .text.startup.main:0000000000000042 .LVL2
C:\Users\marwz\AppData\Local\Temp\cc1xgdze.s:82     .text.startup.main:0000000000000044 .LVL3
C:\Users\marwz\AppData\Local\Temp\cc1xgdze.s:87     .text.startup.main:0000000000000046 .LVL4
C:\Users\marwz\AppData\Local\Temp\cc1xgdze.s:92     .text.startup.main:0000000000000048 .LVL5
C:\Users\marwz\AppData\Local\Temp\cc1xgdze.s:97     .text.startup.main:000000000000004a .LVL6
C:\Users\marwz\AppData\Local\Temp\cc1xgdze.s:244    .debug_info:0000000000000000 .Ldebug_info0
C:\Users\marwz\AppData\Local\Temp\cc1xgdze.s:50     .text.startup.main:0000000000000020 .LBB2
C:\Users\marwz\AppData\Local\Temp\cc1xgdze.s:56     .text.startup.main:0000000000000028 .LBE2
C:\Users\marwz\AppData\Local\Temp\cc1xgdze.s:75     .text.startup.main:0000000000000042 .LBB3
C:\Users\marwz\AppData\Local\Temp\cc1xgdze.s:98     .text.startup.main:000000000000004a .LBE3

UNDEFINED SYMBOLS
get_timer_value
configure_usb_serial
usb_serial_available
usb_delay_1ms
printf
memcpy
cs1237_port_initialize_pins
cs1237_sample_rate_and_gain
cs1237_data_ready
cs1237_read
fflush
