GAS LISTING C:\Users\marwz\AppData\Local\Temp\cc1xgdze.s 			page 1


   1              		.file	"main.c"
   2              		.option nopic
   3              		.attribute arch, "rv32i2p0_m2p0_a2p0_c2p0"
   4              		.attribute unaligned_access, 0
   5              		.attribute stack_align, 16
   6              		.text
   7              	.Ltext0:
   8              		.cfi_sections	.debug_frame
   9              		.section	.text.startup.main,"ax",@progbits
  10              		.align	1
  11              		.globl	main
  13              	main:
  14              	.LFB7:
  15              		.file 1 "main.c"
   1:main.c        **** #include "gd32vf103.h"
   2:main.c        **** //USB includes
   3:main.c        **** #include "usb_serial_if.h"
   4:main.c        **** #include "usb_delay.h"
   5:main.c        **** 
   6:main.c        **** //ADC includes
   7:main.c        **** #include "cs1237.h"
   8:main.c        **** #include "cs1237_port.h"
   9:main.c        **** 
  10:main.c        **** //Utils
  11:main.c        **** #include <stdlib.h>
  12:main.c        **** #include <string.h>
  13:main.c        **** 
  14:main.c        **** //Need to be defined for usning USB-printf
  15:main.c        **** #define USE_USB
  16:main.c        **** #define USE_USB_PRINTF
  17:main.c        **** 
  18:main.c        **** //How many ADCs that will be used
  19:main.c        **** #define N_ADCS 4
  20:main.c        **** 
  21:main.c        **** int main(void)
  22:main.c        **** {
  16              		.loc 1 22 1
  17              		.cfi_startproc
  23:main.c        ****     //Timekeeping for performance metrics
  24:main.c        ****     uint64_t time = 0;
  18              		.loc 1 24 5
  19              	.LVL0:
  25:main.c        ****     uint64_t last_time = 0;
  20              		.loc 1 25 5
  26:main.c        ****     uint32_t delta_time = 0;
  21              		.loc 1 26 5
  27:main.c        ****     uint64_t delta_seconds = 0;
  22              		.loc 1 27 5
  28:main.c        ****     uint64_t time0 = get_timer_value();
  23              		.loc 1 28 5
  22:main.c        ****     //Timekeeping for performance metrics
  24              		.loc 1 22 1 is_stmt 0
  25 0000 3571     		addi	sp,sp,-160
  26              	.LCFI0:
  27              		.cfi_def_cfa_offset 160
  28 0002 06CF     		sw	ra,156(sp)
  29 0004 22CD     		sw	s0,152(sp)
GAS LISTING C:\Users\marwz\AppData\Local\Temp\cc1xgdze.s 			page 2


  30 0006 26CB     		sw	s1,148(sp)
  31 0008 4AC9     		sw	s2,144(sp)
  32              		.cfi_offset 1, -4
  33              		.cfi_offset 8, -8
  34              		.cfi_offset 9, -12
  35              		.cfi_offset 18, -16
  36              		.loc 1 28 22
  37 000a 97000000 		call	get_timer_value
  37      E7800000 
  38              	.LVL1:
  29:main.c        **** 
  30:main.c        ****     //Pin assignments for CS1237 chips, clock pin is shared by all chips
  31:main.c        ****     cs1237_channel_t clock_pin;
  39              		.loc 1 31 5 is_stmt 1
  32:main.c        ****     clock_pin.pin = GPIO_PIN_0;
  40              		.loc 1 32 5
  41              		.loc 1 32 19 is_stmt 0
  42 0012 8547     		li	a5,1
  43 0014 3ED6     		sw	a5,44(sp)
  33:main.c        ****     clock_pin.port = GPIOB;
  44              		.loc 1 33 5 is_stmt 1
  45              		.loc 1 33 20 is_stmt 0
  46 0016 B7170140 		li	a5,1073811456
  47 001a 938707C0 		addi	a5,a5,-1024
  48 001e 3ED8     		sw	a5,48(sp)
  34:main.c        ****     clock_pin.rcu = RCU_GPIOB;
  49              		.loc 1 34 5 is_stmt 1
  50              	.LBB2:
  35:main.c        **** 
  36:main.c        ****     //Data pin assignments, one for each chip in use
  37:main.c        ****     cs1237_channel_t data_pins[N_ADCS];
  38:main.c        ****     //All pins are on the same port, but does not have to be
  39:main.c        ****     for(int i = 0; i < N_ADCS; i++){
  40:main.c        ****         data_pins[i].port = GPIOB;
  51              		.loc 1 40 27 is_stmt 0
  52 0020 BEC2     		sw	a5,68(sp)
  53 0022 BECC     		sw	a5,88(sp)
  54 0024 BED6     		sw	a5,108(sp)
  55 0026 3EC1     		sw	a5,128(sp)
  56              	.LBE2:
  41:main.c        ****         data_pins[i].rcu = RCU_GPIOB;
  42:main.c        ****     }
  43:main.c        ****     //One data pin for each ADC
  44:main.c        ****     data_pins[0].pin = GPIO_PIN_1;
  57              		.loc 1 44 22
  58 0028 8947     		li	a5,2
  59 002a BEC0     		sw	a5,64(sp)
  45:main.c        ****     data_pins[1].pin = GPIO_PIN_7;
  60              		.loc 1 45 22
  61 002c 93070008 		li	a5,128
  62 0030 BECA     		sw	a5,84(sp)
  46:main.c        ****     data_pins[2].pin = GPIO_PIN_8;
  63              		.loc 1 46 22
  64 0032 93070010 		li	a5,256
  34:main.c        **** 
  65              		.loc 1 34 19
  66 0036 13073060 		li	a4,1539
GAS LISTING C:\Users\marwz\AppData\Local\Temp\cc1xgdze.s 			page 3


  67              		.loc 1 46 22
  68 003a BED4     		sw	a5,104(sp)
  47:main.c        ****     data_pins[3].pin = GPIO_PIN_9;
  69              		.loc 1 47 22
  70 003c 93070020 		li	a5,512
  34:main.c        **** 
  71              		.loc 1 34 19
  72 0040 3ADA     		sw	a4,52(sp)
  37:main.c        ****     //All pins are on the same port, but does not have to be
  73              		.loc 1 37 5 is_stmt 1
  39:main.c        ****         data_pins[i].port = GPIOB;
  74              		.loc 1 39 5
  75              	.LBB3:
  39:main.c        ****         data_pins[i].port = GPIOB;
  76              		.loc 1 39 9
  77              	.LVL2:
  40:main.c        ****         data_pins[i].rcu = RCU_GPIOB;
  78              		.loc 1 40 9
  41:main.c        ****     }
  79              		.loc 1 41 9
  41:main.c        ****     }
  80              		.loc 1 41 26 is_stmt 0
  81 0042 BAC4     		sw	a4,72(sp)
  82              	.LVL3:
  40:main.c        ****         data_pins[i].rcu = RCU_GPIOB;
  83              		.loc 1 40 9 is_stmt 1
  41:main.c        ****     }
  84              		.loc 1 41 9
  41:main.c        ****     }
  85              		.loc 1 41 26 is_stmt 0
  86 0044 BACE     		sw	a4,92(sp)
  87              	.LVL4:
  40:main.c        ****         data_pins[i].rcu = RCU_GPIOB;
  88              		.loc 1 40 9 is_stmt 1
  41:main.c        ****     }
  89              		.loc 1 41 9
  41:main.c        ****     }
  90              		.loc 1 41 26 is_stmt 0
  91 0046 BAD8     		sw	a4,112(sp)
  92              	.LVL5:
  40:main.c        ****         data_pins[i].rcu = RCU_GPIOB;
  93              		.loc 1 40 9 is_stmt 1
  41:main.c        ****     }
  94              		.loc 1 41 9
  41:main.c        ****     }
  95              		.loc 1 41 26 is_stmt 0
  96 0048 3AC3     		sw	a4,132(sp)
  97              	.LVL6:
  98              	.LBE3:
  44:main.c        ****     data_pins[1].pin = GPIO_PIN_7;
  99              		.loc 1 44 5 is_stmt 1
  45:main.c        ****     data_pins[2].pin = GPIO_PIN_8;
 100              		.loc 1 45 5
  46:main.c        ****     data_pins[3].pin = GPIO_PIN_9;
 101              		.loc 1 46 5
 102              		.loc 1 47 5
 103              		.loc 1 47 22 is_stmt 0
GAS LISTING C:\Users\marwz\AppData\Local\Temp\cc1xgdze.s 			page 4


 104 004a BEDE     		sw	a5,124(sp)
  48:main.c        **** 
  49:main.c        ****     //USB setup, puts out a virtual COM port, once setup printf() is available for sending over USB
  50:main.c        ****     uint8_t usb_data_buffer[512] = {0};
 105              		.loc 1 50 5 is_stmt 1
  51:main.c        ****     configure_usb_serial();
 106              		.loc 1 51 5
 107 004c 97000000 		call	configure_usb_serial
 107      E7800000 
 108              	.LVL7:
  52:main.c        **** 	while(!usb_serial_available())usb_delay_1ms(100);
 109              		.loc 1 52 2
 110              	.L2:
 111              		.loc 1 52 9 is_stmt 0 discriminator 1
 112 0054 97000000 		call	usb_serial_available
 112      E7800000 
 113              	.LVL8:
 114              		.loc 1 52 7 discriminator 1
 115 005c 4DC9     		beq	a0,zero,.L3
  53:main.c        **** 	usb_delay_1ms(1000);
 116              		.loc 1 53 2 is_stmt 1
 117 005e 1305803E 		li	a0,1000
 118 0062 97000000 		call	usb_delay_1ms
 118      E7800000 
 119              	.LVL9:
  54:main.c        ****     printf("USB connected...\r\n\r");
 120              		.loc 1 54 5
 121 006a 37040000 		lui	s0,%hi(.LANCHOR0)
 122 006e 13050400 		addi	a0,s0,%lo(.LANCHOR0)
 123 0072 97000000 		call	printf
 123      E7800000 
 124              	.LVL10:
  55:main.c        ****     usb_delay_1ms(1000);
 125              		.loc 1 55 5
 126 007a 1305803E 		li	a0,1000
 127 007e 97000000 		call	usb_delay_1ms
 127      E7800000 
 128              	.LVL11:
  56:main.c        **** 
  57:main.c        ****     //Initialize ADCs
  58:main.c        ****     cs1237_port_initialize_pins(N_ADCS, data_pins, clock_pin);
 129              		.loc 1 58 5
 130 0086 5146     		li	a2,20
 131 0088 6C10     		addi	a1,sp,44
 132 008a 0A85     		mv	a0,sp
 133 008c 97000000 		call	memcpy
 133      E7800000 
 134              	.LVL12:
 135 0094 0A86     		mv	a2,sp
 136 0096 8C00     		addi	a1,sp,64
 137 0098 1145     		li	a0,4
 138 009a 97000000 		call	cs1237_port_initialize_pins
 138      E7800000 
 139              	.LVL13:
  59:main.c        ****     usb_delay_1ms(100);
 140              		.loc 1 59 5
 141 00a2 13054006 		li	a0,100
GAS LISTING C:\Users\marwz\AppData\Local\Temp\cc1xgdze.s 			page 5


 142 00a6 97000000 		call	usb_delay_1ms
 142      E7800000 
 143              	.LVL14:
  60:main.c        **** 
  61:main.c        ****     //Configure samplerate and gain of the ADCs
  62:main.c        ****     //10, 40, 640 and 1280 SPS available
  63:main.c        ****     //Higher the SPS, higher it will be noise
  64:main.c        ****     //Same for gain, gain is useful for getting the wider range available
  65:main.c        ****     //1(0dB), 2(6dB), 64(36dB), 128(42dB) gain available
  66:main.c        ****     //Refer to datasheet for how each setting affects accuracy
  67:main.c        ****     cs1237_sample_rate_and_gain(CS1237_640SPS, CS1237_GAIN128, N_ADCS, data_pins);
 144              		.loc 1 67 5
 145 00ae 9400     		addi	a3,sp,64
 146 00b0 1146     		li	a2,4
 147 00b2 8D45     		li	a1,3
 148 00b4 0945     		li	a0,2
  68:main.c        ****     while(1){
  69:main.c        ****         //Wait for new data to be available, polled
  70:main.c        ****         while(!cs1237_data_ready(N_ADCS, data_pins));
  71:main.c        ****         //Read ADC samples (from all initialized ADCs)
  72:main.c        ****         cs1237_read(N_ADCS, data_pins);
  73:main.c        **** 
  74:main.c        ****         //Measure time between each sample (to measure jitter)
  75:main.c        ****         //delta time value in seconds is delta_time/24,000,000
  76:main.c        ****         //For sample rate in Hz => 1/delta_seconds
  77:main.c        ****         time = get_timer_value() ;
  78:main.c        ****         delta_time = time - last_time;
  79:main.c        ****         last_time = time;
  80:main.c        ****         delta_seconds = delta_time/24000;
  81:main.c        **** 
  82:main.c        ****         //Print measured data
  83:main.c        ****         printf("Time:%d,V1:%d,V2:%d,V3:%d,V4:%d\r\n\r", delta_time, data_pins[0].value, data_pins[1
 149              		.loc 1 83 9 is_stmt 0
 150 00b6 13040400 		addi	s0,s0,%lo(.LANCHOR0)
  67:main.c        ****     while(1){
 151              		.loc 1 67 5
 152 00ba 97000000 		call	cs1237_sample_rate_and_gain
 152      E7800000 
 153              	.LVL15:
  25:main.c        ****     uint32_t delta_time = 0;
 154              		.loc 1 25 14
 155 00c2 8144     		li	s1,0
 156              		.loc 1 83 9
 157 00c4 5104     		addi	s0,s0,20
 158              	.LVL16:
 159              	.L4:
  70:main.c        ****         //Read ADC samples (from all initialized ADCs)
 160              		.loc 1 70 53 is_stmt 1 discriminator 1
  70:main.c        ****         //Read ADC samples (from all initialized ADCs)
 161              		.loc 1 70 16 is_stmt 0 discriminator 1
 162 00c6 8C00     		addi	a1,sp,64
 163 00c8 1145     		li	a0,4
 164 00ca 97000000 		call	cs1237_data_ready
 164      E7800000 
 165              	.LVL17:
  70:main.c        ****         //Read ADC samples (from all initialized ADCs)
 166              		.loc 1 70 14 discriminator 1
GAS LISTING C:\Users\marwz\AppData\Local\Temp\cc1xgdze.s 			page 6


 167 00d2 75D9     		beq	a0,zero,.L4
  72:main.c        **** 
 168              		.loc 1 72 9 is_stmt 1
 169 00d4 8C00     		addi	a1,sp,64
 170 00d6 1145     		li	a0,4
 171 00d8 97000000 		call	cs1237_read
 171      E7800000 
 172              	.LVL18:
  77:main.c        ****         delta_time = time - last_time;
 173              		.loc 1 77 9
  77:main.c        ****         delta_time = time - last_time;
 174              		.loc 1 77 16 is_stmt 0
 175 00e0 97000000 		call	get_timer_value
 175      E7800000 
 176              	.LVL19:
 177              		.loc 1 83 9
 178 00e8 AA47     		lw	a5,136(sp)
 179 00ea 5657     		lw	a4,116(sp)
 180 00ec 8656     		lw	a3,96(sp)
 181 00ee 3646     		lw	a2,76(sp)
 182 00f0 B3059540 		sub	a1,a0,s1
  77:main.c        ****         delta_time = time - last_time;
 183              		.loc 1 77 16
 184 00f4 2A89     		mv	s2,a0
  78:main.c        ****         last_time = time;
 185              		.loc 1 78 9 is_stmt 1
 186              	.LVL20:
  79:main.c        ****         delta_seconds = delta_time/24000;
 187              		.loc 1 79 9
  80:main.c        **** 
 188              		.loc 1 80 9
 189              		.loc 1 83 9
 190 00f6 2285     		mv	a0,s0
 191              	.LVL21:
 192 00f8 97000000 		call	printf
 192      E7800000 
 193              	.LVL22:
  84:main.c        ****         fflush(0);
 194              		.loc 1 84 9
 195 0100 0145     		li	a0,0
 196 0102 97000000 		call	fflush
 196      E7800000 
 197              	.LVL23:
  79:main.c        ****         delta_seconds = delta_time/24000;
 198              		.loc 1 79 19 is_stmt 0
 199 010a CA84     		mv	s1,s2
 200              	.LVL24:
  70:main.c        ****         //Read ADC samples (from all initialized ADCs)
 201              		.loc 1 70 14
 202 010c 6DBF     		j	.L4
 203              	.LVL25:
 204              	.L3:
  52:main.c        **** 	usb_delay_1ms(1000);
 205              		.loc 1 52 32 is_stmt 1 discriminator 2
 206 010e 13054006 		li	a0,100
 207 0112 97000000 		call	usb_delay_1ms
 207      E7800000 
GAS LISTING C:\Users\marwz\AppData\Local\Temp\cc1xgdze.s 			page 7


 208              	.LVL26:
 209 011a 2DBF     		j	.L2
 210              		.cfi_endproc
 211              	.LFE7:
 213              		.section	.rodata
 214              		.align	2
 215              		.set	.LANCHOR0,. + 0
 216              	.LC0:
 217 0000 55534220 		.string	"USB connected...\r\n\r"
 217      636F6E6E 
 217      65637465 
 217      642E2E2E 
 217      0D0A0D00 
 218              	.LC1:
 219 0014 54696D65 		.string	"Time:%d,V1:%d,V2:%d,V3:%d,V4:%d\r\n\r"
 219      3A25642C 
 219      56313A25 
 219      642C5632 
 219      3A25642C 
 220              		.text
 221              	.Letext0:
 222              		.file 2 "c:\\users\\marwz\\documents\\github\\datafusion\\src\\pressure readings\\project\\toolcha
 223              		.file 3 "c:\\users\\marwz\\documents\\github\\datafusion\\src\\pressure readings\\project\\toolcha
 224              		.file 4 "lib/usbcdc/include/drv_usb_regs.h"
 225              		.file 5 "./../../firmware/GD32VF103_standard_peripheral/system_gd32vf103.h"
 226              		.file 6 "lib/usbcdc/include/usb_ch9_std.h"
 227              		.file 7 "lib/usbcdc/include/drv_usb_core.h"
 228              		.file 8 "lib/usbcdc/include/drv_usb_dev.h"
 229              		.file 9 "c:\\users\\marwz\\documents\\github\\datafusion\\src\\pressure readings\\project\\toolcha
 230              		.file 10 "c:\\users\\marwz\\documents\\github\\datafusion\\src\\pressure readings\\project\\toolch
 231              		.file 11 "c:\\users\\marwz\\documents\\github\\datafusion\\src\\pressure readings\\project\\toolch
 232              		.file 12 "c:\\users\\marwz\\documents\\github\\datafusion\\src\\pressure readings\\project\\toolch
 233              		.file 13 "lib/usbcdc/include/cdc_acm_core.h"
 234              		.file 14 "c:\\users\\marwz\\documents\\github\\datafusion\\src\\pressure readings\\project\\toolch
 235              		.file 15 "lib/usbcdc/include/usb_serial_if.h"
 236              		.file 16 "lib/cs1237/include/cs1237_port.h"
 237              		.file 17 "./../../firmware/RISCV/drivers/n200_func.h"
 238              		.file 18 "lib/usbcdc/include/usb_delay.h"
 239              		.file 19 "c:\\users\\marwz\\documents\\github\\datafusion\\src\\pressure readings\\project\\toolch
 240              		.file 20 "lib/cs1237/include/cs1237.h"
 241              		.file 21 "./../../firmware/GD32VF103_standard_peripheral/Include/gd32vf103_rcu.h"
 242              		.file 22 "<built-in>"
GAS LISTING C:\Users\marwz\AppData\Local\Temp\cc1xgdze.s 			page 8

