GAS LISTING C:\Users\marwz\AppData\Local\Temp\cc8TtTW1.s 			page 1


   1              		.file	"cs1237_gd32vf103_port.c"
   2              		.option nopic
   3              		.attribute arch, "rv32i2p0_m2p0_a2p0_c2p0"
   4              		.attribute unaligned_access, 0
   5              		.attribute stack_align, 16
   6              		.text
   7              	.Ltext0:
   8              		.cfi_sections	.debug_frame
   9              		.section	.text.cs1237_port_initialize_pins,"ax",@progbits
  10              		.align	1
  11              		.globl	cs1237_port_initialize_pins
  13              	cs1237_port_initialize_pins:
  14              	.LFB2:
  15              		.file 1 "lib/cs1237/src/cs1237_gd32vf103_port.c"
   1:lib/cs1237/src/cs1237_gd32vf103_port.c **** #include "cs1237_port.h"
   2:lib/cs1237/src/cs1237_gd32vf103_port.c **** #include "cs1237.h"
   3:lib/cs1237/src/cs1237_gd32vf103_port.c **** #include "gd32vf103.h"
   4:lib/cs1237/src/cs1237_gd32vf103_port.c **** 
   5:lib/cs1237/src/cs1237_gd32vf103_port.c **** void cs1237_port_initialize_pins(uint8_t n_channels, cs1237_channel_t* channels, cs1237_channel_t c
  16              		.loc 1 5 105
  17              		.cfi_startproc
  18              	.LVL0:
  19 0000 3971     		addi	sp,sp,-64
  20              	.LCFI0:
  21              		.cfi_def_cfa_offset 64
  22 0002 5AD0     		sw	s6,32(sp)
  23              		.cfi_offset 22, -32
  24 0004 2A8B     		mv	s6,a0
   6:lib/cs1237/src/cs1237_gd32vf103_port.c **** 	rcu_periph_clock_enable(clock.rcu);
  25              		.loc 1 6 2 is_stmt 0
  26 0006 0846     		lw	a0,8(a2)
  27              	.LVL1:
   5:lib/cs1237/src/cs1237_gd32vf103_port.c **** 	rcu_periph_clock_enable(clock.rcu);
  28              		.loc 1 5 105
  29 0008 22DC     		sw	s0,56(sp)
  30              		.cfi_offset 8, -8
  31 000a 2E84     		mv	s0,a1
  32 000c 26DA     		sw	s1,52(sp)
  33 000e 4AD8     		sw	s2,48(sp)
  34 0010 4ED6     		sw	s3,44(sp)
  35 0012 52D4     		sw	s4,40(sp)
  36 0014 56D2     		sw	s5,36(sp)
  37 0016 06DE     		sw	ra,60(sp)
  38              		.cfi_offset 9, -12
  39              		.cfi_offset 18, -16
  40              		.cfi_offset 19, -20
  41              		.cfi_offset 20, -24
  42              		.cfi_offset 21, -28
  43              		.cfi_offset 1, -4
   5:lib/cs1237/src/cs1237_gd32vf103_port.c **** 	rcu_periph_clock_enable(clock.rcu);
  44              		.loc 1 5 105
  45 0018 B284     		mv	s1,a2
  46 001a 832A0600 		lw	s5,0(a2)
  47              	.LVL2:
  48 001e 032A4600 		lw	s4,4(a2)
  49              	.LVL3:
  50              		.loc 1 6 2 is_stmt 1
GAS LISTING C:\Users\marwz\AppData\Local\Temp\cc8TtTW1.s 			page 2


  51 0022 93098400 		addi	s3,s0,8
  52 0026 97000000 		call	rcu_periph_clock_enable
  52      E7800000 
  53              	.LVL4:
   7:lib/cs1237/src/cs1237_gd32vf103_port.c **** 	for(int i = 0; i < n_channels; i++) rcu_periph_clock_enable(channels[i].rcu);
  54              		.loc 1 7 2
  55              	.LBB2:
  56              		.loc 1 7 6
  57              		.loc 1 7 10 is_stmt 0
  58 002e 0149     		li	s2,0
  59              	.LVL5:
  60              	.L2:
  61              		.loc 1 7 2 discriminator 1
  62 0030 634A6905 		bgt	s6,s2,.L3
  63              	.LBE2:
   8:lib/cs1237/src/cs1237_gd32vf103_port.c **** 	gpio_init(clock.port, GPIO_MODE_OUT_PP, GPIO_OSPEED_50MHZ, clock.pin);
  64              		.loc 1 8 2 is_stmt 1
  65 0034 D686     		mv	a3,s5
  66 0036 0D46     		li	a2,3
  67 0038 C145     		li	a1,16
  68 003a 5285     		mv	a0,s4
  69 003c 97000000 		call	gpio_init
  69      E7800000 
  70              	.LVL6:
   9:lib/cs1237/src/cs1237_gd32vf103_port.c **** 	for(int i = 0; i < n_channels; i++) gpio_init(channels[i].port, GPIO_MODE_IN_FLOATING, GPIO_OSPEED
  71              		.loc 1 9 2
  72              	.LBB3:
  73              		.loc 1 9 6
  74              		.loc 1 9 10 is_stmt 0
  75 0044 0149     		li	s2,0
  76              	.LVL7:
  77              	.L4:
  78              		.loc 1 9 2 discriminator 1
  79 0046 63486905 		bgt	s6,s2,.L5
  80              	.LBE3:
  10:lib/cs1237/src/cs1237_gd32vf103_port.c **** 	gpio_bit_write(clock.port, clock.pin, 0);
  81              		.loc 1 10 2 is_stmt 1
  82 004a D685     		mv	a1,s5
  83 004c 5285     		mv	a0,s4
  84 004e 0146     		li	a2,0
  85 0050 97000000 		call	gpio_bit_write
  85      E7800000 
  86              	.LVL8:
  11:lib/cs1237/src/cs1237_gd32vf103_port.c **** 	cs1237_install_clock_pin(clock);
  87              		.loc 1 11 2
  88 0058 A685     		mv	a1,s1
  89 005a 5146     		li	a2,20
  90 005c 0A85     		mv	a0,sp
  91 005e 97000000 		call	memcpy
  91      E7800000 
  92              	.LVL9:
  93 0066 0A85     		mv	a0,sp
  94 0068 97000000 		call	cs1237_install_clock_pin
  94      E7800000 
  95              	.LVL10:
  12:lib/cs1237/src/cs1237_gd32vf103_port.c **** }
  96              		.loc 1 12 1 is_stmt 0
GAS LISTING C:\Users\marwz\AppData\Local\Temp\cc8TtTW1.s 			page 3


  97 0070 F250     		lw	ra,60(sp)
  98              		.cfi_remember_state
  99              		.cfi_restore 1
 100 0072 6254     		lw	s0,56(sp)
 101              		.cfi_restore 8
 102 0074 D254     		lw	s1,52(sp)
 103              		.cfi_restore 9
 104 0076 4259     		lw	s2,48(sp)
 105              		.cfi_restore 18
 106              	.LVL11:
 107 0078 B259     		lw	s3,44(sp)
 108              		.cfi_restore 19
 109 007a 225A     		lw	s4,40(sp)
 110              		.cfi_restore 20
 111              	.LVL12:
 112 007c 925A     		lw	s5,36(sp)
 113              		.cfi_restore 21
 114              	.LVL13:
 115 007e 025B     		lw	s6,32(sp)
 116              		.cfi_restore 22
 117 0080 2161     		addi	sp,sp,64
 118              	.LCFI1:
 119              		.cfi_def_cfa_offset 0
 120 0082 8280     		jr	ra
 121              	.LVL14:
 122              	.L3:
 123              	.LCFI2:
 124              		.cfi_restore_state
 125              	.LBB4:
   7:lib/cs1237/src/cs1237_gd32vf103_port.c **** 	gpio_init(clock.port, GPIO_MODE_OUT_PP, GPIO_OSPEED_50MHZ, clock.pin);
 126              		.loc 1 7 38 is_stmt 1 discriminator 3
 127 0084 03A50900 		lw	a0,0(s3)
   7:lib/cs1237/src/cs1237_gd32vf103_port.c **** 	gpio_init(clock.port, GPIO_MODE_OUT_PP, GPIO_OSPEED_50MHZ, clock.pin);
 128              		.loc 1 7 34 is_stmt 0 discriminator 3
 129 0088 0509     		addi	s2,s2,1
 130              	.LVL15:
 131 008a D109     		addi	s3,s3,20
   7:lib/cs1237/src/cs1237_gd32vf103_port.c **** 	gpio_init(clock.port, GPIO_MODE_OUT_PP, GPIO_OSPEED_50MHZ, clock.pin);
 132              		.loc 1 7 38 discriminator 3
 133 008c 97000000 		call	rcu_periph_clock_enable
 133      E7800000 
 134              	.LVL16:
 135 0094 71BF     		j	.L2
 136              	.LVL17:
 137              	.L5:
 138              	.LBE4:
 139              	.LBB5:
   9:lib/cs1237/src/cs1237_gd32vf103_port.c **** 	gpio_bit_write(clock.port, clock.pin, 0);
 140              		.loc 1 9 38 is_stmt 1 discriminator 3
 141 0096 1440     		lw	a3,0(s0)
 142 0098 4840     		lw	a0,4(s0)
 143 009a 0D46     		li	a2,3
 144 009c 9145     		li	a1,4
 145 009e 97000000 		call	gpio_init
 145      E7800000 
 146              	.LVL18:
   9:lib/cs1237/src/cs1237_gd32vf103_port.c **** 	gpio_bit_write(clock.port, clock.pin, 0);
GAS LISTING C:\Users\marwz\AppData\Local\Temp\cc8TtTW1.s 			page 4


 147              		.loc 1 9 34 is_stmt 0 discriminator 3
 148 00a6 0509     		addi	s2,s2,1
 149              	.LVL19:
 150 00a8 5104     		addi	s0,s0,20
 151 00aa 71BF     		j	.L4
 152              	.LBE5:
 153              		.cfi_endproc
 154              	.LFE2:
 156              		.section	.text.cs1237_port_set_pin_value,"ax",@progbits
 157              		.align	1
 158              		.globl	cs1237_port_set_pin_value
 160              	cs1237_port_set_pin_value:
 161              	.LFB3:
  13:lib/cs1237/src/cs1237_gd32vf103_port.c **** 
  14:lib/cs1237/src/cs1237_gd32vf103_port.c **** void cs1237_port_set_pin_value(cs1237_channel_t* ch, uint8_t value){
 162              		.loc 1 14 68 is_stmt 1
 163              		.cfi_startproc
 164              	.LVL20:
  15:lib/cs1237/src/cs1237_gd32vf103_port.c **** 	gpio_bit_write(ch->port, ch->pin, value);
 165              		.loc 1 15 2
 166 0000 2E86     		mv	a2,a1
 167 0002 0C41     		lw	a1,0(a0)
 168              	.LVL21:
 169 0004 4841     		lw	a0,4(a0)
 170              	.LVL22:
 171 0006 17030000 		tail	gpio_bit_write
 171      67000300 
 172              	.LVL23:
 173              		.cfi_endproc
 174              	.LFE3:
 176              		.section	.text.cs1237_port_pin_direction_out,"ax",@progbits
 177              		.align	1
 178              		.globl	cs1237_port_pin_direction_out
 180              	cs1237_port_pin_direction_out:
 181              	.LFB4:
  16:lib/cs1237/src/cs1237_gd32vf103_port.c **** }
  17:lib/cs1237/src/cs1237_gd32vf103_port.c **** 
  18:lib/cs1237/src/cs1237_gd32vf103_port.c **** void cs1237_port_pin_direction_out(cs1237_channel_t* ch){
 182              		.loc 1 18 57
 183              		.cfi_startproc
 184              	.LVL24:
  19:lib/cs1237/src/cs1237_gd32vf103_port.c **** 	gpio_init(ch->port, GPIO_MODE_OUT_PP, GPIO_OSPEED_50MHZ, ch->pin);
 185              		.loc 1 19 2
 186 0000 1441     		lw	a3,0(a0)
 187 0002 4841     		lw	a0,4(a0)
 188              	.LVL25:
 189 0004 0D46     		li	a2,3
 190 0006 C145     		li	a1,16
 191 0008 17030000 		tail	gpio_init
 191      67000300 
 192              	.LVL26:
 193              		.cfi_endproc
 194              	.LFE4:
 196              		.section	.text.cs1237_port_pin_direction_in,"ax",@progbits
 197              		.align	1
 198              		.globl	cs1237_port_pin_direction_in
 200              	cs1237_port_pin_direction_in:
GAS LISTING C:\Users\marwz\AppData\Local\Temp\cc8TtTW1.s 			page 5


 201              	.LFB5:
  20:lib/cs1237/src/cs1237_gd32vf103_port.c **** }
  21:lib/cs1237/src/cs1237_gd32vf103_port.c **** 
  22:lib/cs1237/src/cs1237_gd32vf103_port.c **** void cs1237_port_pin_direction_in(cs1237_channel_t* ch){
 202              		.loc 1 22 56
 203              		.cfi_startproc
 204              	.LVL27:
  23:lib/cs1237/src/cs1237_gd32vf103_port.c **** 	gpio_init(ch->port, GPIO_MODE_IN_FLOATING, GPIO_OSPEED_50MHZ, ch->pin);
 205              		.loc 1 23 2
 206 0000 1441     		lw	a3,0(a0)
 207 0002 4841     		lw	a0,4(a0)
 208              	.LVL28:
 209 0004 0D46     		li	a2,3
 210 0006 9145     		li	a1,4
 211 0008 17030000 		tail	gpio_init
 211      67000300 
 212              	.LVL29:
 213              		.cfi_endproc
 214              	.LFE5:
 216              		.section	.text.cs1237_port_get_pin_value,"ax",@progbits
 217              		.align	1
 218              		.globl	cs1237_port_get_pin_value
 220              	cs1237_port_get_pin_value:
 221              	.LFB6:
  24:lib/cs1237/src/cs1237_gd32vf103_port.c **** }
  25:lib/cs1237/src/cs1237_gd32vf103_port.c **** 
  26:lib/cs1237/src/cs1237_gd32vf103_port.c **** uint8_t cs1237_port_get_pin_value(cs1237_channel_t* ch){
 222              		.loc 1 26 56
 223              		.cfi_startproc
 224              	.LVL30:
  27:lib/cs1237/src/cs1237_gd32vf103_port.c **** 	return gpio_input_bit_get(ch->port, ch->pin);
 225              		.loc 1 27 2
 226              		.loc 1 27 9 is_stmt 0
 227 0000 0C41     		lw	a1,0(a0)
 228 0002 4841     		lw	a0,4(a0)
 229              	.LVL31:
  26:lib/cs1237/src/cs1237_gd32vf103_port.c **** 	return gpio_input_bit_get(ch->port, ch->pin);
 230              		.loc 1 26 56
 231 0004 4111     		addi	sp,sp,-16
 232              	.LCFI3:
 233              		.cfi_def_cfa_offset 16
 234 0006 06C6     		sw	ra,12(sp)
 235              		.cfi_offset 1, -4
 236              		.loc 1 27 9
 237 0008 97000000 		call	gpio_input_bit_get
 237      E7800000 
 238              	.LVL32:
  28:lib/cs1237/src/cs1237_gd32vf103_port.c **** }
 239              		.loc 1 28 1
 240 0010 B240     		lw	ra,12(sp)
 241              		.cfi_restore 1
 242 0012 1375F50F 		andi	a0,a0,0xff
 243 0016 4101     		addi	sp,sp,16
 244              	.LCFI4:
 245              		.cfi_def_cfa_offset 0
 246 0018 8280     		jr	ra
 247              		.cfi_endproc
GAS LISTING C:\Users\marwz\AppData\Local\Temp\cc8TtTW1.s 			page 6


 248              	.LFE6:
 250              		.section	.text.cs1237_port_wait_min_455ns,"ax",@progbits
 251              		.align	1
 252              		.globl	cs1237_port_wait_min_455ns
 254              	cs1237_port_wait_min_455ns:
 255              	.LFB7:
  29:lib/cs1237/src/cs1237_gd32vf103_port.c **** 
  30:lib/cs1237/src/cs1237_gd32vf103_port.c **** void cs1237_port_wait_min_455ns(){
 256              		.loc 1 30 34 is_stmt 1
 257              		.cfi_startproc
  31:lib/cs1237/src/cs1237_gd32vf103_port.c **** 	uint64_t start_mtime, delta_mtime;
 258              		.loc 1 31 2
  32:lib/cs1237/src/cs1237_gd32vf103_port.c **** 
  33:lib/cs1237/src/cs1237_gd32vf103_port.c **** 	// Don't start measuruing until we see an mtime tick
  34:lib/cs1237/src/cs1237_gd32vf103_port.c **** 	uint64_t tmp = get_timer_value();
 259              		.loc 1 34 2
  30:lib/cs1237/src/cs1237_gd32vf103_port.c **** 	uint64_t start_mtime, delta_mtime;
 260              		.loc 1 30 34 is_stmt 0
 261 0000 0111     		addi	sp,sp,-32
 262              	.LCFI5:
 263              		.cfi_def_cfa_offset 32
 264 0002 22CC     		sw	s0,24(sp)
 265 0004 4EC6     		sw	s3,12(sp)
 266 0006 06CE     		sw	ra,28(sp)
 267 0008 26CA     		sw	s1,20(sp)
 268 000a 4AC8     		sw	s2,16(sp)
 269              		.cfi_offset 8, -8
 270              		.cfi_offset 19, -20
 271              		.cfi_offset 1, -4
 272              		.cfi_offset 9, -12
 273              		.cfi_offset 18, -16
 274              		.loc 1 34 17
 275 000c 97000000 		call	get_timer_value
 275      E7800000 
 276              	.LVL33:
 277 0014 AA89     		mv	s3,a0
 278 0016 2E84     		mv	s0,a1
 279              	.LVL34:
 280              	.L13:
  35:lib/cs1237/src/cs1237_gd32vf103_port.c **** 	do {
 281              		.loc 1 35 2 is_stmt 1 discriminator 1
  36:lib/cs1237/src/cs1237_gd32vf103_port.c **** 	start_mtime = get_timer_value();
 282              		.loc 1 36 2 discriminator 1
 283              		.loc 1 36 16 is_stmt 0 discriminator 1
 284 0018 97000000 		call	get_timer_value
 284      E7800000 
 285              	.LVL35:
 286 0020 AA84     		mv	s1,a0
 287 0022 2E89     		mv	s2,a1
 288              	.LVL36:
  37:lib/cs1237/src/cs1237_gd32vf103_port.c **** 	} while (start_mtime == tmp);
 289              		.loc 1 37 2 discriminator 1
 290 0024 6394A900 		bne	s3,a0,.L14
 291 0028 E308B4FE 		beq	s0,a1,.L13
 292              	.L14:
  38:lib/cs1237/src/cs1237_gd32vf103_port.c **** 
  39:lib/cs1237/src/cs1237_gd32vf103_port.c **** 	do {
GAS LISTING C:\Users\marwz\AppData\Local\Temp\cc8TtTW1.s 			page 7


  40:lib/cs1237/src/cs1237_gd32vf103_port.c **** 	delta_mtime = get_timer_value() - start_mtime;
  41:lib/cs1237/src/cs1237_gd32vf103_port.c **** 	}while(delta_mtime <(SystemCoreClock/(4*2*1000000)));
 293              		.loc 1 41 38 discriminator 1
 294 002c 37147A00 		li	s0,7999488
 295              	.LVL37:
 296 0030 B7090000 		lui	s3,%hi(SystemCoreClock)
 297 0034 13040420 		addi	s0,s0,512
 298              	.LVL38:
 299              	.L15:
  39:lib/cs1237/src/cs1237_gd32vf103_port.c **** 	delta_mtime = get_timer_value() - start_mtime;
 300              		.loc 1 39 2 is_stmt 1 discriminator 1
  40:lib/cs1237/src/cs1237_gd32vf103_port.c **** 	}while(delta_mtime <(SystemCoreClock/(4*2*1000000)));
 301              		.loc 1 40 2 discriminator 1
  40:lib/cs1237/src/cs1237_gd32vf103_port.c **** 	}while(delta_mtime <(SystemCoreClock/(4*2*1000000)));
 302              		.loc 1 40 16 is_stmt 0 discriminator 1
 303 0038 97000000 		call	get_timer_value
 303      E7800000 
 304              	.LVL39:
 305              		.loc 1 41 38 discriminator 1
 306 0040 83A70900 		lw	a5,%lo(SystemCoreClock)(s3)
  40:lib/cs1237/src/cs1237_gd32vf103_port.c **** 	}while(delta_mtime <(SystemCoreClock/(4*2*1000000)));
 307              		.loc 1 40 14 discriminator 1
 308 0044 33079540 		sub	a4,a0,s1
 309 0048 3335E500 		sgtu	a0,a4,a0
 310              	.LVL40:
 311 004c B3852541 		sub	a1,a1,s2
 312              		.loc 1 41 38 discriminator 1
 313 0050 B3D78702 		divu	a5,a5,s0
 314              		.loc 1 41 2 discriminator 1
 315 0054 6394A500 		bne	a1,a0,.L12
 316 0058 E360F7FE 		bgtu	a5,a4,.L15
 317              	.L12:
  42:lib/cs1237/src/cs1237_gd32vf103_port.c **** }...
 318              		.loc 1 42 1
 319 005c F240     		lw	ra,28(sp)
 320              		.cfi_restore 1
 321 005e 6244     		lw	s0,24(sp)
 322              		.cfi_restore 8
 323 0060 D244     		lw	s1,20(sp)
 324              		.cfi_restore 9
 325              	.LVL41:
 326 0062 4249     		lw	s2,16(sp)
 327              		.cfi_restore 18
 328 0064 B249     		lw	s3,12(sp)
 329              		.cfi_restore 19
 330 0066 0561     		addi	sp,sp,32
 331              	.LCFI6:
 332              		.cfi_def_cfa_offset 0
 333 0068 8280     		jr	ra
 334              		.cfi_endproc
 335              	.LFE7:
 337              		.text
 338              	.Letext0:
 339              		.file 2 "c:\\users\\marwz\\documents\\github\\datafusion\\src\\pressure readings\\project\\toolcha
 340              		.file 3 "c:\\users\\marwz\\documents\\github\\datafusion\\src\\pressure readings\\project\\toolcha
 341              		.file 4 "lib/cs1237/include/cs1237_port.h"
 342              		.file 5 "./../../firmware/RISCV/drivers/n200_func.h"
GAS LISTING C:\Users\marwz\AppData\Local\Temp\cc8TtTW1.s 			page 8


 343              		.file 6 "./../../firmware/GD32VF103_standard_peripheral/Include/gd32vf103_gpio.h"
 344              		.file 7 "./../../firmware/GD32VF103_standard_peripheral/Include/gd32vf103_rcu.h"
 345              		.file 8 "lib/cs1237/include/cs1237.h"
 346              		.file 9 "./../../firmware/GD32VF103_standard_peripheral/system_gd32vf103.h"
 347              		.file 10 "<built-in>"
GAS LISTING C:\Users\marwz\AppData\Local\Temp\cc8TtTW1.s 			page 9

