GAS LISTING /var/folders/ls/4h1n6w991j94vzjn0w5_vtp40000gn/T//ccT1jXg7.s 			page 1


   1              		.file	"main.c"
   2              		.option nopic
   3              		.attribute arch, "rv32i2p0_m2p0_a2p0_c2p0"
   4              		.attribute unaligned_access, 0
   5              		.attribute stack_align, 16
   6              		.text
   7              	.Ltext0:
   8              		.cfi_sections	.debug_frame
   9              		.section	.text.startup.main,"ax",@progbits
  10              		.align	1
  11              		.globl	main
  13              	main:
  14              	.LFB2:
  15              		.file 1 "main.c"
   1:main.c        **** /* 
   2:main.c        **** Replace this file with your code. Put your source files in this directory and any libraries in the 
   3:main.c        **** If your main program should be assembly-language replace this file with main.S instead.
   4:main.c        **** 
   5:main.c        **** Libraries (other than vendor SDK and gcc libraries) must have .h-files in /lib/[library name]/inclu
   6:main.c        **** .c-files in /lib/[library name]/src/ to be included automatically.
   7:main.c        **** */
   8:main.c        **** 
   9:main.c        **** #include "gd32vf103.h"
  10:main.c        **** #define BITMASK 0xFFFFFFF8
  11:main.c        **** 
  12:main.c        **** int main(){
  16              		.loc 1 12 11
  17              		.cfi_startproc
  13:main.c        **** 	uint32_t port = 0;
  18              		.loc 1 13 2
  19              	.LVL0:
  14:main.c        **** 	uint32_t count = 0;
  20              		.loc 1 14 2
  15:main.c        **** 	rcu_periph_clock_enable(RCU_GPIOB);
  21              		.loc 1 15 2
  12:main.c        **** 	uint32_t port = 0;
  22              		.loc 1 12 11 is_stmt 0
  23 0000 0111     		addi	sp,sp,-32
  24              	.LCFI0:
  25              		.cfi_def_cfa_offset 32
  26              		.loc 1 15 2
  27 0002 13053060 		li	a0,1539
  12:main.c        **** 	uint32_t port = 0;
  28              		.loc 1 12 11
  29 0006 06CE     		sw	ra,28(sp)
  30 0008 22CC     		sw	s0,24(sp)
  31 000a 26CA     		sw	s1,20(sp)
  32 000c 4AC8     		sw	s2,16(sp)
  33              		.cfi_offset 1, -4
  34              		.cfi_offset 8, -8
  35              		.cfi_offset 9, -12
  36              		.cfi_offset 18, -16
  16:main.c        **** 	gpio_init(GPIOB, GPIO_MODE_OUT_PP, GPIO_OSPEED_50MHZ, GPIO_PIN_0 | GPIO_PIN_1 | GPIO_PIN_2);
  37              		.loc 1 16 2
  38 000e 37140140 		li	s0,1073811456
  15:main.c        **** 	rcu_periph_clock_enable(RCU_GPIOB);
  39              		.loc 1 15 2
GAS LISTING /var/folders/ls/4h1n6w991j94vzjn0w5_vtp40000gn/T//ccT1jXg7.s 			page 2


  40 0012 97000000 		call	rcu_periph_clock_enable
  40      E7800000 
  41              	.LVL1:
  42              		.loc 1 16 2 is_stmt 1
  43 001a 130504C0 		addi	a0,s0,-1024
  44 001e 9D46     		li	a3,7
  45 0020 0D46     		li	a2,3
  46 0022 C145     		li	a1,16
  47              	.LBB2:
  17:main.c        **** 	while(1){
  18:main.c        **** 		count += 1;
  19:main.c        **** 		port = gpio_input_port_get(GPIOB);
  20:main.c        **** 		gpio_port_write(GPIOB, (port & BITMASK) | (count & (~BITMASK)));
  21:main.c        **** 		for(volatile int i = 0; i < 1000000; i++);
  48              		.loc 1 21 3 is_stmt 0
  49 0024 37490F00 		li	s2,999424
  50              	.LBE2:
  16:main.c        **** 	gpio_init(GPIOB, GPIO_MODE_OUT_PP, GPIO_OSPEED_50MHZ, GPIO_PIN_0 | GPIO_PIN_1 | GPIO_PIN_2);
  51              		.loc 1 16 2
  52 0028 97000000 		call	gpio_init
  52      E7800000 
  53              	.LVL2:
  14:main.c        **** 	rcu_periph_clock_enable(RCU_GPIOB);
  54              		.loc 1 14 11
  55 0030 8144     		li	s1,0
  19:main.c        **** 		gpio_port_write(GPIOB, (port & BITMASK) | (count & (~BITMASK)));
  56              		.loc 1 19 10
  57 0032 130404C0 		addi	s0,s0,-1024
  58              	.LBB3:
  59              		.loc 1 21 3
  60 0036 1309F923 		addi	s2,s2,575
  61              	.LVL3:
  62              	.L4:
  63              	.LBE3:
  17:main.c        **** 	while(1){
  64              		.loc 1 17 2 is_stmt 1
  18:main.c        **** 		port = gpio_input_port_get(GPIOB);
  65              		.loc 1 18 3
  19:main.c        **** 		gpio_port_write(GPIOB, (port & BITMASK) | (count & (~BITMASK)));
  66              		.loc 1 19 10 is_stmt 0
  67 003a 2285     		mv	a0,s0
  68 003c 97000000 		call	gpio_input_port_get
  68      E7800000 
  69              	.LVL4:
  18:main.c        **** 		port = gpio_input_port_get(GPIOB);
  70              		.loc 1 18 9
  71 0044 8504     		addi	s1,s1,1
  72              	.LVL5:
  19:main.c        **** 		gpio_port_write(GPIOB, (port & BITMASK) | (count & (~BITMASK)));
  73              		.loc 1 19 3 is_stmt 1
  20:main.c        **** 		for(volatile int i = 0; i < 1000000; i++);
  74              		.loc 1 20 3
  20:main.c        **** 		for(volatile int i = 0; i < 1000000; i++);
  75              		.loc 1 20 32 is_stmt 0
  76 0046 6199     		andi	a0,a0,-8
  77              	.LVL6:
  20:main.c        **** 		for(volatile int i = 0; i < 1000000; i++);
GAS LISTING /var/folders/ls/4h1n6w991j94vzjn0w5_vtp40000gn/T//ccT1jXg7.s 			page 3


  78              		.loc 1 20 52
  79 0048 93F57400 		andi	a1,s1,7
  20:main.c        **** 		for(volatile int i = 0; i < 1000000; i++);
  80              		.loc 1 20 3
  81 004c C98D     		or	a1,a0,a1
  82 004e C205     		slli	a1,a1,16
  83 0050 C181     		srli	a1,a1,16
  84 0052 2285     		mv	a0,s0
  85 0054 97000000 		call	gpio_port_write
  85      E7800000 
  86              	.LVL7:
  87              		.loc 1 21 3 is_stmt 1
  88              	.LBB4:
  89              		.loc 1 21 7
  90              		.loc 1 21 20 is_stmt 0
  91 005c 02C6     		sw	zero,12(sp)
  92              	.L2:
  93              		.loc 1 21 29 discriminator 1
  94 005e B247     		lw	a5,12(sp)
  95              		.loc 1 21 3 discriminator 1
  96 0060 E34DF9FC 		bgt	a5,s2,.L4
  97              		.loc 1 21 44 is_stmt 1 discriminator 3
  98              		.loc 1 21 41 is_stmt 0 discriminator 3
  99 0064 B247     		lw	a5,12(sp)
 100 0066 8507     		addi	a5,a5,1
 101 0068 3EC6     		sw	a5,12(sp)
 102 006a D5BF     		j	.L2
 103              	.LBE4:
 104              		.cfi_endproc
 105              	.LFE2:
 107              		.text
 108              	.Letext0:
 109              		.file 2 "/Users/jorgepadilla/Documents/GitHub/DataFusion/src/DataFusionExe/PressureReadings/projec
 110              		.file 3 "/Users/jorgepadilla/Documents/GitHub/DataFusion/src/DataFusionExe/PressureReadings/projec
 111              		.file 4 "../../firmware/GD32VF103_standard_peripheral/Include/gd32vf103_rcu.h"
 112              		.file 5 "../../firmware/GD32VF103_standard_peripheral/Include/gd32vf103_gpio.h"
 113              		.file 6 "../../firmware/GD32VF103_standard_peripheral/system_gd32vf103.h"
GAS LISTING /var/folders/ls/4h1n6w991j94vzjn0w5_vtp40000gn/T//ccT1jXg7.s 			page 4


DEFINED SYMBOLS
                            *ABS*:0000000000000000 main.c
/var/folders/ls/4h1n6w991j94vzjn0w5_vtp40000gn/T//ccT1jXg7.s:13     .text.startup.main:0000000000000000 main
/var/folders/ls/4h1n6w991j94vzjn0w5_vtp40000gn/T//ccT1jXg7.s:17     .text.startup.main:0000000000000000 .L0 
/var/folders/ls/4h1n6w991j94vzjn0w5_vtp40000gn/T//ccT1jXg7.s:18     .text.startup.main:0000000000000000 .L0 
/var/folders/ls/4h1n6w991j94vzjn0w5_vtp40000gn/T//ccT1jXg7.s:20     .text.startup.main:0000000000000000 .L0 
/var/folders/ls/4h1n6w991j94vzjn0w5_vtp40000gn/T//ccT1jXg7.s:21     .text.startup.main:0000000000000000 .L0 
/var/folders/ls/4h1n6w991j94vzjn0w5_vtp40000gn/T//ccT1jXg7.s:22     .text.startup.main:0000000000000000 .L0 
/var/folders/ls/4h1n6w991j94vzjn0w5_vtp40000gn/T//ccT1jXg7.s:23     .text.startup.main:0000000000000000 .L0 
/var/folders/ls/4h1n6w991j94vzjn0w5_vtp40000gn/T//ccT1jXg7.s:25     .text.startup.main:0000000000000002 .L0 
/var/folders/ls/4h1n6w991j94vzjn0w5_vtp40000gn/T//ccT1jXg7.s:27     .text.startup.main:0000000000000002 .L0 
/var/folders/ls/4h1n6w991j94vzjn0w5_vtp40000gn/T//ccT1jXg7.s:29     .text.startup.main:0000000000000006 .L0 
/var/folders/ls/4h1n6w991j94vzjn0w5_vtp40000gn/T//ccT1jXg7.s:33     .text.startup.main:000000000000000e .L0 
/var/folders/ls/4h1n6w991j94vzjn0w5_vtp40000gn/T//ccT1jXg7.s:34     .text.startup.main:000000000000000e .L0 
/var/folders/ls/4h1n6w991j94vzjn0w5_vtp40000gn/T//ccT1jXg7.s:35     .text.startup.main:000000000000000e .L0 
/var/folders/ls/4h1n6w991j94vzjn0w5_vtp40000gn/T//ccT1jXg7.s:36     .text.startup.main:000000000000000e .L0 
/var/folders/ls/4h1n6w991j94vzjn0w5_vtp40000gn/T//ccT1jXg7.s:38     .text.startup.main:000000000000000e .L0 
/var/folders/ls/4h1n6w991j94vzjn0w5_vtp40000gn/T//ccT1jXg7.s:40     .text.startup.main:0000000000000012 .L0 
/var/folders/ls/4h1n6w991j94vzjn0w5_vtp40000gn/T//ccT1jXg7.s:43     .text.startup.main:000000000000001a .L0 
/var/folders/ls/4h1n6w991j94vzjn0w5_vtp40000gn/T//ccT1jXg7.s:49     .text.startup.main:0000000000000024 .L0 
/var/folders/ls/4h1n6w991j94vzjn0w5_vtp40000gn/T//ccT1jXg7.s:52     .text.startup.main:0000000000000028 .L0 
/var/folders/ls/4h1n6w991j94vzjn0w5_vtp40000gn/T//ccT1jXg7.s:55     .text.startup.main:0000000000000030 .L0 
/var/folders/ls/4h1n6w991j94vzjn0w5_vtp40000gn/T//ccT1jXg7.s:57     .text.startup.main:0000000000000032 .L0 
/var/folders/ls/4h1n6w991j94vzjn0w5_vtp40000gn/T//ccT1jXg7.s:60     .text.startup.main:0000000000000036 .L0 
/var/folders/ls/4h1n6w991j94vzjn0w5_vtp40000gn/T//ccT1jXg7.s:65     .text.startup.main:000000000000003a .L0 
/var/folders/ls/4h1n6w991j94vzjn0w5_vtp40000gn/T//ccT1jXg7.s:66     .text.startup.main:000000000000003a .L0 
/var/folders/ls/4h1n6w991j94vzjn0w5_vtp40000gn/T//ccT1jXg7.s:67     .text.startup.main:000000000000003a .L0 
/var/folders/ls/4h1n6w991j94vzjn0w5_vtp40000gn/T//ccT1jXg7.s:71     .text.startup.main:0000000000000044 .L0 
/var/folders/ls/4h1n6w991j94vzjn0w5_vtp40000gn/T//ccT1jXg7.s:74     .text.startup.main:0000000000000046 .L0 
/var/folders/ls/4h1n6w991j94vzjn0w5_vtp40000gn/T//ccT1jXg7.s:75     .text.startup.main:0000000000000046 .L0 
/var/folders/ls/4h1n6w991j94vzjn0w5_vtp40000gn/T//ccT1jXg7.s:76     .text.startup.main:0000000000000046 .L0 
/var/folders/ls/4h1n6w991j94vzjn0w5_vtp40000gn/T//ccT1jXg7.s:79     .text.startup.main:0000000000000048 .L0 
/var/folders/ls/4h1n6w991j94vzjn0w5_vtp40000gn/T//ccT1jXg7.s:81     .text.startup.main:000000000000004c .L0 
/var/folders/ls/4h1n6w991j94vzjn0w5_vtp40000gn/T//ccT1jXg7.s:89     .text.startup.main:000000000000005c .L0 
/var/folders/ls/4h1n6w991j94vzjn0w5_vtp40000gn/T//ccT1jXg7.s:90     .text.startup.main:000000000000005c .L0 
/var/folders/ls/4h1n6w991j94vzjn0w5_vtp40000gn/T//ccT1jXg7.s:91     .text.startup.main:000000000000005c .L0 
/var/folders/ls/4h1n6w991j94vzjn0w5_vtp40000gn/T//ccT1jXg7.s:94     .text.startup.main:000000000000005e .L0 
/var/folders/ls/4h1n6w991j94vzjn0w5_vtp40000gn/T//ccT1jXg7.s:96     .text.startup.main:0000000000000060 .L0 
/var/folders/ls/4h1n6w991j94vzjn0w5_vtp40000gn/T//ccT1jXg7.s:98     .text.startup.main:0000000000000064 .L0 
/var/folders/ls/4h1n6w991j94vzjn0w5_vtp40000gn/T//ccT1jXg7.s:99     .text.startup.main:0000000000000064 .L0 
/var/folders/ls/4h1n6w991j94vzjn0w5_vtp40000gn/T//ccT1jXg7.s:104    .text.startup.main:000000000000006c .L0 
/var/folders/ls/4h1n6w991j94vzjn0w5_vtp40000gn/T//ccT1jXg7.s:107    .text.startup.main:000000000000006c .L0 
                     .debug_frame:0000000000000000 .L0 
/var/folders/ls/4h1n6w991j94vzjn0w5_vtp40000gn/T//ccT1jXg7.s:62     .text.startup.main:000000000000003a .L4
/var/folders/ls/4h1n6w991j94vzjn0w5_vtp40000gn/T//ccT1jXg7.s:92     .text.startup.main:000000000000005e .L2
/var/folders/ls/4h1n6w991j94vzjn0w5_vtp40000gn/T//ccT1jXg7.s:459    .debug_abbrev:0000000000000000 .Ldebug_abbrev0
/var/folders/ls/4h1n6w991j94vzjn0w5_vtp40000gn/T//ccT1jXg7.s:764    .debug_str:0000000000000000 .LASF57
/var/folders/ls/4h1n6w991j94vzjn0w5_vtp40000gn/T//ccT1jXg7.s:860    .debug_str:00000000000002f8 .LASF58
/var/folders/ls/4h1n6w991j94vzjn0w5_vtp40000gn/T//ccT1jXg7.s:798    .debug_str:0000000000000125 .LASF59
/var/folders/ls/4h1n6w991j94vzjn0w5_vtp40000gn/T//ccT1jXg7.s:748    .debug_ranges:0000000000000000 .Ldebug_ranges0
/var/folders/ls/4h1n6w991j94vzjn0w5_vtp40000gn/T//ccT1jXg7.s:762    .debug_line:0000000000000000 .Ldebug_line0
/var/folders/ls/4h1n6w991j94vzjn0w5_vtp40000gn/T//ccT1jXg7.s:840    .debug_str:000000000000028b .LASF0
/var/folders/ls/4h1n6w991j94vzjn0w5_vtp40000gn/T//ccT1jXg7.s:834    .debug_str:000000000000025f .LASF1
/var/folders/ls/4h1n6w991j94vzjn0w5_vtp40000gn/T//ccT1jXg7.s:886    .debug_str:0000000000000381 .LASF6
/var/folders/ls/4h1n6w991j94vzjn0w5_vtp40000gn/T//ccT1jXg7.s:824    .debug_str:000000000000021e .LASF2
/var/folders/ls/4h1n6w991j94vzjn0w5_vtp40000gn/T//ccT1jXg7.s:788    .debug_str:00000000000000f7 .LASF3
/var/folders/ls/4h1n6w991j94vzjn0w5_vtp40000gn/T//ccT1jXg7.s:844    .debug_str:00000000000002a0 .LASF4
GAS LISTING /var/folders/ls/4h1n6w991j94vzjn0w5_vtp40000gn/T//ccT1jXg7.s 			page 5


/var/folders/ls/4h1n6w991j94vzjn0w5_vtp40000gn/T//ccT1jXg7.s:800    .debug_str:00000000000001a1 .LASF5
/var/folders/ls/4h1n6w991j94vzjn0w5_vtp40000gn/T//ccT1jXg7.s:784    .debug_str:00000000000000e4 .LASF7
/var/folders/ls/4h1n6w991j94vzjn0w5_vtp40000gn/T//ccT1jXg7.s:862    .debug_str:00000000000002ff .LASF8
/var/folders/ls/4h1n6w991j94vzjn0w5_vtp40000gn/T//ccT1jXg7.s:782    .debug_str:00000000000000d6 .LASF9
/var/folders/ls/4h1n6w991j94vzjn0w5_vtp40000gn/T//ccT1jXg7.s:836    .debug_str:000000000000026b .LASF10
/var/folders/ls/4h1n6w991j94vzjn0w5_vtp40000gn/T//ccT1jXg7.s:790    .debug_str:0000000000000101 .LASF11
/var/folders/ls/4h1n6w991j94vzjn0w5_vtp40000gn/T//ccT1jXg7.s:838    .debug_str:0000000000000282 .LASF12
/var/folders/ls/4h1n6w991j94vzjn0w5_vtp40000gn/T//ccT1jXg7.s:766    .debug_str:0000000000000088 .LASF60
/var/folders/ls/4h1n6w991j94vzjn0w5_vtp40000gn/T//ccT1jXg7.s:850    .debug_str:00000000000002c5 .LASF13
/var/folders/ls/4h1n6w991j94vzjn0w5_vtp40000gn/T//ccT1jXg7.s:852    .debug_str:00000000000002ce .LASF14
/var/folders/ls/4h1n6w991j94vzjn0w5_vtp40000gn/T//ccT1jXg7.s:884    .debug_str:0000000000000379 .LASF15
/var/folders/ls/4h1n6w991j94vzjn0w5_vtp40000gn/T//ccT1jXg7.s:882    .debug_str:0000000000000370 .LASF16
/var/folders/ls/4h1n6w991j94vzjn0w5_vtp40000gn/T//ccT1jXg7.s:876    .debug_str:0000000000000352 .LASF17
/var/folders/ls/4h1n6w991j94vzjn0w5_vtp40000gn/T//ccT1jXg7.s:810    .debug_str:00000000000001d0 .LASF18
/var/folders/ls/4h1n6w991j94vzjn0w5_vtp40000gn/T//ccT1jXg7.s:812    .debug_str:00000000000001db .LASF19
/var/folders/ls/4h1n6w991j94vzjn0w5_vtp40000gn/T//ccT1jXg7.s:814    .debug_str:00000000000001e6 .LASF20
/var/folders/ls/4h1n6w991j94vzjn0w5_vtp40000gn/T//ccT1jXg7.s:816    .debug_str:00000000000001f1 .LASF21
/var/folders/ls/4h1n6w991j94vzjn0w5_vtp40000gn/T//ccT1jXg7.s:818    .debug_str:00000000000001fc .LASF22
/var/folders/ls/4h1n6w991j94vzjn0w5_vtp40000gn/T//ccT1jXg7.s:820    .debug_str:0000000000000207 .LASF23
/var/folders/ls/4h1n6w991j94vzjn0w5_vtp40000gn/T//ccT1jXg7.s:796    .debug_str:000000000000011b .LASF24
/var/folders/ls/4h1n6w991j94vzjn0w5_vtp40000gn/T//ccT1jXg7.s:804    .debug_str:00000000000001b3 .LASF25
/var/folders/ls/4h1n6w991j94vzjn0w5_vtp40000gn/T//ccT1jXg7.s:806    .debug_str:00000000000001bc .LASF26
/var/folders/ls/4h1n6w991j94vzjn0w5_vtp40000gn/T//ccT1jXg7.s:872    .debug_str:000000000000033c .LASF27
/var/folders/ls/4h1n6w991j94vzjn0w5_vtp40000gn/T//ccT1jXg7.s:874    .debug_str:0000000000000347 .LASF28
/var/folders/ls/4h1n6w991j94vzjn0w5_vtp40000gn/T//ccT1jXg7.s:878    .debug_str:000000000000035c .LASF29
/var/folders/ls/4h1n6w991j94vzjn0w5_vtp40000gn/T//ccT1jXg7.s:880    .debug_str:0000000000000366 .LASF30
/var/folders/ls/4h1n6w991j94vzjn0w5_vtp40000gn/T//ccT1jXg7.s:846    .debug_str:00000000000002b3 .LASF31
/var/folders/ls/4h1n6w991j94vzjn0w5_vtp40000gn/T//ccT1jXg7.s:848    .debug_str:00000000000002bc .LASF32
/var/folders/ls/4h1n6w991j94vzjn0w5_vtp40000gn/T//ccT1jXg7.s:792    .debug_str:0000000000000109 .LASF33
/var/folders/ls/4h1n6w991j94vzjn0w5_vtp40000gn/T//ccT1jXg7.s:794    .debug_str:0000000000000112 .LASF34
/var/folders/ls/4h1n6w991j94vzjn0w5_vtp40000gn/T//ccT1jXg7.s:832    .debug_str:0000000000000256 .LASF35
/var/folders/ls/4h1n6w991j94vzjn0w5_vtp40000gn/T//ccT1jXg7.s:842    .debug_str:0000000000000298 .LASF36
/var/folders/ls/4h1n6w991j94vzjn0w5_vtp40000gn/T//ccT1jXg7.s:854    .debug_str:00000000000002d7 .LASF37
/var/folders/ls/4h1n6w991j94vzjn0w5_vtp40000gn/T//ccT1jXg7.s:786    .debug_str:00000000000000ef .LASF38
/var/folders/ls/4h1n6w991j94vzjn0w5_vtp40000gn/T//ccT1jXg7.s:768    .debug_str:0000000000000098 .LASF39
/var/folders/ls/4h1n6w991j94vzjn0w5_vtp40000gn/T//ccT1jXg7.s:770    .debug_str:000000000000009f .LASF40
/var/folders/ls/4h1n6w991j94vzjn0w5_vtp40000gn/T//ccT1jXg7.s:772    .debug_str:00000000000000a9 .LASF41
/var/folders/ls/4h1n6w991j94vzjn0w5_vtp40000gn/T//ccT1jXg7.s:774    .debug_str:00000000000000b3 .LASF42
/var/folders/ls/4h1n6w991j94vzjn0w5_vtp40000gn/T//ccT1jXg7.s:776    .debug_str:00000000000000bd .LASF43
/var/folders/ls/4h1n6w991j94vzjn0w5_vtp40000gn/T//ccT1jXg7.s:778    .debug_str:00000000000000c7 .LASF44
/var/folders/ls/4h1n6w991j94vzjn0w5_vtp40000gn/T//ccT1jXg7.s:828    .debug_str:0000000000000244 .LASF45
/var/folders/ls/4h1n6w991j94vzjn0w5_vtp40000gn/T//ccT1jXg7.s:830    .debug_str:000000000000024d .LASF46
/var/folders/ls/4h1n6w991j94vzjn0w5_vtp40000gn/T//ccT1jXg7.s:808    .debug_str:00000000000001c5 .LASF47
/var/folders/ls/4h1n6w991j94vzjn0w5_vtp40000gn/T//ccT1jXg7.s:802    .debug_str:00000000000001aa .LASF48
/var/folders/ls/4h1n6w991j94vzjn0w5_vtp40000gn/T//ccT1jXg7.s:870    .debug_str:0000000000000331 .LASF49
/var/folders/ls/4h1n6w991j94vzjn0w5_vtp40000gn/T//ccT1jXg7.s:822    .debug_str:0000000000000212 .LASF50
/var/folders/ls/4h1n6w991j94vzjn0w5_vtp40000gn/T//ccT1jXg7.s:780    .debug_str:00000000000000d1 .LASF61
/var/folders/ls/4h1n6w991j94vzjn0w5_vtp40000gn/T//ccT1jXg7.s:14     .text.startup.main:0000000000000000 .LFB2
/var/folders/ls/4h1n6w991j94vzjn0w5_vtp40000gn/T//ccT1jXg7.s:105    .text.startup.main:000000000000006c .LFE2
/var/folders/ls/4h1n6w991j94vzjn0w5_vtp40000gn/T//ccT1jXg7.s:693    .debug_loc:0000000000000000 .LLST0
/var/folders/ls/4h1n6w991j94vzjn0w5_vtp40000gn/T//ccT1jXg7.s:858    .debug_str:00000000000002f3 .LASF51
/var/folders/ls/4h1n6w991j94vzjn0w5_vtp40000gn/T//ccT1jXg7.s:706    .debug_loc:0000000000000020 .LLST1
/var/folders/ls/4h1n6w991j94vzjn0w5_vtp40000gn/T//ccT1jXg7.s:868    .debug_str:000000000000032b .LASF52
/var/folders/ls/4h1n6w991j94vzjn0w5_vtp40000gn/T//ccT1jXg7.s:723    .debug_loc:0000000000000045 .LLST2
/var/folders/ls/4h1n6w991j94vzjn0w5_vtp40000gn/T//ccT1jXg7.s:41     .text.startup.main:000000000000001a .LVL1
/var/folders/ls/4h1n6w991j94vzjn0w5_vtp40000gn/T//ccT1jXg7.s:53     .text.startup.main:0000000000000030 .LVL2
/var/folders/ls/4h1n6w991j94vzjn0w5_vtp40000gn/T//ccT1jXg7.s:69     .text.startup.main:0000000000000044 .LVL4
GAS LISTING /var/folders/ls/4h1n6w991j94vzjn0w5_vtp40000gn/T//ccT1jXg7.s 			page 6


/var/folders/ls/4h1n6w991j94vzjn0w5_vtp40000gn/T//ccT1jXg7.s:86     .text.startup.main:000000000000005c .LVL7
/var/folders/ls/4h1n6w991j94vzjn0w5_vtp40000gn/T//ccT1jXg7.s:826    .debug_str:000000000000022c .LASF53
/var/folders/ls/4h1n6w991j94vzjn0w5_vtp40000gn/T//ccT1jXg7.s:866    .debug_str:0000000000000321 .LASF54
/var/folders/ls/4h1n6w991j94vzjn0w5_vtp40000gn/T//ccT1jXg7.s:856    .debug_str:00000000000002df .LASF55
/var/folders/ls/4h1n6w991j94vzjn0w5_vtp40000gn/T//ccT1jXg7.s:864    .debug_str:0000000000000311 .LASF56
/var/folders/ls/4h1n6w991j94vzjn0w5_vtp40000gn/T//ccT1jXg7.s:24     .text.startup.main:0000000000000002 .LCFI0
/var/folders/ls/4h1n6w991j94vzjn0w5_vtp40000gn/T//ccT1jXg7.s:19     .text.startup.main:0000000000000000 .LVL0
/var/folders/ls/4h1n6w991j94vzjn0w5_vtp40000gn/T//ccT1jXg7.s:61     .text.startup.main:000000000000003a .LVL3
/var/folders/ls/4h1n6w991j94vzjn0w5_vtp40000gn/T//ccT1jXg7.s:72     .text.startup.main:0000000000000046 .LVL5
/var/folders/ls/4h1n6w991j94vzjn0w5_vtp40000gn/T//ccT1jXg7.s:77     .text.startup.main:0000000000000048 .LVL6
/var/folders/ls/4h1n6w991j94vzjn0w5_vtp40000gn/T//ccT1jXg7.s:115    .debug_info:0000000000000000 .Ldebug_info0
/var/folders/ls/4h1n6w991j94vzjn0w5_vtp40000gn/T//ccT1jXg7.s:47     .text.startup.main:0000000000000024 .LBB2
/var/folders/ls/4h1n6w991j94vzjn0w5_vtp40000gn/T//ccT1jXg7.s:50     .text.startup.main:0000000000000028 .LBE2
/var/folders/ls/4h1n6w991j94vzjn0w5_vtp40000gn/T//ccT1jXg7.s:58     .text.startup.main:0000000000000036 .LBB3
/var/folders/ls/4h1n6w991j94vzjn0w5_vtp40000gn/T//ccT1jXg7.s:63     .text.startup.main:000000000000003a .LBE3
/var/folders/ls/4h1n6w991j94vzjn0w5_vtp40000gn/T//ccT1jXg7.s:88     .text.startup.main:000000000000005c .LBB4
/var/folders/ls/4h1n6w991j94vzjn0w5_vtp40000gn/T//ccT1jXg7.s:103    .text.startup.main:000000000000006c .LBE4

UNDEFINED SYMBOLS
rcu_periph_clock_enable
gpio_init
gpio_input_port_get
gpio_port_write
