GAS LISTING /var/folders/ls/4h1n6w991j94vzjn0w5_vtp40000gn/T//ccT1jXg7.s 			page 1


   1              		.file	"main.c"
   2              		.option nopic
   3              		.attribute arch, "rv32i2p0_m2p0_a2p0_c2p0"
   4              		.attribute unaligned_access, 0
   5              		.attribute stack_align, 16
   6              		.text
   7              	.Ltext0:
   8              		.cfi_sections	.debug_frame
   9              		.section	.text.startup.main,"ax",@progbits
  10              		.align	1
  11              		.globl	main
  13              	main:
  14              	.LFB2:
  15              		.file 1 "main.c"
   1:main.c        **** /* 
   2:main.c        **** Replace this file with your code. Put your source files in this directory and any libraries in the 
   3:main.c        **** If your main program should be assembly-language replace this file with main.S instead.
   4:main.c        **** 
   5:main.c        **** Libraries (other than vendor SDK and gcc libraries) must have .h-files in /lib/[library name]/inclu
   6:main.c        **** .c-files in /lib/[library name]/src/ to be included automatically.
   7:main.c        **** */
   8:main.c        **** 
   9:main.c        **** #include "gd32vf103.h"
  10:main.c        **** #define BITMASK 0xFFFFFFF8
  11:main.c        **** 
  12:main.c        **** int main(){
  16              		.loc 1 12 11
  17              		.cfi_startproc
  13:main.c        **** 	uint32_t port = 0;
  18              		.loc 1 13 2
  19              	.LVL0:
  14:main.c        **** 	uint32_t count = 0;
  20              		.loc 1 14 2
  15:main.c        **** 	rcu_periph_clock_enable(RCU_GPIOB);
  21              		.loc 1 15 2
  12:main.c        **** 	uint32_t port = 0;
  22              		.loc 1 12 11 is_stmt 0
  23 0000 0111     		addi	sp,sp,-32
  24              	.LCFI0:
  25              		.cfi_def_cfa_offset 32
  26              		.loc 1 15 2
  27 0002 13053060 		li	a0,1539
  12:main.c        **** 	uint32_t port = 0;
  28              		.loc 1 12 11
  29 0006 06CE     		sw	ra,28(sp)
  30 0008 22CC     		sw	s0,24(sp)
  31 000a 26CA     		sw	s1,20(sp)
  32 000c 4AC8     		sw	s2,16(sp)
  33              		.cfi_offset 1, -4
  34              		.cfi_offset 8, -8
  35              		.cfi_offset 9, -12
  36              		.cfi_offset 18, -16
  16:main.c        **** 	gpio_init(GPIOB, GPIO_MODE_OUT_PP, GPIO_OSPEED_50MHZ, GPIO_PIN_0 | GPIO_PIN_1 | GPIO_PIN_2);
  37              		.loc 1 16 2
  38 000e 37140140 		li	s0,1073811456
  15:main.c        **** 	rcu_periph_clock_enable(RCU_GPIOB);
  39              		.loc 1 15 2
GAS LISTING /var/folders/ls/4h1n6w991j94vzjn0w5_vtp40000gn/T//ccT1jXg7.s 			page 2


  40 0012 97000000 		call	rcu_periph_clock_enable
  40      E7800000 
  41              	.LVL1:
  42              		.loc 1 16 2 is_stmt 1
  43 001a 130504C0 		addi	a0,s0,-1024
  44 001e 9D46     		li	a3,7
  45 0020 0D46     		li	a2,3
  46 0022 C145     		li	a1,16
  47              	.LBB2:
  17:main.c        **** 	while(1){
  18:main.c        **** 		count += 1;
  19:main.c        **** 		port = gpio_input_port_get(GPIOB);
  20:main.c        **** 		gpio_port_write(GPIOB, (port & BITMASK) | (count & (~BITMASK)));
  21:main.c        **** 		for(volatile int i = 0; i < 1000000; i++);
  48              		.loc 1 21 3 is_stmt 0
  49 0024 37490F00 		li	s2,999424
  50              	.LBE2:
  16:main.c        **** 	gpio_init(GPIOB, GPIO_MODE_OUT_PP, GPIO_OSPEED_50MHZ, GPIO_PIN_0 | GPIO_PIN_1 | GPIO_PIN_2);
  51              		.loc 1 16 2
  52 0028 97000000 		call	gpio_init
  52      E7800000 
  53              	.LVL2:
  14:main.c        **** 	rcu_periph_clock_enable(RCU_GPIOB);
  54              		.loc 1 14 11
  55 0030 8144     		li	s1,0
  19:main.c        **** 		gpio_port_write(GPIOB, (port & BITMASK) | (count & (~BITMASK)));
  56              		.loc 1 19 10
  57 0032 130404C0 		addi	s0,s0,-1024
  58              	.LBB3:
  59              		.loc 1 21 3
  60 0036 1309F923 		addi	s2,s2,575
  61              	.LVL3:
  62              	.L4:
  63              	.LBE3:
  17:main.c        **** 	while(1){
  64              		.loc 1 17 2 is_stmt 1
  18:main.c        **** 		port = gpio_input_port_get(GPIOB);
  65              		.loc 1 18 3
  19:main.c        **** 		gpio_port_write(GPIOB, (port & BITMASK) | (count & (~BITMASK)));
  66              		.loc 1 19 10 is_stmt 0
  67 003a 2285     		mv	a0,s0
  68 003c 97000000 		call	gpio_input_port_get
  68      E7800000 
  69              	.LVL4:
  18:main.c        **** 		port = gpio_input_port_get(GPIOB);
  70              		.loc 1 18 9
  71 0044 8504     		addi	s1,s1,1
  72              	.LVL5:
  19:main.c        **** 		gpio_port_write(GPIOB, (port & BITMASK) | (count & (~BITMASK)));
  73              		.loc 1 19 3 is_stmt 1
  20:main.c        **** 		for(volatile int i = 0; i < 1000000; i++);
  74              		.loc 1 20 3
  20:main.c        **** 		for(volatile int i = 0; i < 1000000; i++);
  75              		.loc 1 20 32 is_stmt 0
  76 0046 6199     		andi	a0,a0,-8
  77              	.LVL6:
  20:main.c        **** 		for(volatile int i = 0; i < 1000000; i++);
GAS LISTING /var/folders/ls/4h1n6w991j94vzjn0w5_vtp40000gn/T//ccT1jXg7.s 			page 3


  78              		.loc 1 20 52
  79 0048 93F57400 		andi	a1,s1,7
  20:main.c        **** 		for(volatile int i = 0; i < 1000000; i++);
  80              		.loc 1 20 3
  81 004c C98D     		or	a1,a0,a1
  82 004e C205     		slli	a1,a1,16
  83 0050 C181     		srli	a1,a1,16
  84 0052 2285     		mv	a0,s0
  85 0054 97000000 		call	gpio_port_write
  85      E7800000 
  86              	.LVL7:
  87              		.loc 1 21 3 is_stmt 1
  88              	.LBB4:
  89              		.loc 1 21 7
  90              		.loc 1 21 20 is_stmt 0
  91 005c 02C6     		sw	zero,12(sp)
  92              	.L2:
  93              		.loc 1 21 29 discriminator 1
  94 005e B247     		lw	a5,12(sp)
  95              		.loc 1 21 3 discriminator 1
  96 0060 E34DF9FC 		bgt	a5,s2,.L4
  97              		.loc 1 21 44 is_stmt 1 discriminator 3
  98              		.loc 1 21 41 is_stmt 0 discriminator 3
  99 0064 B247     		lw	a5,12(sp)
 100 0066 8507     		addi	a5,a5,1
 101 0068 3EC6     		sw	a5,12(sp)
 102 006a D5BF     		j	.L2
 103              	.LBE4:
 104              		.cfi_endproc
 105              	.LFE2:
 107              		.text
 108              	.Letext0:
 109              		.file 2 "/Users/jorgepadilla/Documents/GitHub/DataFusion/src/DataFusionExe/PressureReadings/projec
 110              		.file 3 "/Users/jorgepadilla/Documents/GitHub/DataFusion/src/DataFusionExe/PressureReadings/projec
 111              		.file 4 "../../firmware/GD32VF103_standard_peripheral/Include/gd32vf103_rcu.h"
 112              		.file 5 "../../firmware/GD32VF103_standard_peripheral/Include/gd32vf103_gpio.h"
 113              		.file 6 "../../firmware/GD32VF103_standard_peripheral/system_gd32vf103.h"
GAS LISTING /var/folders/ls/4h1n6w991j94vzjn0w5_vtp40000gn/T//ccT1jXg7.s 			page 4

